; ModuleID = '/Volumes/Jenkins/workspace/Component.LLVM.RuntimeLibrary.MacOSX-x86-64.12.0/scratch/rtl_makefiles/lib/WolframRTL_Exports.bc'
source_filename = "/Volumes/Jenkins/workspace/Component.LLVM.RuntimeLibrary.MacOSX-x86-64.12.0/scratch/rtl_makefiles/lib/WolframRTL_Exports.bc"

%struct.st_ZSpan = type { %struct.st_ZRow*, %struct.st_ZSpan*, %struct.st_ZSpan*, %struct.st_ZSpan*, %struct.st_ZBlock**, %struct.st_ZBlock**, %struct.st_ZBlock*, i64 }
%struct.st_ZRow = type { %struct.st_ZAllocator*, %struct.st_KMutex*, %struct.st_ZSpan*, %struct.st_ZSpan*, %struct.st_ZSpan*, %struct.st_ZSpan*, i64, i64, i64, i64, i64, i64 }
%struct.st_ZAllocator = type { %struct.st_ZAllocator*, %struct.st_ZAllocator*, %struct.st_ZRow**, %struct.st_MallocBlock*, %struct.st_MallocBlock**, i8*, %struct.st_KMutex*, i64, i64, i64, i64, i64, i64, i32, i32, i64 }
%struct.st_MallocBlock = type { %struct.st_MallocBlock**, %struct.st_MallocBlock*, %struct.st_MallocBlock*, %struct.st_ZAllocator* }
%struct.st_KMutex = type { i8* }
%struct.st_ZBlock = type { %union.ZHeader }
%union.ZHeader = type { i64 }
%struct.st_MaxMemoryCell = type { i64, %struct.st_MaxMemoryCell* }
%struct.st_PageInformation = type { i64, i64, i64, i64, i32 }
%ident_t = type { i32, i32, i32, i32, i8* }
%"class.std::__1::complex" = type { double, double }
%"struct.std::__1::pair" = type { i64, i64 }
%struct.st_ParallelThreadsSchedule = type { i64, i64, i32 }
%struct.st_ParallelThreadsEnvironment = type { i64, i32, %struct.st_KMutex*, %struct.st_KMutex*, %struct.st_KMutex*, %struct.st_KMutex*, i64, %struct.st_ParallelThread*, %struct.st_ParallelThread**, %struct.st_ParallelThread*, i32, i32 }
%struct.st_ParallelThread = type { i64, i32, i32, %struct.st_KMutex*, %struct.st_KMutex*, %struct.st_ParallelThreadsEnvironment*, %struct.st_ParallelThreadState*, %struct.st_KMutex*, i64, %struct.st_ParallelThread* }
%struct.st_ParallelThreadState = type { i64, i64, i64, void (i8*, %struct.st_ParallelThread*)*, i8* }
%"struct.std::__1::pair.0" = type { %"class.std::__1::complex", %"class.std::__1::complex" }
%struct.st_MDataArray = type { double, i64*, i64, i32, i32, i32, i64, i8*, i64 }
%struct.st_WolframLibraryData = type { void (i8*)*, i32 (i64, i64, i64*, %struct.st_MDataArray**)*, void (%struct.st_MDataArray*)*, i32 (%struct.st_MDataArray*, %struct.st_MDataArray**)*, i64 (%struct.st_MDataArray*)*, void (%struct.st_MDataArray*)*, void (%struct.st_MDataArray*)*, i32 (%struct.st_MDataArray*, i64*, i64)*, i32 (%struct.st_MDataArray*, i64*, double)*, i32 (%struct.st_MDataArray*, i64*, double, double)*, i32 (%struct.st_MDataArray*, %struct.st_MDataArray*, i64*, i64)*, i32 (%struct.st_MDataArray*, i64*, i64*)*, i32 (%struct.st_MDataArray*, i64*, double*)*, i32 (%struct.st_MDataArray*, i64*, %"class.std::__1::complex"*)*, i32 (%struct.st_MDataArray*, i64*, i64, %struct.st_MDataArray**)*, i64 (%struct.st_MDataArray*)*, i64* (%struct.st_MDataArray*)*, i64 (%struct.st_MDataArray*)*, i64 (%struct.st_MDataArray*)*, i64* (%struct.st_MDataArray*)*, double* (%struct.st_MDataArray*)*, %"class.std::__1::complex"* (%struct.st_MDataArray*)*, void (i8*)*, i64 ()*, %struct.MLINK_STRUCT* (%struct.st_WolframLibraryData*)*, i32 (%struct.MLINK_STRUCT*)*, i32 (%struct.st_WolframLibraryData*, i8*, i32, i64, i8*)*, %struct.st_WolframRuntimeData*, %struct.st_WolframCompileLibrary_Functions*, i64, i32 (i8*, void (%struct.st_MInputStream*, i8*, i8*)*, i32 (i8*, i8*)*, i8*, void (i8*)*)*, i32 (i8*)*, i32 (i8*, void (%struct.st_MOutputStream*, i8*, i8*, i32)*, i32 (i8*, i8*)*, i8*, void (i8*)*)*, i32 (i8*)*, %struct.st_WolframIOLibrary_Functions*, %struct.MLENV_STRUCT* (%struct.st_WolframLibraryData*)*, %struct.st_WolframSparseLibrary_Functions*, %struct.st_WolframImageLibrary_Functions*, i32 (i8*, void (%struct.st_WolframLibraryData*, i32, i64)*)*, i32 (i8*)*, i32 (i8*, i64)*, i32 (i8*, i32 (%struct.st_WolframLibraryData*, i64, %struct.st_MDataArray*)*)*, i32 (i8*)*, i32 (i64, i64, %union.MArgument*, i32*)*, i32 (i64)*, i32 (i8*, i8)*, i32 ()*, %struct.st_WolframRawArrayLibrary_Functions*, %struct.st_WolframNumericArrayLibrary_Functions* }
%struct.MLINK_STRUCT = type opaque
%struct.st_WolframRuntimeData = type opaque
%struct.st_WolframCompileLibrary_Functions = type { i64, %struct.M_TENSOR_INITIALIZATION_DATA_STRUCT* (%struct.st_WolframLibraryData*, i64)*, void (%struct.M_TENSOR_INITIALIZATION_DATA_STRUCT*)*, void (%struct.st_WolframLibraryData*, i32)*, %struct.st_MDataArray* ()*, i32 (%struct.st_MDataArray**, i32, i64, i64*)*, i32 (%struct.st_MDataArray**, %struct.st_MDataArray*)*, i32 (%struct.st_MDataArray**, %struct.st_MDataArray*)*, i32 (%struct.st_MDataArray*, %struct.st_MDataArray*, i64*)*, i32 (%struct.st_MDataArray**, %struct.st_MDataArray*, i64*, i64)*, i32 (%struct.st_MDataArray**, %struct.st_MDataArray*, i64, i32*, i8**)*, i32 (%struct.st_MDataArray**, %struct.st_MDataArray*, i64, i32*, i8**)*, i64 (i8*, i8*, i64, i64*, i32)* (i32, i32)*, i32 (i32, i32, %struct.st_MDataArray*, i32, %struct.st_MDataArray**)*, i32 (i32, i32, i32, i8*, i32, i8*)*, i64 (i8*, i8*, i8*, i64, i64*, i32)* (i32, i32, i32)*, i32 (i32, i32, %struct.st_MDataArray*, %struct.st_MDataArray*, i32, %struct.st_MDataArray**)*, i32 (i32, i32, i32, i8*, i32, i8*, i32, i8*)*, i32 (i32, double, i64, double*)*, i32 (i32, double, i64, %"class.std::__1::complex"*, i32*)*, i8* (%struct.st_WolframLibraryData*, i8*)*, i32 (%struct.st_WolframLibraryData*, i8*, i64, i64, i64, i32*, i8**, i32, i64, i8*)*, i8** (%struct.st_WolframLibraryData*, i64)*, i32 (%struct.st_WolframLibraryData*, i64, %union.MArgument*, i32*)* (i8*, i8*)*, i32 (%struct.st_WolframLibraryData*, i64, %union.MArgument*, i32*)* (i8*)*, i32 (i8*, i32, i32)*, %struct.st_MDataArray* (i8*, i32, i64)*, i32 (%struct.st_MDataArray*, %struct.st_MDataArray**)* }
%struct.M_TENSOR_INITIALIZATION_DATA_STRUCT = type { %struct.st_MDataArray**, i64, i32 }
%union.MArgument = type { i32* }
%struct.st_MInputStream = type { i8*, i8*, i8*, i32, i32, i32, i32, i8*, i8*, i8*, %struct.st_MInputStream*, i64 (%struct.st_MInputStream*, i8*, i64)*, i32 (%struct.st_MInputStream*, i64)*, i32 (%struct.st_MInputStream*)*, i64 (%struct.st_MInputStream*)*, i8* (%struct.st_MInputStream*)*, void (%struct.st_MInputStream*)*, i64 (%struct.st_MInputStream*)*, void (%struct.st_MInputStream*, i8*)*, i32 (%struct.st_MInputStream*)*, i32 (%struct.st_MInputStream*)*, void (%struct.st_MInputStream*)*, i32 (%struct.st_MInputStream*)* }
%struct.st_MOutputStream = type { i8*, i8*, i8*, i32, i32, i32, i32, i8*, i8*, i8*, %struct.st_MOutputStream*, i64 (%struct.st_MOutputStream*, i8*, i64)*, i32 (%struct.st_MOutputStream*)*, i64 (%struct.st_MOutputStream*)*, i8* (%struct.st_MOutputStream*)*, void (%struct.st_MOutputStream*)*, i32 (%struct.st_MOutputStream*)*, void (%struct.st_MOutputStream*, i8*)*, i32 (%struct.st_MOutputStream*)* }
%struct.st_WolframIOLibrary_Functions = type { i64 ()*, i64 (void (i64, i8*)*, i8*)*, void (i64, i8*, %struct.st_DataStore*)*, i32 (i64)*, i32 (i64)*, %struct.st_DataStore* ()*, void (%struct.st_DataStore*, i64)*, void (%struct.st_DataStore*, double)*, void (%struct.st_DataStore*, double, double)*, void (%struct.st_DataStore*, i8*)*, void (%struct.st_DataStore*, %struct.st_MDataArray*)*, void (%struct.st_DataStore*, %struct.st_MDataArray*)*, void (%struct.st_DataStore*, %struct.IMAGEOBJ_ENTRY*)*, void (%struct.st_DataStore*, %struct.st_DataStore*)*, void (%struct.st_DataStore*, i8*, i64)*, void (%struct.st_DataStore*, i8*, double)*, void (%struct.st_DataStore*, i8*, double, double)*, void (%struct.st_DataStore*, i8*, i8*)*, void (%struct.st_DataStore*, i8*, %struct.st_MDataArray*)*, void (%struct.st_DataStore*, i8*, %struct.st_MDataArray*)*, void (%struct.st_DataStore*, i8*, %struct.IMAGEOBJ_ENTRY*)*, void (%struct.st_DataStore*, i8*, %struct.st_DataStore*)*, i64 (i64)*, void (%struct.st_DataStore*)*, %struct.st_DataStore* (%struct.st_DataStore*)*, i64 (%struct.st_DataStore*)*, %struct.DataStoreNode_t* (%struct.st_DataStore*)*, %struct.DataStoreNode_t* (%struct.st_DataStore*)*, %struct.DataStoreNode_t* (%struct.DataStoreNode_t*)*, i32 (%struct.DataStoreNode_t*)*, i32 (%struct.DataStoreNode_t*, %union.MArgument*)*, i32 (%struct.DataStoreNode_t*, i8**)*, void (%struct.st_DataStore*, i32)*, void (%struct.st_DataStore*, i8*, i32)*, void (%struct.st_DataStore*, %struct.st_MDataArray*)*, void (%struct.st_DataStore*, i8*, %struct.st_MDataArray*)*, void (%struct.st_DataStore*, %struct.st_MSparseArray*)*, void (%struct.st_DataStore*, i8*, %struct.st_MSparseArray*)* }
%struct.st_DataStore = type opaque
%struct.IMAGEOBJ_ENTRY = type { i8*, i64, i64, i64, i64, i32, i32, i32, i32, i32, i32, i64, i64, i64, i64, i64, i64, i64, i64*, i64, i64, i64, i64, i8*, double*, double*, i8*, i64, void (i8*, i8*, i64)*, void (i8*, i8*, i64, i64, i64)*, void (i8*, i8*, i64, i64, i64, i64, i64)*, void (i8*, i8*, i64, i64, i64, i64, i64, i64)*, void (%struct.IMAGEOBJ_ENTRY*, double, i8*)*, i8* (%struct.IMAGEOBJ_ENTRY*, double*, i64)*, i64, i64 }
%struct.DataStoreNode_t = type opaque
%struct.st_MSparseArray = type { %struct.st_SparseArrayAllocation*, %struct.st_MTensorSparseArrayAllocation*, i64*, i64*, %struct.st_TensorProperty*, i64, i32, i32 }
%struct.st_SparseArrayAllocation = type { %struct.st_MDataArray*, %struct.st_MDataArray*, %struct.st_MDataArray*, %struct.st_MDataArray*, i8* }
%struct.st_MTensorSparseArrayAllocation = type { %struct.st_MDataArray*, %struct.st_MDataArray*, %struct.st_MDataArray*, %struct.st_MDataArray*, %struct.st_SparseArraySkeleton* }
%struct.st_SparseArraySkeleton = type { i8*, i8*, i64*, i64*, %struct.st_TensorProperty*, i64, i32, i32 }
%struct.st_TensorProperty = type { double, i64*, i64, i32, i32 }
%struct.MLENV_STRUCT = type opaque
%struct.st_WolframSparseLibrary_Functions = type { i32 (%struct.st_MSparseArray*, %struct.st_MSparseArray**)*, void (%struct.st_MSparseArray*)*, void (%struct.st_MSparseArray*)*, void (%struct.st_MSparseArray*)*, i64 (%struct.st_MSparseArray*)*, i64 (%struct.st_MSparseArray*)*, i64* (%struct.st_MSparseArray*)*, %struct.st_MDataArray** (%struct.st_MSparseArray*)*, %struct.st_MDataArray** (%struct.st_MSparseArray*)*, %struct.st_MDataArray** (%struct.st_MSparseArray*)*, %struct.st_MDataArray** (%struct.st_MSparseArray*)*, i32 (%struct.st_MSparseArray*, %struct.st_MDataArray**)*, i32 (%struct.st_MSparseArray*, %struct.st_MDataArray*, %struct.st_MSparseArray**)*, i32 (%struct.st_MSparseArray*, %struct.st_MDataArray**)*, i32 (%struct.st_MDataArray*, %struct.st_MDataArray*, %struct.st_MSparseArray**)*, i32 (%struct.st_MDataArray*, %struct.st_MDataArray*, %struct.st_MDataArray*, %struct.st_MDataArray*, %struct.st_MSparseArray**)* }
%struct.st_WolframImageLibrary_Functions = type { i32 (i64, i64, i64, i32, i32, i32, %struct.IMAGEOBJ_ENTRY**)*, i32 (i64, i64, i64, i64, i32, i32, i32, %struct.IMAGEOBJ_ENTRY**)*, i32 (%struct.IMAGEOBJ_ENTRY*, %struct.IMAGEOBJ_ENTRY**)*, void (%struct.IMAGEOBJ_ENTRY*)*, void (%struct.IMAGEOBJ_ENTRY*)*, void (%struct.IMAGEOBJ_ENTRY*)*, i64 (%struct.IMAGEOBJ_ENTRY*)*, i32 (%struct.IMAGEOBJ_ENTRY*)*, i64 (%struct.IMAGEOBJ_ENTRY*)*, i64 (%struct.IMAGEOBJ_ENTRY*)*, i64 (%struct.IMAGEOBJ_ENTRY*)*, i64 (%struct.IMAGEOBJ_ENTRY*)*, i64 (%struct.IMAGEOBJ_ENTRY*)*, i32 (%struct.IMAGEOBJ_ENTRY*)*, i32 (%struct.IMAGEOBJ_ENTRY*)*, i32 (%struct.IMAGEOBJ_ENTRY*)*, i64 (%struct.IMAGEOBJ_ENTRY*)*, i32 (%struct.IMAGEOBJ_ENTRY*, i64*, i64, i8*)*, i32 (%struct.IMAGEOBJ_ENTRY*, i64*, i64, i8*)*, i32 (%struct.IMAGEOBJ_ENTRY*, i64*, i64, i16*)*, i32 (%struct.IMAGEOBJ_ENTRY*, i64*, i64, float*)*, i32 (%struct.IMAGEOBJ_ENTRY*, i64*, i64, double*)*, i32 (%struct.IMAGEOBJ_ENTRY*, i64*, i64, i8)*, i32 (%struct.IMAGEOBJ_ENTRY*, i64*, i64, i8)*, i32 (%struct.IMAGEOBJ_ENTRY*, i64*, i64, i16)*, i32 (%struct.IMAGEOBJ_ENTRY*, i64*, i64, float)*, i32 (%struct.IMAGEOBJ_ENTRY*, i64*, i64, double)*, i8* (%struct.IMAGEOBJ_ENTRY*)*, i8* (%struct.IMAGEOBJ_ENTRY*)*, i8* (%struct.IMAGEOBJ_ENTRY*)*, i16* (%struct.IMAGEOBJ_ENTRY*)*, float* (%struct.IMAGEOBJ_ENTRY*)*, double* (%struct.IMAGEOBJ_ENTRY*)*, %struct.IMAGEOBJ_ENTRY* (%struct.IMAGEOBJ_ENTRY*, i32, i32)* }
%struct.st_WolframRawArrayLibrary_Functions = type { i32 (i32, i64, i64*, %struct.st_MDataArray**)*, void (%struct.st_MDataArray*)*, i32 (%struct.st_MDataArray*, %struct.st_MDataArray**)*, void (%struct.st_MDataArray*)*, void (%struct.st_MDataArray*)*, i64 (%struct.st_MDataArray*)*, i32 (%struct.st_MDataArray*)*, i64 (%struct.st_MDataArray*)*, i64* (%struct.st_MDataArray*)*, i64 (%struct.st_MDataArray*)*, i8* (%struct.st_MDataArray*)*, %struct.st_MDataArray* (%struct.st_MDataArray*, i32)* }
%struct.st_WolframNumericArrayLibrary_Functions = type { i32 (i32, i64, i64*, %struct.st_MDataArray**)*, void (%struct.st_MDataArray*)*, i32 (%struct.st_MDataArray*, %struct.st_MDataArray**)*, void (%struct.st_MDataArray*)*, void (%struct.st_MDataArray*)*, i64 (%struct.st_MDataArray*)*, i32 (%struct.st_MDataArray*)*, i64 (%struct.st_MDataArray*)*, i64* (%struct.st_MDataArray*)*, i64 (%struct.st_MDataArray*)*, i8* (%struct.st_MDataArray*)*, i32 (%struct.st_MDataArray**, %struct.st_MDataArray*, i32, i32, double)* }
%struct.MemoryLinkedList_struct = type { i8*, %struct.MemoryLinkedList_struct* }
%struct.MBag_struct = type { %struct.MemoryLinkedList_struct*, %struct.MemoryLinkedList_struct**, i64, i64, i8*, i8*, i64, i64, i32 }
%struct.part_ind = type { i32, i64, i64*, i64, i64 }
%struct.MBagArray_struct = type { i64, i64, %struct.MBag_struct** }
%struct.RuntimeData_struct = type { i8*, %struct.MBagArray_struct*, %struct.BPdata*, %struct.MemoryLinkedList_struct*, i8*, i8*, i8*, %struct.MemoryLinkedList_struct*, %struct.MemoryLinkedList_struct*, i32, %struct.st_WolframLibraryData* }
%struct.BPdata = type opaque
%struct.RandomGenerator_struct = type { %struct.RandomGeneratorMethodData_struct*, %struct.RandomGeneratorFunctions_struct*, void (%struct.RandomGenerator_struct*, i64*, i64)*, i8* }
%struct.RandomGeneratorMethodData_struct = type { i64, i8*, i64 }
%struct.RandomGeneratorFunctions_struct = type { i64 (i64, %struct.RandomGenerator_struct*)*, i32 (i64*, i64, %struct.RandomGenerator_struct*)*, i32 (i64*, i64, i64, i64, %struct.RandomGenerator_struct*)*, i32 (double*, i64, double, double, %struct.RandomGenerator_struct*)*, i32 (i8**, i64, i8*, i8*, %struct.RandomGenerator_struct*)*, i32 (i8**, i64, i8*, i8*, double, %struct.RandomGenerator_struct*)*, %struct.RandomDistributionFunctionArray_struct* }
%struct.RandomDistributionFunctionArray_struct = type opaque
%struct.CompilerError_st = type { i32, i32 }
%struct._Unwind_Exception = type { i64, void (i32, %struct._Unwind_Exception*)*, i64, i64 }
%class.WolframRuntimeException = type <{ %"class.std::exception", i32, [4 x i8] }>
%"class.std::exception" = type { i32 (...)** }
%"class.std::__1::basic_string" = type { %"class.std::__1::__compressed_pair" }
%"class.std::__1::__compressed_pair" = type { %"struct.std::__1::__compressed_pair_elem" }
%"struct.std::__1::__compressed_pair_elem" = type { %"struct.std::__1::basic_string<char, std::__1::char_traits<char>, std::__1::allocator<char> >::__rep" }
%"struct.std::__1::basic_string<char, std::__1::char_traits<char>, std::__1::allocator<char> >::__rep" = type { %union.anon }
%union.anon = type { %"struct.std::__1::basic_string<char, std::__1::char_traits<char>, std::__1::allocator<char> >::__long" }
%"struct.std::__1::basic_string<char, std::__1::char_traits<char>, std::__1::allocator<char> >::__long" = type { i64, i64, i8* }
%"class.std::__1::complex.156" = type { float, float }
%"class.std::__1::basic_ostream" = type { i32 (...)**, %"class.std::__1::basic_ios.base" }
%"class.std::__1::basic_ios.base" = type <{ %"class.std::__1::ios_base", %"class.std::__1::basic_ostream"*, i32 }>
%"class.std::__1::ios_base" = type { i32 (...)**, i32, i64, i64, i32, i32, i8*, i8*, void (i32, %"class.std::__1::ios_base"*, i32)**, i32*, i64, i64, i64*, i64, i64, i8**, i64, i64 }
%"class.std::__1::basic_ostream<char, std::__1::char_traits<char> >::sentry" = type { i8, %"class.std::__1::basic_ostream"* }
%"class.std::__1::locale" = type { %"class.std::__1::locale::__imp"* }
%"class.std::__1::locale::__imp" = type opaque
%"class.std::__1::locale::facet" = type { %"class.std::__1::__shared_count" }
%"class.std::__1::__shared_count" = type { i32 (...)**, i64 }
%"class.std::__1::locale::id" = type <{ %union.ZHeader, i32, [4 x i8] }>
%"class.std::__1::basic_streambuf" = type { i32 (...)**, %"class.std::__1::locale", i8*, i8*, i8*, i8*, i8*, i8* }
%"class.std::__1::vector" = type { %"class.std::__1::__vector_base" }
%"class.std::__1::__vector_base" = type { %"class.std::__1::future"*, %"class.std::__1::future"*, %"class.std::__1::__compressed_pair.180" }
%"class.std::__1::future" = type { %"class.std::__1::__assoc_sub_state"* }
%"class.std::__1::__assoc_sub_state" = type <{ %"class.std::__1::__shared_count", %struct.st_KMutex, %"class.std::__1::mutex", %"class.std::__1::condition_variable", i32, [4 x i8] }>
%"class.std::__1::mutex" = type { %struct._opaque_pthread_mutex_t }
%struct._opaque_pthread_mutex_t = type { i64, [56 x i8] }
%"class.std::__1::condition_variable" = type { %struct._opaque_pthread_cond_t }
%struct._opaque_pthread_cond_t = type { i64, [40 x i8] }
%"class.std::__1::__compressed_pair.180" = type { %"struct.std::__1::__compressed_pair_elem.179" }
%"struct.std::__1::__compressed_pair_elem.179" = type { %"class.std::__1::future"* }
%"class.std::__1::__thread_struct" = type { %"class.std::__1::__thread_struct_imp"* }
%"class.std::__1::__thread_struct_imp" = type opaque
%struct._opaque_pthread_t = type { i64, %struct.__darwin_pthread_handler_rec*, [8176 x i8] }
%struct.__darwin_pthread_handler_rec = type { void (i8*)*, i8*, %struct.__darwin_pthread_handler_rec* }
%"class.std::__1::thread" = type { %struct._opaque_pthread_t* }
%union.anon.0 = type { i8 }
%"class.std::logic_error" = type { %"class.std::exception", %struct.st_KMutex }
%"class.std::length_error" = type { %"class.std::logic_error" }
%"class.std::__1::__async_assoc_state" = type { %"class.std::__1::__assoc_sub_state.base", %"class.std::__1::__async_func" }
%"class.std::__1::__assoc_sub_state.base" = type <{ %"class.std::__1::__shared_count", %struct.st_KMutex, %"class.std::__1::mutex", %"class.std::__1::condition_variable", i32 }>
%"class.std::__1::__async_func" = type { %"class.std::__1::tuple" }
%"class.std::__1::tuple" = type { %"struct.std::__1::__tuple_impl" }
%"struct.std::__1::__tuple_impl" = type { %"class.std::__1::__tuple_leaf" }
%"class.std::__1::__tuple_leaf" = type { %class.anon.8 }
%class.anon.8 = type { i64*, i64*, i64, i64, i64, %class.anon*, %"class.std::__1::vector.1"* }
%class.anon = type { i64 (i64)* }
%"class.std::__1::vector.1" = type { %"class.std::__1::__vector_base.2" }
%"class.std::__1::__vector_base.2" = type { i32*, i32*, %"class.std::__1::__compressed_pair.3" }
%"class.std::__1::__compressed_pair.3" = type { %union.MArgument }
%struct.st_IntegerArrayHashTable = type { %struct.st_hashtable*, i64, i8*, i32 }
%struct.st_hashtable = type { %struct.st_hash_entry**, i64 (%struct.st_hash_entry*)*, void (%struct.st_hash_entry*, %struct.st_hash_entry*)*, i32 (%struct.st_hash_entry*, %struct.st_hash_entry*)*, void (%struct.st_hash_entry*)*, void (%struct.st_hash_entry*)*, void (%struct.st_hashtable*)*, i64, i64, i64, i64, i64, i32 }
%struct.st_hash_entry = type { i8*, i8*, i64, %struct.st_hash_entry* }
%struct.st_WolframLibraryData.208 = type { void (i8*)*, i32 (i64, i64, i64*, %struct.st_MDataArray**)*, void (%struct.st_MDataArray*)*, i32 (%struct.st_MDataArray*, %struct.st_MDataArray**)*, i64 (%struct.st_MDataArray*)*, void (%struct.st_MDataArray*)*, void (%struct.st_MDataArray*)*, i32 (%struct.st_MDataArray*, i64*, i64)*, i32 (%struct.st_MDataArray*, i64*, double)*, i32 (%struct.st_MDataArray*, i64*, double, double)*, i32 (%struct.st_MDataArray*, %struct.st_MDataArray*, i64*, i64)*, i32 (%struct.st_MDataArray*, i64*, i64*)*, i32 (%struct.st_MDataArray*, i64*, double*)*, i32 (%struct.st_MDataArray*, i64*, %"class.std::__1::complex"*)*, i32 (%struct.st_MDataArray*, i64*, i64, %struct.st_MDataArray**)*, i64 (%struct.st_MDataArray*)*, i64* (%struct.st_MDataArray*)*, i64 (%struct.st_MDataArray*)*, i64 (%struct.st_MDataArray*)*, i64* (%struct.st_MDataArray*)*, double* (%struct.st_MDataArray*)*, %"class.std::__1::complex"* (%struct.st_MDataArray*)*, void (i8*)*, i64 ()*, %struct.MLINK_STRUCT* (%struct.st_WolframLibraryData.208*)*, i32 (%struct.MLINK_STRUCT*)*, i32 (%struct.st_WolframLibraryData.208*, i8*, i32, i64, i8*)*, %struct.st_WolframRuntimeData*, %struct.st_WolframCompileLibrary_Functions.194*, i64, i32 (i8*, void (%struct.st_MInputStream*, i8*, i8*)*, i32 (i8*, i8*)*, i8*, void (i8*)*)*, i32 (i8*)*, i32 (i8*, void (%struct.st_MOutputStream*, i8*, i8*, i32)*, i32 (i8*, i8*)*, i8*, void (i8*)*)*, i32 (i8*)*, %struct.st_WolframIOLibrary_Functions*, %struct.MLENV_STRUCT* (%struct.st_WolframLibraryData.208*)*, %struct.st_WolframSparseLibrary_Functions*, %struct.st_WolframImageLibrary_Functions*, i32 (i8*, void (%struct.st_WolframLibraryData.208*, i32, i64)*)*, i32 (i8*)*, i32 (i8*, i64)*, i32 (i8*, i32 (%struct.st_WolframLibraryData.208*, i64, %struct.st_MDataArray*)*)*, i32 (i8*)*, i32 (i64, i64, %union.MArgument*, i32*)*, i32 (i64)*, i32 (i8*, i8)*, i32 ()*, %struct.st_WolframRawArrayLibrary_Functions*, %struct.st_WolframNumericArrayLibrary_Functions* }
%struct.st_WolframCompileLibrary_Functions.194 = type { i64, %struct.M_TENSOR_INITIALIZATION_DATA_STRUCT* (%struct.st_WolframLibraryData.208*, i64)*, void (%struct.M_TENSOR_INITIALIZATION_DATA_STRUCT*)*, void (%struct.st_WolframLibraryData.208*, i32)*, %struct.st_MDataArray* ()*, i32 (%struct.st_MDataArray**, i32, i64, i64*)*, i32 (%struct.st_MDataArray**, %struct.st_MDataArray*)*, i32 (%struct.st_MDataArray**, %struct.st_MDataArray*)*, i32 (%struct.st_MDataArray*, %struct.st_MDataArray*, i64*)*, i32 (%struct.st_MDataArray**, %struct.st_MDataArray*, i64*, i64)*, i32 (%struct.st_MDataArray**, %struct.st_MDataArray*, i64, i32*, i8**)*, i32 (%struct.st_MDataArray**, %struct.st_MDataArray*, i64, i32*, i8**)*, i64 (i8*, i8*, i64, i64*, i32)* (i32, i32)*, i32 (i32, i32, %struct.st_MDataArray*, i32, %struct.st_MDataArray**)*, i32 (i32, i32, i32, i8*, i32, i8*)*, i64 (i8*, i8*, i8*, i64, i64*, i32)* (i32, i32, i32)*, i32 (i32, i32, %struct.st_MDataArray*, %struct.st_MDataArray*, i32, %struct.st_MDataArray**)*, i32 (i32, i32, i32, i8*, i32, i8*, i32, i8*)*, i32 (i32, double, i64, double*)*, i32 (i32, double, i64, %"class.std::__1::complex"*, i32*)*, i8* (%struct.st_WolframLibraryData.208*, i8*)*, i32 (%struct.st_WolframLibraryData.208*, i8*, i64, i64, i64, i32*, i8**, i32, i64, i8*)*, i8** (%struct.st_WolframLibraryData.208*, i64)*, {}* (i8*, i8*)*, {}* (i8*)*, i32 (i8*, i32, i32)*, %struct.st_MDataArray* (i8*, i32, i64)*, i32 (%struct.st_MDataArray*, %struct.st_MDataArray**)* }
%struct.MULTIPLE_ARRAY_HASH_STRUCT = type { i64, i64*, i64**, i64 }
%struct.sparse_matrix = type opaque
%struct.idc_num_t = type { i32, %"union.idc_num_t::num_t" }
%"union.idc_num_t::num_t" = type { %"class.std::__1::complex" }
%struct.part_message_data_struct = type { [2 x i64], void (i8*, %struct.part_message_data_struct*)*, i8*, i8* }
%"struct.std::__1::__hash_node_base" = type { %"struct.std::__1::__hash_node_base"* }
%"class.std::__1::__hash_table" = type <{ %"class.std::__1::unique_ptr.282", %"class.std::__1::__compressed_pair.10.284", %struct.st_ZBlock, %"class.std::__1::__compressed_pair.17", [4 x i8] }>
%"class.std::__1::unique_ptr.282" = type { %"class.std::__1::__compressed_pair.2" }
%"class.std::__1::__compressed_pair.2" = type { %"struct.std::__1::__compressed_pair_elem.3", %"struct.std::__1::__compressed_pair_elem.4" }
%"struct.std::__1::__compressed_pair_elem.3" = type { %"struct.std::__1::__hash_node_base"** }
%"struct.std::__1::__compressed_pair_elem.4" = type { %"class.std::__1::__bucket_list_deallocator" }
%"class.std::__1::__bucket_list_deallocator" = type { %struct.st_ZBlock }
%"class.std::__1::__compressed_pair.10.284" = type { %"struct.std::__1::__compressed_pair_elem.11.283" }
%"struct.std::__1::__compressed_pair_elem.11.283" = type { %"struct.std::__1::__hash_node_base" }
%"class.std::__1::__compressed_pair.17" = type { %"struct.half_float::detail::expr" }
%"struct.half_float::detail::expr" = type { float }
%"struct.std::__1::__hash_node_base.22" = type { %"struct.std::__1::__hash_node_base.22"* }
%"class.std::__1::__hash_table.26" = type <{ %"class.std::__1::unique_ptr.27", %"class.std::__1::__compressed_pair.36", %struct.st_ZBlock, %"class.std::__1::__compressed_pair.17", [4 x i8] }>
%"class.std::__1::unique_ptr.27" = type { %"class.std::__1::__compressed_pair.28" }
%"class.std::__1::__compressed_pair.28" = type { %"struct.std::__1::__compressed_pair_elem.29", %"struct.std::__1::__compressed_pair_elem.4" }
%"struct.std::__1::__compressed_pair_elem.29" = type { %"struct.std::__1::__hash_node_base.22"** }
%"class.std::__1::__compressed_pair.36" = type { %"struct.std::__1::__compressed_pair_elem.37" }
%"struct.std::__1::__compressed_pair_elem.37" = type { %"struct.std::__1::__hash_node_base.22" }
%struct.st_MNumericArrayConvertData = type { double, i32, i8 }
%struct.sched_param = type { i32, [4 x i8] }
%struct._opaque_pthread_mutexattr_t = type { i64, [8 x i8] }
%struct.timeval = type { i64, i32 }
%struct.RandomGeneratorMethod_struct = type { i8*, i64, %struct.RandomGenerator_struct* (i8*)*, %struct.RandomGenerator_struct* (%struct.RandomGenerator_struct*)*, void (%struct.RandomGenerator_struct*)*, %struct.RandomGeneratorMethod_struct*, i8* (%struct.RandomGenerator_struct*)*, %struct.RandomGenerator_struct* (i8*)*, i8* (i8*)*, i8* }
%struct.random_state_entry_struct = type { i32, %struct.RandomGenerator_struct*, %struct.random_state_entry_struct*, %struct.random_state_entry_struct* }
%struct.RandomState_struct = type { %struct.random_state_entry_struct*, i8*, i32 }
%struct.buffer_data_struct = type { i64*, i64, i64, i64, i64 }
%struct.RandomBuffer_struct = type { %struct.RandomGeneratorMethodData_struct*, %struct.RandomGeneratorFunctions_struct*, void (%struct.RandomGenerator_struct*, i64*, i64)*, %struct.RandomBufferState_struct* }
%struct.RandomBufferState_struct = type { %struct.buffer_data_struct*, i32 (i64*, i64*, i64*, %struct.RandomGenerator_struct*)*, %struct.RandomGenerator_struct* }
%struct.PositionTree_struct = type { i64, %struct.PositionTree_struct*, %struct.PositionTree_struct*, double }
%struct._VSLBRngProperties = type { i32, i32, i32, i32, i32, i32 (i32, i8*, i32, i32*)*, i32 (i8*, i32, float*, float, float)*, i32 (i8*, i32, double*, double, double)*, i32 (i8*, i32, i32*)* }
%struct.PMT32State_struct = type { i32, i32, i32, i32, i32, i32, i32, i32, i32, i32, i32, i32, i32, i32, i32* }

declare void @_Z14InitAllocationi(i32)

; Function Attrs: nounwind readnone speculatable
declare void @llvm.dbg.value(metadata, metadata, metadata) #0

declare void @MCinterrupt()

declare i8* @kCalloc(i64, i64, i32, i32)

; Function Attrs: argmemonly nounwind
declare void @llvm.memset.p0i8.i64(i8* nocapture writeonly, i8, i64, i32, i1) #1

declare i8* @kRealloc(i8*, i64, i32, i32)

declare void @nomem()

declare i32 @puts(i8*)

declare void @exit(i32)

declare i8* @Malloc_fun(i64)

declare i8* @MallocAlign16_fun(i64)

declare i8* @MallocAlign_mreal_fun(i64)

declare i8* @Calloc_fun(i64, i64)

declare i8* @CallocAlign16_fun(i64, i64)

declare i8* @CallocAlign_mreal_fun(i64, i64)

declare i8* @Realloc_fun(i8*, i64)

declare i8* @ReallocAlign_mreal_fun(i8*, i64)

declare void @Free_fun(i8*)

declare i8* @Malloc_fun_for_gmp(i64)

declare i8* @Realloc_fun_for_gmp(i8*, i64, i64)

declare void @Free_fun_for_gmp(i8*, i64)

declare void @_Z10init_alloci(i32)

declare %struct.st_ZSpan**** @_Z26New_AllocationPageMapTablev()

declare i8* @malloc(i64)

declare void @_Z29Delete_AllocationPageMapTablePPPP8st_ZSpan(%struct.st_ZSpan****)

declare void @free(i8*)

declare %struct.st_ZSpan* @_Z29AllocationPageMap_addOrRemoveP9st_ZBlockmP8st_ZSpan(%struct.st_ZBlock*, i64, %struct.st_ZSpan*)

declare i64 @MemoryInUse()

declare i64 @MaxMemoryUsed()

declare i64 @MaxMemoryListPush(%struct.st_MaxMemoryCell**)

declare i64 @MaxMemoryListPop(%struct.st_MaxMemoryCell**)

declare i64 @MaxMemoryListLength(%struct.st_MaxMemoryCell*)

declare i64* @FullMemoryInformation(i64*, i64)

declare void @CompactifyMemory()

declare void @freeMemorySizeArray(i64*)

declare i64 @MCinuse()

declare i64 @MCliminuse()

declare void @MCsetlimit(i64)

declare void @MC_check(i64)

declare void @RecordCUDDMemory(i64)

declare i8* @_Z12ZPAGE_MALLOCm(i64)

declare i8* @"\01_mmap"(i8*, i64, i32, i32, i32, i64)

declare void @_Z10ZPAGE_FREEPvm(i8*, i64)

declare i32 @"\01_munmap"(i8*, i64)

declare %struct.st_PageInformation* @_Z19New_PageInformationv()

declare i64 @sysconf(i32)

; Function Attrs: nounwind readnone speculatable
declare i64 @llvm.ctlz.i64(i64, i1) #0

declare void @_Z22Delete_PageInformationP18st_PageInformation(%struct.st_PageInformation*)

declare i64 @getSystemMemory()

; Function Attrs: argmemonly nounwind
declare void @llvm.lifetime.start.p0i8(i64, i8* nocapture) #1

; Function Attrs: nounwind readnone speculatable
declare void @llvm.dbg.declare(metadata, metadata, metadata) #0

declare i32 @sysctl(i32*, i32, i8*, i64*, i8*, i64)

; Function Attrs: argmemonly nounwind
declare void @llvm.lifetime.end.p0i8(i64, i8* nocapture) #1

declare %struct.st_ZSpan* @_Z9New_ZSpanP7st_ZRow(%struct.st_ZRow*)

declare void @_Z12Delete_ZSpanP8st_ZSpan(%struct.st_ZSpan*)

declare void @_Z19MergeThreadSpanDataP7st_ZRow(%struct.st_ZRow*)

declare %struct.st_ZAllocator* @_Z19ZAllocator_getOrAddv()

declare %struct.st_ZAllocator* @_ZL14ZAllocator_addv()

declare void @_Z17ZAllocator_removev()

declare void @_Z17Delete_ZAllocatorP13st_ZAllocatori(%struct.st_ZAllocator*, i32)

declare void @_Z20FreeThreadMallocDataP13st_ZAllocator(%struct.st_ZAllocator*)

declare void @Delete_ZAllocatorList()

declare i8* @GetAllocatorList()

declare void @InitializeMemory()

declare void @ReclaimExitMemory()

declare i64 @zalloc_round(i64)

declare i8* @_Z11zalloc_nullmi(i64, i32)

declare i8* @zalloc(i64, i32, i32)

declare void @zfree(i8*)

declare i64 @zalloc_size(i8*)

declare i8* @zrealloc(i8*, i64, i32, i32)

; Function Attrs: argmemonly nounwind
declare void @llvm.memcpy.p0i8.p0i8.i64(i8* nocapture writeonly, i8* nocapture readonly, i64, i32, i1) #1

declare void @_Z17InitRTLArithmetici(i32)

declare i32 @BigitBitLength(i64)

declare i32 @MintBitLength(i64)

declare i32 @BigitBitCount(i64)

; Function Attrs: nounwind readnone speculatable
declare i64 @llvm.ctpop.i64(i64) #0

declare i32 @MintBitCount(i64)

declare i32 @numzbitsbigit(i64)

; Function Attrs: nounwind readnone speculatable
declare i64 @llvm.cttz.i64(i64, i1) #0

declare i32 @numzbitsint(i64)

declare i64* @New_BV(i64)

declare void @BV_Mark(i64*, i64)

declare i64 @BV_SetQ(i64*, i64)

declare i32 @CompareDoubleDouble(double, double, double)

declare i32 @__gxx_personality_v0(...)

declare double @modf(double, double*)

; Function Attrs: nounwind readnone speculatable
declare double @llvm.exp2.f64(double) #0

declare double @ldexp(double, i32)

declare i32 @CompareFloatFloat(float, float, float)

declare float @modff(float, float*)

; Function Attrs: nounwind readnone speculatable
declare float @llvm.exp2.f32(float) #0

declare float @ldexpf(float, i32)

declare i32 @near1_double(double, double, double)

declare i32 @near1_float(float, float, float)

declare i32 @near1_reim_mcomplex(double, double, double)

declare double @ToleranceShiftFactor(double)

declare float @ToleranceShiftFactorFloat(float)

declare i32 @TestException(double)

; Function Attrs: nounwind readnone speculatable
declare double @llvm.fabs.f64(double) #0

declare i64 @machfunc_i_total(i8*, i8*, i64, i64*, i32)

declare i64 @_ZN10vfun_totalIxxE7iterateILN3wrt13runtime_flagsE0ELS3_1EL15increment_class1EEExPxPKxRS6_S7_(i64*, i64*, i64*, i64*)

declare i64 @_ZN10vfun_totalIxxE7iterateILN3wrt13runtime_flagsE0ELS3_1EL15increment_class0EEExPxPKxRS6_S7_(i64*, i64*, i64*, i64*)

declare i64 @_ZN3wrt9scalar_op6binaryL7plus_opIxxLNS_13runtime_flagsE1EEENSt3__19enable_ifIXaasr11is_integralIT_EE5valuesr11is_integralIT0_EE5valueENS1_6detail7op_infoILNS8_2opE19EN7rt_typeIS6_E4typeENSB_IS7_E4typeEE11result_typeEE4typeERKNSG_19first_argument_typeERKNSG_20second_argument_typeE(i64*, i64*)

declare i64 @_ZN10vfun_totalIxxE7iterateILN3wrt13runtime_flagsE0ELS3_0EL15increment_class1EEExPxPKxRS6_S7_(i64*, i64*, i64*, i64*)

declare i64 @_ZN10vfun_totalIxxE7iterateILN3wrt13runtime_flagsE0ELS3_0EL15increment_class0EEExPxPKxRS6_S7_(i64*, i64*, i64*, i64*)

declare i64 @_ZN3wrt9scalar_op6binaryL7plus_opIxxLNS_13runtime_flagsE0EEENSt3__19enable_ifIXaasr11is_integralIT_EE5valuesr11is_integralIT0_EE5valueENS1_6detail7op_infoILNS8_2opE19EN7rt_typeIS6_E4typeENSB_IS7_E4typeEE11result_typeEE4typeERKNSG_19first_argument_typeERKNSG_20second_argument_typeE(i64*, i64*)

declare i64 @_ZL11vfun1_0_runIxxExPFxPT_PKT0_RKxPS5_EPFS0_RKS0_SB_ES1_S4_S6_S7_(i64 (i64*, i64*, i64*, i64*)*, i64 (i64*, i64*)*, i64*, i64*, i64*, i64*)

declare void @.omp_outlined.(i32*, i32*, i64*, i64*, i64*, i64*, i64*, i64*, i64*, i64*, i64 (i64*, i64*, i64*, i64*)**, i64**, i64**, i64**, i64 (i64*, i64*)**)

declare void @__kmpc_fork_call(%ident_t*, i32, void (i32*, i32*, ...)*, ...)

; Function Attrs: nounwind readnone
declare i32 @llvm.eh.typeid.for(i8*) #2

declare i8* @__cxa_begin_catch(i8*)

declare void @__cxa_end_catch()

declare i32 @__kmpc_global_thread_num(%ident_t*)

declare void @__kmpc_for_static_init_8(%ident_t*, i32, i32, i32*, i64*, i64*, i64*, i64, i64)

declare void @__kmpc_critical(%ident_t*, i32, [8 x i32]*)

declare void @__kmpc_end_critical(%ident_t*, i32, [8 x i32]*)

declare i32 @omp_get_thread_num()

declare void @__clang_call_terminate(i8*)

declare void @__kmpc_for_static_fini(%ident_t*, i32)

declare void @_ZSt9terminatev()

; Function Attrs: nounwind readnone speculatable
declare { i64, i1 } @llvm.sadd.with.overflow.i64(i64, i64) #0

declare i8* @__cxa_allocate_exception(i64)

declare void @__cxa_throw(i8*, i8*, i8*)

declare i64 @machfunc_d_total(i8*, i8*, i64, i64*, i32)

declare i64 @_ZN10vfun_totalIddE7iterateILN3wrt13runtime_flagsE1ELS3_0EL15increment_class1EEExPdPKdRKxPS8_(double*, double*, i64*, i64*)

declare i64 @_ZN10vfun_totalIddE7iterateILN3wrt13runtime_flagsE1ELS3_0EL15increment_class0EEExPdPKdRKxPS8_(double*, double*, i64*, i64*)

declare double @_ZN3wrt9scalar_op6binaryL7plus_opIddLNS_13runtime_flagsE1EEENSt3__19enable_ifIXoosr28is_floating_point_or_complexIT_EE5valuesr28is_floating_point_or_complexIT0_EE5valueENS1_6detail7op_infoILNS8_2opE19EN7rt_typeIS6_E4typeENSB_IS7_E4typeEE11result_typeEE4typeERKNSG_19first_argument_typeERKNSG_20second_argument_typeE(double*, double*)

declare i64 @_ZN10vfun_totalIddE7iterateILN3wrt13runtime_flagsE0ELS3_0EL15increment_class1EEExPdPKdRKxPS8_(double*, double*, i64*, i64*)

declare i64 @_ZN10vfun_totalIddE7iterateILN3wrt13runtime_flagsE0ELS3_0EL15increment_class0EEExPdPKdRKxPS8_(double*, double*, i64*, i64*)

declare double @_ZN3wrt9scalar_op6binaryL7plus_opIddLNS_13runtime_flagsE0EEENSt3__19enable_ifIXoosr28is_floating_point_or_complexIT_EE5valuesr28is_floating_point_or_complexIT0_EE5valueENS1_6detail7op_infoILNS8_2opE19EN7rt_typeIS6_E4typeENSB_IS7_E4typeEE11result_typeEE4typeERKNSG_19first_argument_typeERKNSG_20second_argument_typeE(double*, double*)

declare i64 @_ZL11vfun1_0_runIddExPFxPT_PKT0_RKxPS5_EPFS0_RKS0_SB_ES1_S4_S6_S7_(i64 (double*, double*, i64*, i64*)*, double (double*, double*)*, double*, double*, i64*, i64*)

declare void @.omp_outlined..2(i32*, i32*, i64*, i64*, i64*, double*, i64*, i64*, i64*, i64*, i64 (double*, double*, i64*, i64*)**, double**, i64**, double**, double (double*, double*)**)

declare i32 @ippsSum_64f(double*, i32, double*)

declare i32 @__fpclassifyd(double)

declare i32 @feclearexcept(i32)

declare i32 @fetestexcept(i32)

declare i64 @machfunc_c_total(i8*, i8*, i64, i64*, i32)

declare i64 @_ZN10vfun_totalINSt3__17complexIdEES2_E7iterateILN3wrt13runtime_flagsE1ELS6_0EL15increment_class1EEExPS2_PKS2_RKxPSB_(%"class.std::__1::complex"*, %"class.std::__1::complex"*, i64*, i64*)

declare i64 @_ZN10vfun_totalINSt3__17complexIdEES2_E7iterateILN3wrt13runtime_flagsE1ELS6_0EL15increment_class0EEExPS2_PKS2_RKxPSB_(%"class.std::__1::complex"*, %"class.std::__1::complex"*, i64*, i64*)

declare { double, double } @_ZN3wrt9scalar_op6binaryL7plus_opINSt3__17complexIdEES5_LNS_13runtime_flagsE1EEENS3_9enable_ifIXoosr28is_floating_point_or_complexIT_EE5valuesr28is_floating_point_or_complexIT0_EE5valueENS1_6detail7op_infoILNSA_2opE19EN7rt_typeIS8_E4typeENSD_IS9_E4typeEE11result_typeEE4typeERKNSI_19first_argument_typeERKNSI_20second_argument_typeE(%"class.std::__1::complex"*, %"class.std::__1::complex"*)

declare i64 @_ZN10vfun_totalINSt3__17complexIdEES2_E7iterateILN3wrt13runtime_flagsE0ELS6_0EL15increment_class1EEExPS2_PKS2_RKxPSB_(%"class.std::__1::complex"*, %"class.std::__1::complex"*, i64*, i64*)

declare i64 @_ZN10vfun_totalINSt3__17complexIdEES2_E7iterateILN3wrt13runtime_flagsE0ELS6_0EL15increment_class0EEExPS2_PKS2_RKxPSB_(%"class.std::__1::complex"*, %"class.std::__1::complex"*, i64*, i64*)

declare { double, double } @_ZN3wrt9scalar_op6binaryL7plus_opINSt3__17complexIdEES5_LNS_13runtime_flagsE0EEENS3_9enable_ifIXoosr28is_floating_point_or_complexIT_EE5valuesr28is_floating_point_or_complexIT0_EE5valueENS1_6detail7op_infoILNSA_2opE19EN7rt_typeIS8_E4typeENSD_IS9_E4typeEE11result_typeEE4typeERKNSI_19first_argument_typeERKNSI_20second_argument_typeE(%"class.std::__1::complex"*, %"class.std::__1::complex"*)

declare void @.omp_outlined..4(i32*, i32*, i64*, i64*, i64*, %"class.std::__1::complex"*, i64*, i64*, i64*, i64*, i64 (%"class.std::__1::complex"*, %"class.std::__1::complex"*, i64*, i64*)**, %"class.std::__1::complex"**, i64**, %"class.std::__1::complex"**, { double, double } (%"class.std::__1::complex"*, %"class.std::__1::complex"*)**)

declare i32 @ippsSum_64fc(%"class.std::__1::complex"*, i32, %"class.std::__1::complex"*)

declare i64 @machfunc_i_min(i8*, i8*, i64, i64*, i32)

declare i64 @_ZN8vfun_minIxxE7iterateILN3wrt13runtime_flagsE0ELS3_1EL15increment_class1EEExPxPKxRS6_S7_(i64*, i64*, i64*, i64*)

declare i64 @_ZN8vfun_minIxxE7iterateILN3wrt13runtime_flagsE0ELS3_1EL15increment_class0EEExPxPKxRS6_S7_(i64*, i64*, i64*, i64*)

declare i64 @_ZN3wrt9scalar_op6binaryL6min_opIxxLNS_13runtime_flagsE1EEENSt3__19enable_ifIXaasr11is_integralIT_EE5valuesr11is_integralIT0_EE5valueENS1_6detail7op_infoILNS8_2opE16EN7rt_typeIS6_E4typeENSB_IS7_E4typeEE11result_typeEE4typeERKNSG_19first_argument_typeERKNSG_20second_argument_typeE(i64*, i64*)

declare i64 @_ZN8vfun_minIxxE7iterateILN3wrt13runtime_flagsE0ELS3_0EL15increment_class1EEExPxPKxRS6_S7_(i64*, i64*, i64*, i64*)

declare i64 @_ZN8vfun_minIxxE7iterateILN3wrt13runtime_flagsE0ELS3_0EL15increment_class0EEExPxPKxRS6_S7_(i64*, i64*, i64*, i64*)

declare i64 @_ZN3wrt9scalar_op6binaryL6min_opIxxLNS_13runtime_flagsE0EEENSt3__19enable_ifIXaasr11is_integralIT_EE5valuesr11is_integralIT0_EE5valueENS1_6detail7op_infoILNS8_2opE16EN7rt_typeIS6_E4typeENSB_IS7_E4typeEE11result_typeEE4typeERKNSG_19first_argument_typeERKNSG_20second_argument_typeE(i64*, i64*)

declare i64 @machfunc_d_min(i8*, i8*, i64, i64*, i32)

declare i64 @_ZN8vfun_minIddE7iterateILN3wrt13runtime_flagsE1ELS3_0EL15increment_class1EEExPdPKdRKxPS8_(double*, double*, i64*, i64*)

declare i64 @_ZN8vfun_minIddE7iterateILN3wrt13runtime_flagsE1ELS3_0EL15increment_class0EEExPdPKdRKxPS8_(double*, double*, i64*, i64*)

declare double @_ZN3wrt9scalar_op6binaryL6min_opIddLNS_13runtime_flagsE1EEENSt3__19enable_ifIXooaasr17is_floating_pointIT_EE5valuentsr10is_complexIT0_EE5valueaasr17is_floating_pointIS7_EE5valuentsr10is_complexIS6_EE5valueENS1_6detail7op_infoILNS8_2opE16EN7rt_typeIS6_E4typeENSB_IS7_E4typeEE11result_typeEE4typeERKNSG_19first_argument_typeERKNSG_20second_argument_typeE(double*, double*)

declare i64 @_ZN8vfun_minIddE7iterateILN3wrt13runtime_flagsE0ELS3_0EL15increment_class1EEExPdPKdRKxPS8_(double*, double*, i64*, i64*)

declare i64 @_ZN8vfun_minIddE7iterateILN3wrt13runtime_flagsE0ELS3_0EL15increment_class0EEExPdPKdRKxPS8_(double*, double*, i64*, i64*)

declare double @_ZN3wrt9scalar_op6binaryL6min_opIddLNS_13runtime_flagsE0EEENSt3__19enable_ifIXooaasr17is_floating_pointIT_EE5valuentsr10is_complexIT0_EE5valueaasr17is_floating_pointIS7_EE5valuentsr10is_complexIS6_EE5valueENS1_6detail7op_infoILNS8_2opE16EN7rt_typeIS6_E4typeENSB_IS7_E4typeEE11result_typeEE4typeERKNSG_19first_argument_typeERKNSG_20second_argument_typeE(double*, double*)

; Function Attrs: nounwind readnone speculatable
declare double @llvm.minnum.f64(double, double) #0

declare i32 @ippsMin_64f(double*, i32, double*)

declare i64 @machfunc_i_max(i8*, i8*, i64, i64*, i32)

declare i64 @_ZN8vfun_maxIxxE7iterateILN3wrt13runtime_flagsE0ELS3_1EL15increment_class1EEExPxPKxRS6_S7_(i64*, i64*, i64*, i64*)

declare i64 @_ZN8vfun_maxIxxE7iterateILN3wrt13runtime_flagsE0ELS3_1EL15increment_class0EEExPxPKxRS6_S7_(i64*, i64*, i64*, i64*)

declare i64 @_ZN3wrt9scalar_op6binaryL6max_opIxxLNS_13runtime_flagsE1EEENSt3__19enable_ifIXaasr11is_integralIT_EE5valuesr11is_integralIT0_EE5valueENS1_6detail7op_infoILNS8_2opE15EN7rt_typeIS6_E4typeENSB_IS7_E4typeEE11result_typeEE4typeERKNSG_19first_argument_typeERKNSG_20second_argument_typeE(i64*, i64*)

declare i64 @_ZN8vfun_maxIxxE7iterateILN3wrt13runtime_flagsE0ELS3_0EL15increment_class1EEExPxPKxRS6_S7_(i64*, i64*, i64*, i64*)

declare i64 @_ZN8vfun_maxIxxE7iterateILN3wrt13runtime_flagsE0ELS3_0EL15increment_class0EEExPxPKxRS6_S7_(i64*, i64*, i64*, i64*)

declare i64 @_ZN3wrt9scalar_op6binaryL6max_opIxxLNS_13runtime_flagsE0EEENSt3__19enable_ifIXaasr11is_integralIT_EE5valuesr11is_integralIT0_EE5valueENS1_6detail7op_infoILNS8_2opE15EN7rt_typeIS6_E4typeENSB_IS7_E4typeEE11result_typeEE4typeERKNSG_19first_argument_typeERKNSG_20second_argument_typeE(i64*, i64*)

declare i64 @machfunc_d_max(i8*, i8*, i64, i64*, i32)

declare i64 @_ZN8vfun_maxIddE7iterateILN3wrt13runtime_flagsE1ELS3_0EL15increment_class1EEExPdPKdRKxPS8_(double*, double*, i64*, i64*)

declare i64 @_ZN8vfun_maxIddE7iterateILN3wrt13runtime_flagsE1ELS3_0EL15increment_class0EEExPdPKdRKxPS8_(double*, double*, i64*, i64*)

declare double @_ZN3wrt9scalar_op6binaryL6max_opIddLNS_13runtime_flagsE1EEENSt3__19enable_ifIXooaasr17is_floating_pointIT_EE5valuentsr10is_complexIT0_EE5valueaasr17is_floating_pointIS7_EE5valuentsr10is_complexIS6_EE5valueENS1_6detail7op_infoILNS8_2opE15EN7rt_typeIS6_E4typeENSB_IS7_E4typeEE11result_typeEE4typeERKNSG_19first_argument_typeERKNSG_20second_argument_typeE(double*, double*)

declare i64 @_ZN8vfun_maxIddE7iterateILN3wrt13runtime_flagsE0ELS3_0EL15increment_class1EEExPdPKdRKxPS8_(double*, double*, i64*, i64*)

declare i64 @_ZN8vfun_maxIddE7iterateILN3wrt13runtime_flagsE0ELS3_0EL15increment_class0EEExPdPKdRKxPS8_(double*, double*, i64*, i64*)

declare double @_ZN3wrt9scalar_op6binaryL6max_opIddLNS_13runtime_flagsE0EEENSt3__19enable_ifIXooaasr17is_floating_pointIT_EE5valuentsr10is_complexIT0_EE5valueaasr17is_floating_pointIS7_EE5valuentsr10is_complexIS6_EE5valueENS1_6detail7op_infoILNS8_2opE15EN7rt_typeIS6_E4typeENSB_IS7_E4typeEE11result_typeEE4typeERKNSG_19first_argument_typeERKNSG_20second_argument_typeE(double*, double*)

; Function Attrs: nounwind readnone speculatable
declare double @llvm.maxnum.f64(double, double) #0

declare i32 @ippsMax_64f(double*, i32, double*)

declare i64 @machfunc_i_minmax(i8*, i8*, i64, i64*, i32)

declare i64 @_ZN11vfun_minmaxINSt3__14pairIxxEExE7iterateILN3wrt13runtime_flagsE0ELS6_1EL15increment_class1EEExPS2_PKxRS9_SA_(%"struct.std::__1::pair"*, i64*, i64*, i64*)

declare i64 @_ZN11vfun_minmaxINSt3__14pairIxxEExE7iterateILN3wrt13runtime_flagsE0ELS6_1EL15increment_class0EEExPS2_PKxRS9_SA_(%"struct.std::__1::pair"*, i64*, i64*, i64*)

declare { i64, i64 } @_ZN3wrt9scalar_op6binaryL9minmax_opINSt3__14pairIxxEES5_LNS_13runtime_flagsE1EEENS3_9enable_ifIXaasr7is_pairIT_EE5valuesr7is_pairIT0_EE5valueENS1_6detail7op_infoILNSA_2opE17EN7rt_typeIS8_E4typeENSD_IS9_E4typeEE11result_typeEE4typeERKNS4_INSI_19first_argument_typeESM_EERKNS4_INSI_20second_argument_typeESQ_EE(%"struct.std::__1::pair"*, %"struct.std::__1::pair"*)

declare i64 @_ZN11vfun_minmaxINSt3__14pairIxxEExE7iterateILN3wrt13runtime_flagsE0ELS6_0EL15increment_class1EEExPS2_PKxRS9_SA_(%"struct.std::__1::pair"*, i64*, i64*, i64*)

declare i64 @_ZN11vfun_minmaxINSt3__14pairIxxEExE7iterateILN3wrt13runtime_flagsE0ELS6_0EL15increment_class0EEExPS2_PKxRS9_SA_(%"struct.std::__1::pair"*, i64*, i64*, i64*)

declare { i64, i64 } @_ZN3wrt9scalar_op6binaryL9minmax_opINSt3__14pairIxxEES5_LNS_13runtime_flagsE0EEENS3_9enable_ifIXaasr7is_pairIT_EE5valuesr7is_pairIT0_EE5valueENS1_6detail7op_infoILNSA_2opE17EN7rt_typeIS8_E4typeENSD_IS9_E4typeEE11result_typeEE4typeERKNS4_INSI_19first_argument_typeESM_EERKNS4_INSI_20second_argument_typeESQ_EE(%"struct.std::__1::pair"*, %"struct.std::__1::pair"*)

declare void @.omp_outlined..6(i32*, i32*, i64*, i64*, i64*, %"struct.std::__1::pair"*, i64*, i64*, i64*, i64*, i64 (%"struct.std::__1::pair"*, i64*, i64*, i64*)**, i64**, i64**, %"struct.std::__1::pair"**, { i64, i64 } (%"struct.std::__1::pair"*, %"struct.std::__1::pair"*)**)

declare i64 @machfunc_d_minmax(i8*, i8*, i64, i64*, i32)

declare i64 @_ZN11vfun_minmaxINSt3__14pairIddEEdE7iterateILN3wrt13runtime_flagsE1ELS6_0EL15increment_class1EEExPS2_PKdRKxPSB_(%"class.std::__1::complex"*, double*, i64*, i64*)

declare i64 @_ZN11vfun_minmaxINSt3__14pairIddEEdE7iterateILN3wrt13runtime_flagsE1ELS6_0EL15increment_class0EEExPS2_PKdRKxPSB_(%"class.std::__1::complex"*, double*, i64*, i64*)

declare { double, double } @_ZN3wrt9scalar_op6binaryL9minmax_opINSt3__14pairIddEES5_LNS_13runtime_flagsE1EEENS3_9enable_ifIXaasr7is_pairIT_EE5valuesr7is_pairIT0_EE5valueENS1_6detail7op_infoILNSA_2opE17EN7rt_typeIS8_E4typeENSD_IS9_E4typeEE11result_typeEE4typeERKNS4_INSI_19first_argument_typeESM_EERKNS4_INSI_20second_argument_typeESQ_EE(%"class.std::__1::complex"*, %"class.std::__1::complex"*)

declare i64 @_ZN11vfun_minmaxINSt3__14pairIddEEdE7iterateILN3wrt13runtime_flagsE0ELS6_0EL15increment_class1EEExPS2_PKdRKxPSB_(%"class.std::__1::complex"*, double*, i64*, i64*)

declare i64 @_ZN11vfun_minmaxINSt3__14pairIddEEdE7iterateILN3wrt13runtime_flagsE0ELS6_0EL15increment_class0EEExPS2_PKdRKxPSB_(%"class.std::__1::complex"*, double*, i64*, i64*)

declare { double, double } @_ZN3wrt9scalar_op6binaryL9minmax_opINSt3__14pairIddEES5_LNS_13runtime_flagsE0EEENS3_9enable_ifIXaasr7is_pairIT_EE5valuesr7is_pairIT0_EE5valueENS1_6detail7op_infoILNSA_2opE17EN7rt_typeIS8_E4typeENSD_IS9_E4typeEE11result_typeEE4typeERKNS4_INSI_19first_argument_typeESM_EERKNS4_INSI_20second_argument_typeESQ_EE(%"class.std::__1::complex"*, %"class.std::__1::complex"*)

declare void @.omp_outlined..8(i32*, i32*, i64*, i64*, i64*, %"class.std::__1::complex"*, i64*, i64*, i64*, i64*, i64 (%"class.std::__1::complex"*, double*, i64*, i64*)**, double**, i64**, %"class.std::__1::complex"**, { double, double } (%"class.std::__1::complex"*, %"class.std::__1::complex"*)**)

declare i32 @ippsMinMax_64f(double*, i32, double*, double*)

declare i64 @machfunc_i_maxabs(i8*, i8*, i64, i64*, i32)

declare i64 @_ZN11vfun_maxabsIxxE7iterateILN3wrt13runtime_flagsE0ELS3_1EL15increment_class1EEExPxPKxRS6_S7_(i64*, i64*, i64*, i64*)

declare i64 @_ZN11vfun_maxabsIxxE7iterateILN3wrt13runtime_flagsE0ELS3_1EL15increment_class0EEExPxPKxRS6_S7_(i64*, i64*, i64*, i64*)

declare i64 @_ZN11vfun_maxabsIxxE7iterateILN3wrt13runtime_flagsE0ELS3_0EL15increment_class1EEExPxPKxRS6_S7_(i64*, i64*, i64*, i64*)

declare i64 @_ZN11vfun_maxabsIxxE7iterateILN3wrt13runtime_flagsE0ELS3_0EL15increment_class0EEExPxPKxRS6_S7_(i64*, i64*, i64*, i64*)

declare i64 @machfunc_d_maxabs(i8*, i8*, i64, i64*, i32)

declare i64 @_ZN11vfun_maxabsIddE7iterateILN3wrt13runtime_flagsE1ELS3_0EL15increment_class1EEExPdPKdRKxPS8_(double*, double*, i64*, i64*)

declare i64 @_ZN11vfun_maxabsIddE7iterateILN3wrt13runtime_flagsE1ELS3_0EL15increment_class0EEExPdPKdRKxPS8_(double*, double*, i64*, i64*)

declare i64 @_ZN11vfun_maxabsIddE7iterateILN3wrt13runtime_flagsE0ELS3_0EL15increment_class1EEExPdPKdRKxPS8_(double*, double*, i64*, i64*)

declare i64 @_ZN11vfun_maxabsIddE7iterateILN3wrt13runtime_flagsE0ELS3_0EL15increment_class0EEExPdPKdRKxPS8_(double*, double*, i64*, i64*)

declare i32 @ippsMaxAbs_64f(double*, i32, double*)

declare i64 @machfunc_c_maxabs(i8*, i8*, i64, i64*, i32)

declare i64 @_ZN11vfun_maxabsIdNSt3__17complexIdEEE7iterateILN3wrt13runtime_flagsE1ELS6_0EL15increment_class1EEExPdPKS2_RKxPSB_(double*, %"class.std::__1::complex"*, i64*, i64*)

declare i64 @_ZN11vfun_maxabsIdNSt3__17complexIdEEE7iterateILN3wrt13runtime_flagsE1ELS6_0EL15increment_class0EEExPdPKS2_RKxPSB_(double*, %"class.std::__1::complex"*, i64*, i64*)

declare i64 @_ZN11vfun_maxabsIdNSt3__17complexIdEEE7iterateILN3wrt13runtime_flagsE0ELS6_0EL15increment_class1EEExPdPKS2_RKxPSB_(double*, %"class.std::__1::complex"*, i64*, i64*)

declare i64 @_ZN11vfun_maxabsIdNSt3__17complexIdEEE7iterateILN3wrt13runtime_flagsE0ELS6_0EL15increment_class0EEExPdPKS2_RKxPSB_(double*, %"class.std::__1::complex"*, i64*, i64*)

declare void @.omp_outlined..10(i32*, i32*, i64*, i64*, i64*, double*, i64*, i64*, i64*, i64*, i64 (double*, %"class.std::__1::complex"*, i64*, i64*)**, %"class.std::__1::complex"**, i64**, double**, double (double*, double*)**)

declare double @hypot(double, double)

declare i64 @machfunc_d_fpexception(i8*, i8*, i64, i64*, i32)

declare i64 @_ZN16vfun_fpexceptionIxdE7iterateILN3wrt13runtime_flagsE1ELS3_0EL15increment_class1EEExPxPKdRKxPS8_(i64*, double*, i64*, i64*)

declare i64 @_ZN16vfun_fpexceptionIxdE7iterateILN3wrt13runtime_flagsE1ELS3_0EL15increment_class0EEExPxPKdRKxPS8_(i64*, double*, i64*, i64*)

declare i64 @_ZN3wrt9scalar_op6binaryL9bit_or_opIxxLNS_13runtime_flagsE1EEENSt3__19enable_ifIXaasr18is_signed_integralIT_EE5valuesr18is_signed_integralIT0_EE5valueENS1_6detail7op_infoILNS8_2opE4EN7rt_typeIS6_E4typeENSB_IS7_E4typeEE11result_typeEE4typeERKNSG_19first_argument_typeERKNSG_20second_argument_typeE(i64*, i64*)

declare i64 @_ZN16vfun_fpexceptionIxdE7iterateILN3wrt13runtime_flagsE0ELS3_0EL15increment_class1EEExPxPKdRKxPS8_(i64*, double*, i64*, i64*)

declare i64 @_ZN16vfun_fpexceptionIxdE7iterateILN3wrt13runtime_flagsE0ELS3_0EL15increment_class0EEExPxPKdRKxPS8_(i64*, double*, i64*, i64*)

declare i64 @_ZN3wrt9scalar_op6binaryL9bit_or_opIxxLNS_13runtime_flagsE0EEENSt3__19enable_ifIXaasr18is_signed_integralIT_EE5valuesr18is_signed_integralIT0_EE5valueENS1_6detail7op_infoILNS8_2opE4EN7rt_typeIS6_E4typeENSB_IS7_E4typeEE11result_typeEE4typeERKNSG_19first_argument_typeERKNSG_20second_argument_typeE(i64*, i64*)

declare void @.omp_outlined..12(i32*, i32*, i64*, i64*, i64*, i64*, i64*, i64*, i64*, i64*, i64 (i64*, double*, i64*, i64*)**, double**, i64**, i64**, i64 (i64*, i64*)**)

declare i64 @machfunc_c_fpexception(i8*, i8*, i64, i64*, i32)

declare i64 @_ZN16vfun_fpexceptionIxNSt3__17complexIdEEE7iterateILN3wrt13runtime_flagsE1ELS6_0EL15increment_class1EEExPxPKS2_RKxPSB_(i64*, %"class.std::__1::complex"*, i64*, i64*)

declare i64 @_ZN16vfun_fpexceptionIxNSt3__17complexIdEEE7iterateILN3wrt13runtime_flagsE1ELS6_0EL15increment_class0EEExPxPKS2_RKxPSB_(i64*, %"class.std::__1::complex"*, i64*, i64*)

declare i64 @_ZN16vfun_fpexceptionIxNSt3__17complexIdEEE7iterateILN3wrt13runtime_flagsE0ELS6_0EL15increment_class1EEExPxPKS2_RKxPSB_(i64*, %"class.std::__1::complex"*, i64*, i64*)

declare i64 @_ZN16vfun_fpexceptionIxNSt3__17complexIdEEE7iterateILN3wrt13runtime_flagsE0ELS6_0EL15increment_class0EEExPxPKS2_RKxPSB_(i64*, %"class.std::__1::complex"*, i64*, i64*)

declare void @.omp_outlined..14(i32*, i32*, i64*, i64*, i64*, i64*, i64*, i64*, i64*, i64*, i64 (i64*, %"class.std::__1::complex"*, i64*, i64*)**, %"class.std::__1::complex"**, i64**, i64**, i64 (i64*, i64*)**)

declare i64 @machfunc_d_sin(i8*, i8*, i64, i64*, i32)

declare i64 @machfunc_c_sin(i8*, i8*, i64, i64*, i32)

declare i64 @machfunc_d_cos(i8*, i8*, i64, i64*, i32)

declare i64 @machfunc_c_cos(i8*, i8*, i64, i64*, i32)

declare i64 @machfunc_d_tan(i8*, i8*, i64, i64*, i32)

declare i64 @machfunc_c_tan(i8*, i8*, i64, i64*, i32)

declare i64 @_ZL14machfunc_d_cscPvPKvxPKxj(i8*, i8*, i64, i64*, i32)

declare i64 @_ZL14machfunc_c_cscPvPKvxPKxj(i8*, i8*, i64, i64*, i32)

declare i64 @_ZL14machfunc_d_secPvPKvxPKxj(i8*, i8*, i64, i64*, i32)

declare i64 @_ZL14machfunc_c_secPvPKvxPKxj(i8*, i8*, i64, i64*, i32)

declare i64 @_ZL14machfunc_d_cotPvPKvxPKxj(i8*, i8*, i64, i64*, i32)

declare i64 @_ZL14machfunc_c_cotPvPKvxPKxj(i8*, i8*, i64, i64*, i32)

declare i64 @machfunc_d_sinh(i8*, i8*, i64, i64*, i32)

declare i64 @machfunc_c_sinh(i8*, i8*, i64, i64*, i32)

declare i64 @machfunc_d_cosh(i8*, i8*, i64, i64*, i32)

declare i64 @machfunc_c_cosh(i8*, i8*, i64, i64*, i32)

declare i64 @machfunc_d_tanh(i8*, i8*, i64, i64*, i32)

declare i64 @machfunc_c_tanh(i8*, i8*, i64, i64*, i32)

declare i64 @_ZL15machfunc_d_cschPvPKvxPKxj(i8*, i8*, i64, i64*, i32)

declare i64 @_ZL15machfunc_c_cschPvPKvxPKxj(i8*, i8*, i64, i64*, i32)

declare i64 @_ZL15machfunc_d_sechPvPKvxPKxj(i8*, i8*, i64, i64*, i32)

declare i64 @_ZL15machfunc_c_sechPvPKvxPKxj(i8*, i8*, i64, i64*, i32)

declare i64 @_ZL15machfunc_d_cothPvPKvxPKxj(i8*, i8*, i64, i64*, i32)

declare i64 @_ZL15machfunc_c_cothPvPKvxPKxj(i8*, i8*, i64, i64*, i32)

declare i64 @machfunc_d_asin(i8*, i8*, i64, i64*, i32)

declare i64 @machfunc_c_asin(i8*, i8*, i64, i64*, i32)

declare i64 @machfunc_d_acos(i8*, i8*, i64, i64*, i32)

declare i64 @machfunc_c_acos(i8*, i8*, i64, i64*, i32)

declare i64 @machfunc_d_atan(i8*, i8*, i64, i64*, i32)

declare i64 @machfunc_c_atan(i8*, i8*, i64, i64*, i32)

declare i64 @_ZL15machfunc_d_acscPvPKvxPKxj(i8*, i8*, i64, i64*, i32)

declare i64 @_ZL15machfunc_c_acscPvPKvxPKxj(i8*, i8*, i64, i64*, i32)

declare i64 @_ZL15machfunc_d_asecPvPKvxPKxj(i8*, i8*, i64, i64*, i32)

declare i64 @_ZL15machfunc_c_asecPvPKvxPKxj(i8*, i8*, i64, i64*, i32)

declare i64 @_ZL15machfunc_d_acotPvPKvxPKxj(i8*, i8*, i64, i64*, i32)

declare i64 @_ZL15machfunc_c_acotPvPKvxPKxj(i8*, i8*, i64, i64*, i32)

declare i64 @machfunc_d_asinh(i8*, i8*, i64, i64*, i32)

declare i64 @machfunc_c_asinh(i8*, i8*, i64, i64*, i32)

declare i64 @machfunc_d_acosh(i8*, i8*, i64, i64*, i32)

declare i64 @machfunc_c_acosh(i8*, i8*, i64, i64*, i32)

declare i64 @machfunc_d_atanh(i8*, i8*, i64, i64*, i32)

declare i64 @machfunc_c_atanh(i8*, i8*, i64, i64*, i32)

declare i64 @_ZL16machfunc_d_acschPvPKvxPKxj(i8*, i8*, i64, i64*, i32)

declare i64 @_ZL16machfunc_c_acschPvPKvxPKxj(i8*, i8*, i64, i64*, i32)

declare i64 @_ZL16machfunc_d_asechPvPKvxPKxj(i8*, i8*, i64, i64*, i32)

declare i64 @_ZL16machfunc_c_asechPvPKvxPKxj(i8*, i8*, i64, i64*, i32)

declare i64 @_ZL16machfunc_d_acothPvPKvxPKxj(i8*, i8*, i64, i64*, i32)

declare i64 @_ZL16machfunc_c_acothPvPKvxPKxj(i8*, i8*, i64, i64*, i32)

declare i64 @machfunc_d_exp(i8*, i8*, i64, i64*, i32)

declare i64 @machfunc_c_exp(i8*, i8*, i64, i64*, i32)

declare i64 @machfunc_d_expm1(i8*, i8*, i64, i64*, i32)

declare i64 @machfunc_c_expm1(i8*, i8*, i64, i64*, i32)

declare i64 @machfunc_d_log(i8*, i8*, i64, i64*, i32)

declare i64 @machfunc_c_log(i8*, i8*, i64, i64*, i32)

declare i64 @machfunc_d_log1p(i8*, i8*, i64, i64*, i32)

declare i64 @machfunc_c_log1p(i8*, i8*, i64, i64*, i32)

declare i64 @machfunc_i_log2(i8*, i8*, i64, i64*, i32)

declare i64 @machfunc_d_log2(i8*, i8*, i64, i64*, i32)

declare i64 @machfunc_c_log2(i8*, i8*, i64, i64*, i32)

declare i64 @machfunc_i_log10(i8*, i8*, i64, i64*, i32)

declare i64 @machfunc_d_log10(i8*, i8*, i64, i64*, i32)

declare i64 @machfunc_c_log10(i8*, i8*, i64, i64*, i32)

declare i64 @machfunc_i_abs(i8*, i8*, i64, i64*, i32)

declare i64 @machfunc_d_abs(i8*, i8*, i64, i64*, i32)

declare i64 @machfunc_c_abs(i8*, i8*, i64, i64*, i32)

declare i64 @_ZL14machfunc_i_argPvPKvxPKxj(i8*, i8*, i64, i64*, i32)

declare i64 @_ZL14machfunc_d_argPvPKvxPKxj(i8*, i8*, i64, i64*, i32)

declare i64 @machfunc_c_arg(i8*, i8*, i64, i64*, i32)

declare i64 @machfunc_i_conj(i8*, i8*, i64, i64*, i32)

declare i64 @machfunc_d_conj(i8*, i8*, i64, i64*, i32)

declare i64 @machfunc_c_conj(i8*, i8*, i64, i64*, i32)

declare i64 @_ZL13machfunc_i_imPvPKvxPKxj(i8*, i8*, i64, i64*, i32)

declare i64 @_ZL13machfunc_d_imPvPKvxPKxj(i8*, i8*, i64, i64*, i32)

declare i64 @_ZL13machfunc_c_imPvPKvxPKxj(i8*, i8*, i64, i64*, i32)

declare i64 @_ZL13machfunc_i_rePvPKvxPKxj(i8*, i8*, i64, i64*, i32)

declare i64 @_ZL13machfunc_d_rePvPKvxPKxj(i8*, i8*, i64, i64*, i32)

declare i64 @_ZL13machfunc_c_rePvPKvxPKxj(i8*, i8*, i64, i64*, i32)

declare i64 @machfunc_i_minus(i8*, i8*, i64, i64*, i32)

declare i64 @machfunc_d_minus(i8*, i8*, i64, i64*, i32)

declare i64 @machfunc_c_minus(i8*, i8*, i64, i64*, i32)

declare i64 @_ZL15machfunc_i_signPvPKvxPKxj(i8*, i8*, i64, i64*, i32)

declare i64 @_ZL15machfunc_d_signPvPKvxPKxj(i8*, i8*, i64, i64*, i32)

declare i64 @_ZL15machfunc_c_signPvPKvxPKxj(i8*, i8*, i64, i64*, i32)

declare i64 @_ZL14machfunc_i_posPvPKvxPKxj(i8*, i8*, i64, i64*, i32)

declare i64 @_ZL14machfunc_d_posPvPKvxPKxj(i8*, i8*, i64, i64*, i32)

declare i64 @_ZL14machfunc_i_negPvPKvxPKxj(i8*, i8*, i64, i64*, i32)

declare i64 @_ZL14machfunc_d_negPvPKvxPKxj(i8*, i8*, i64, i64*, i32)

declare i64 @_ZL15machfunc_i_nposPvPKvxPKxj(i8*, i8*, i64, i64*, i32)

declare i64 @_ZL15machfunc_d_nposPvPKvxPKxj(i8*, i8*, i64, i64*, i32)

declare i64 @_ZL15machfunc_i_nnegPvPKvxPKxj(i8*, i8*, i64, i64*, i32)

declare i64 @_ZL15machfunc_d_nnegPvPKvxPKxj(i8*, i8*, i64, i64*, i32)

declare i64 @_ZL16machfunc_i_roundPvPKvxPKxj(i8*, i8*, i64, i64*, i32)

declare i64 @machfunc_d_round(i8*, i8*, i64, i64*, i32)

declare i64 @_ZL16machfunc_i_floorPvPKvxPKxj(i8*, i8*, i64, i64*, i32)

declare i64 @machfunc_d_floor(i8*, i8*, i64, i64*, i32)

declare i64 @_ZL18machfunc_i_ceilingPvPKvxPKxj(i8*, i8*, i64, i64*, i32)

declare i64 @machfunc_d_ceiling(i8*, i8*, i64, i64*, i32)

declare i64 @_ZL19machfunc_i_fracpartPvPKvxPKxj(i8*, i8*, i64, i64*, i32)

declare i64 @machfunc_d_fracpart(i8*, i8*, i64, i64*, i32)

declare i64 @machfunc_c_fracpart(i8*, i8*, i64, i64*, i32)

declare i64 @_ZL18machfunc_i_intpartPvPKvxPKxj(i8*, i8*, i64, i64*, i32)

declare i64 @machfunc_d_intpart(i8*, i8*, i64, i64*, i32)

declare i64 @_ZL16machfunc_i_evenqPvPKvxPKxj(i8*, i8*, i64, i64*, i32)

declare i64 @_ZL16machfunc_d_evenqPvPKvxPKxj(i8*, i8*, i64, i64*, i32)

declare i64 @_ZL15machfunc_i_oddqPvPKvxPKxj(i8*, i8*, i64, i64*, i32)

declare i64 @_ZL15machfunc_d_oddqPvPKvxPKxj(i8*, i8*, i64, i64*, i32)

declare i64 @machfunc_i_square(i8*, i8*, i64, i64*, i32)

declare i64 @machfunc_d_square(i8*, i8*, i64, i64*, i32)

declare i64 @machfunc_c_square(i8*, i8*, i64, i64*, i32)

declare i64 @machfunc_d_sqrt(i8*, i8*, i64, i64*, i32)

declare i64 @machfunc_c_sqrt(i8*, i8*, i64, i64*, i32)

declare i64 @machfunc_d_cbrt(i8*, i8*, i64, i64*, i32)

declare i64 @machfunc_d_rsqrt(i8*, i8*, i64, i64*, i32)

declare i64 @machfunc_c_rsqrt(i8*, i8*, i64, i64*, i32)

declare i64 @machfunc_d_recip(i8*, i8*, i64, i64*, i32)

declare i64 @machfunc_c_recip(i8*, i8*, i64, i64*, i32)

declare i64 @_ZL17machfunc_i_bitnotPvPKvxPKxj(i8*, i8*, i64, i64*, i32)

declare i64 @_ZL20machfunc_i_bitlengthPvPKvxPKxj(i8*, i8*, i64, i64*, i32)

declare i64 @machfunc_i_intexp(i8*, i8*, i64, i64*, i32)

declare i64 @machfunc_i_intlen(i8*, i8*, i64, i64*, i32)

declare i64 @machfunc_d_sinc(i8*, i8*, i64, i64*, i32)

declare i64 @machfunc_c_sinc(i8*, i8*, i64, i64*, i32)

declare i64 @machfunc_i_fibonacci(i8*, i8*, i64, i64*, i32)

declare i64 @machfunc_d_fibonacci(i8*, i8*, i64, i64*, i32)

declare i64 @machfunc_c_fibonacci(i8*, i8*, i64, i64*, i32)

declare i64 @machfunc_i_lucasl(i8*, i8*, i64, i64*, i32)

declare i64 @machfunc_d_lucasl(i8*, i8*, i64, i64*, i32)

declare i64 @machfunc_c_lucasl(i8*, i8*, i64, i64*, i32)

declare i64 @machfunc_d_gudermannian(i8*, i8*, i64, i64*, i32)

declare i64 @machfunc_c_gudermannian(i8*, i8*, i64, i64*, i32)

declare i64 @machfunc_d_inversegudermannian(i8*, i8*, i64, i64*, i32)

declare i64 @machfunc_c_inversegudermannian(i8*, i8*, i64, i64*, i32)

declare i64 @machfunc_d_haversine(i8*, i8*, i64, i64*, i32)

declare i64 @machfunc_c_haversine(i8*, i8*, i64, i64*, i32)

declare i64 @machfunc_d_inversehaversine(i8*, i8*, i64, i64*, i32)

declare i64 @machfunc_c_inversehaversine(i8*, i8*, i64, i64*, i32)

declare i64 @machfunc_d_erfc(i8*, i8*, i64, i64*, i32)

declare i64 @machfunc_d_erf(i8*, i8*, i64, i64*, i32)

declare i64 @machfunc_i_gamma(i8*, i8*, i64, i64*, i32)

declare i64 @machfunc_d_gamma(i8*, i8*, i64, i64*, i32)

declare i64 @machfunc_d_loggamma(i8*, i8*, i64, i64*, i32)

declare i64 @_ZL18machfunc_i_unitizePvPKvxPKxj(i8*, i8*, i64, i64*, i32)

declare i64 @_ZL18machfunc_d_unitizePvPKvxPKxj(i8*, i8*, i64, i64*, i32)

declare i64 @_ZL18machfunc_c_unitizePvPKvxPKxj(i8*, i8*, i64, i64*, i32)

declare i64 @_ZL15machfunc_i_mod1PvPKvxPKxj(i8*, i8*, i64, i64*, i32)

declare i64 @_ZL15machfunc_d_mod1PvPKvxPKxj(i8*, i8*, i64, i64*, i32)

declare i64 @_ZL15machfunc_c_mod1PvPKvxPKxj(i8*, i8*, i64, i64*, i32)

declare i64 @machfunc_d_logistic(i8*, i8*, i64, i64*, i32)

declare i64 @machfunc_c_logistic(i8*, i8*, i64, i64*, i32)

declare i64 @_ZL15machfunc_i_rampPvPKvxPKxj(i8*, i8*, i64, i64*, i32)

declare i64 @_ZL15machfunc_d_rampPvPKvxPKxj(i8*, i8*, i64, i64*, i32)

declare i64 @machfunc_i_abssquare(i8*, i8*, i64, i64*, i32)

declare i64 @machfunc_d_abssquare(i8*, i8*, i64, i64*, i32)

declare i64 @machfunc_c_abssquare(i8*, i8*, i64, i64*, i32)

declare i64 @_ZN14vfun_abssquareIdNSt3__17complexIdEEE7iterateILN3wrt13runtime_flagsE1ELS6_0EL15increment_class1EEExPdPKS2_RKxPSB_(double*, %"class.std::__1::complex"*, i64*, i64*)

declare i64 @_ZN14vfun_abssquareIdNSt3__17complexIdEEE7iterateILN3wrt13runtime_flagsE1ELS6_0EL15increment_class0EEExPdPKS2_RKxPSB_(double*, %"class.std::__1::complex"*, i64*, i64*)

declare i64 @_ZN14vfun_abssquareIdNSt3__17complexIdEEE7iterateILN3wrt13runtime_flagsE0ELS6_0EL15increment_class1EEExPdPKS2_RKxPSB_(double*, %"class.std::__1::complex"*, i64*, i64*)

declare i64 @_ZN14vfun_abssquareIdNSt3__17complexIdEEE7iterateILN3wrt13runtime_flagsE0ELS6_0EL15increment_class0EEExPdPKS2_RKxPSB_(double*, %"class.std::__1::complex"*, i64*, i64*)

declare void @.omp_outlined..8.23(i32*, i32*, i64*, i64*, i64*, i64*, i64*, i64*, i64*, i64*, i64 (double*, %"class.std::__1::complex"*, i64*, i64*)**, double**, %"class.std::__1::complex"**, i64**)

declare i64 @_ZN14vfun_abssquareIddE7iterateILN3wrt13runtime_flagsE1ELS3_0EL15increment_class1EEExPdPKdRKxPS8_(double*, double*, i64*, i64*)

declare i64 @_ZN14vfun_abssquareIddE7iterateILN3wrt13runtime_flagsE1ELS3_0EL15increment_class0EEExPdPKdRKxPS8_(double*, double*, i64*, i64*)

declare i64 @_ZN14vfun_abssquareIddE7iterateILN3wrt13runtime_flagsE0ELS3_1EL15increment_class1EEExPdPKdRKxPS8_(double*, double*, i64*, i64*)

declare i64 @_ZN14vfun_abssquareIddE7iterateILN3wrt13runtime_flagsE0ELS3_1EL15increment_class0EEExPdPKdRKxPS8_(double*, double*, i64*, i64*)

declare i64 @_ZN14vfun_abssquareIddE7iterateILN3wrt13runtime_flagsE0ELS3_0EL15increment_class1EEExPdPKdRKxPS8_(double*, double*, i64*, i64*)

declare i64 @_ZN14vfun_abssquareIddE7iterateILN3wrt13runtime_flagsE0ELS3_0EL15increment_class0EEExPdPKdRKxPS8_(double*, double*, i64*, i64*)

declare void @.omp_outlined..2.25(i32*, i32*, i64*, i64*, i64*, i64*, i64*, i64*, i64*, i64*, i64 (double*, double*, i64*, i64*)**, double**, double**, i64**)

declare i64 @_ZN14vfun_abssquareIxxE7iterateILN3wrt13runtime_flagsE0ELS3_1EL15increment_class1EEExPxPKxRS6_S7_(i64*, i64*, i64*, i64*)

declare i64 @_ZN14vfun_abssquareIxxE7iterateILN3wrt13runtime_flagsE0ELS3_1EL15increment_class0EEExPxPKxRS6_S7_(i64*, i64*, i64*, i64*)

declare i64 @_ZN14vfun_abssquareIxxE7iterateILN3wrt13runtime_flagsE0ELS3_0EL15increment_class1EEExPxPKxRS6_S7_(i64*, i64*, i64*, i64*)

declare i64 @_ZN14vfun_abssquareIxxE7iterateILN3wrt13runtime_flagsE0ELS3_0EL15increment_class0EEExPxPKxRS6_S7_(i64*, i64*, i64*, i64*)

declare void @.omp_outlined..6.26(i32*, i32*, i64*, i64*, i64*, i64*, i64*, i64*, i64*, i64*, i64 (i64*, i64*, i64*, i64*)**, i64**, i64**, i64**)

; Function Attrs: nounwind readnone speculatable
declare { i64, i1 } @llvm.smul.with.overflow.i64(i64, i64) #0

declare i64 @_ZN9vfun_rampIddE7iterateILN3wrt13runtime_flagsE1ELS3_0EL15increment_class1EEExPdPKdRKxPS8_(double*, double*, i64*, i64*)

declare i64 @_ZN9vfun_rampIddE7iterateILN3wrt13runtime_flagsE1ELS3_0EL15increment_class0EEExPdPKdRKxPS8_(double*, double*, i64*, i64*)

declare i64 @_ZN9vfun_rampIddE7iterateILN3wrt13runtime_flagsE0ELS3_1EL15increment_class1EEExPdPKdRKxPS8_(double*, double*, i64*, i64*)

declare i64 @_ZN9vfun_rampIddE7iterateILN3wrt13runtime_flagsE0ELS3_1EL15increment_class0EEExPdPKdRKxPS8_(double*, double*, i64*, i64*)

declare i64 @_ZN9vfun_rampIddE7iterateILN3wrt13runtime_flagsE0ELS3_0EL15increment_class1EEExPdPKdRKxPS8_(double*, double*, i64*, i64*)

declare i64 @_ZN9vfun_rampIddE7iterateILN3wrt13runtime_flagsE0ELS3_0EL15increment_class0EEExPdPKdRKxPS8_(double*, double*, i64*, i64*)

declare i64 @_ZN9vfun_rampIxxE7iterateILN3wrt13runtime_flagsE0ELS3_1EL15increment_class1EEExPxPKxRS6_S7_(i64*, i64*, i64*, i64*)

declare i64 @_ZN9vfun_rampIxxE7iterateILN3wrt13runtime_flagsE0ELS3_1EL15increment_class0EEExPxPKxRS6_S7_(i64*, i64*, i64*, i64*)

declare i64 @_ZN9vfun_rampIxxE7iterateILN3wrt13runtime_flagsE0ELS3_0EL15increment_class1EEExPxPKxRS6_S7_(i64*, i64*, i64*, i64*)

declare i64 @_ZN9vfun_rampIxxE7iterateILN3wrt13runtime_flagsE0ELS3_0EL15increment_class0EEExPxPKxRS6_S7_(i64*, i64*, i64*, i64*)

declare i64 @_ZN13vfun_logisticINSt3__17complexIdEES2_E7iterateILN3wrt13runtime_flagsE1ELS6_0EL15increment_class1EEExPS2_PKS2_RKxPSB_(%"class.std::__1::complex"*, %"class.std::__1::complex"*, i64*, i64*)

declare i64 @_ZN13vfun_logisticINSt3__17complexIdEES2_E7iterateILN3wrt13runtime_flagsE1ELS6_0EL15increment_class0EEExPS2_PKS2_RKxPSB_(%"class.std::__1::complex"*, %"class.std::__1::complex"*, i64*, i64*)

declare i64 @_ZN13vfun_logisticINSt3__17complexIdEES2_E7iterateILN3wrt13runtime_flagsE0ELS6_1EL15increment_class1EEExPS2_PKS2_RKxPSB_(%"class.std::__1::complex"*, %"class.std::__1::complex"*, i64*, i64*)

declare i64 @_ZN13vfun_logisticINSt3__17complexIdEES2_E7iterateILN3wrt13runtime_flagsE0ELS6_1EL15increment_class0EEExPS2_PKS2_RKxPSB_(%"class.std::__1::complex"*, %"class.std::__1::complex"*, i64*, i64*)

declare i64 @_ZN13vfun_logisticINSt3__17complexIdEES2_E7iterateILN3wrt13runtime_flagsE0ELS6_0EL15increment_class1EEExPS2_PKS2_RKxPSB_(%"class.std::__1::complex"*, %"class.std::__1::complex"*, i64*, i64*)

declare i64 @_ZN13vfun_logisticINSt3__17complexIdEES2_E7iterateILN3wrt13runtime_flagsE0ELS6_0EL15increment_class0EEExPS2_PKS2_RKxPSB_(%"class.std::__1::complex"*, %"class.std::__1::complex"*, i64*, i64*)

declare void @.omp_outlined..4.27(i32*, i32*, i64*, i64*, i64*, i64*, i64*, i64*, i64*, i64*, i64 (%"class.std::__1::complex"*, %"class.std::__1::complex"*, i64*, i64*)**, %"class.std::__1::complex"**, %"class.std::__1::complex"**, i64**)

declare { double, double } @_ZN3wrt9scalar_op5unaryL11logistic_opINSt3__17complexIdEELNS_13runtime_flagsE0EEENS3_9enable_ifIXsr28is_floating_point_or_complexIT_EE5valueENS1_6detail7op_infoILNS9_2opE50EN7rt_typeIS8_E4typeEE11result_typeEE4typeERKNSF_13argument_typeE(%"class.std::__1::complex"*)

; Function Attrs: nounwind readnone speculatable
declare double @llvm.exp.f64(double) #0

; Function Attrs: nounwind readnone speculatable
declare double @llvm.cos.f64(double) #0

; Function Attrs: nounwind readnone speculatable
declare double @llvm.sin.f64(double) #0

declare { double, double } @_ZNSt3__1dvIdEENS_7complexIT_EERKS3_S5_(%"class.std::__1::complex"*, %"class.std::__1::complex"*)

declare double @logb(double)

declare double @scalbn(double, i32)

; Function Attrs: nounwind readnone speculatable
declare double @llvm.copysign.f64(double, double) #0

; Function Attrs: nounwind readnone speculatable
declare <2 x double> @llvm.fabs.v2f64(<2 x double>) #0

; Function Attrs: nounwind readnone speculatable
declare <2 x double> @llvm.copysign.v2f64(<2 x double>, <2 x double>) #0

declare { double, double } @_ZN3wrt9scalar_op5unaryL11logistic_opINSt3__17complexIdEELNS_13runtime_flagsE1EEENS3_9enable_ifIXsr28is_floating_point_or_complexIT_EE5valueENS1_6detail7op_infoILNS9_2opE50EN7rt_typeIS8_E4typeEE11result_typeEE4typeERKNSF_13argument_typeE(%"class.std::__1::complex"*)

declare i64 @_ZN13vfun_logisticIddE7iterateILN3wrt13runtime_flagsE1ELS3_0EL15increment_class1EEExPdPKdRKxPS8_(double*, double*, i64*, i64*)

declare i64 @_ZN13vfun_logisticIddE7iterateILN3wrt13runtime_flagsE1ELS3_0EL15increment_class0EEExPdPKdRKxPS8_(double*, double*, i64*, i64*)

declare i64 @_ZN13vfun_logisticIddE7iterateILN3wrt13runtime_flagsE0ELS3_1EL15increment_class1EEExPdPKdRKxPS8_(double*, double*, i64*, i64*)

declare i64 @_ZN13vfun_logisticIddE7iterateILN3wrt13runtime_flagsE0ELS3_1EL15increment_class0EEExPdPKdRKxPS8_(double*, double*, i64*, i64*)

declare i64 @_ZN13vfun_logisticIddE7iterateILN3wrt13runtime_flagsE0ELS3_0EL15increment_class1EEExPdPKdRKxPS8_(double*, double*, i64*, i64*)

declare i64 @_ZN13vfun_logisticIddE7iterateILN3wrt13runtime_flagsE0ELS3_0EL15increment_class0EEExPdPKdRKxPS8_(double*, double*, i64*, i64*)

declare double @_ZN3wrt9scalar_op5unaryL11logistic_opIdLNS_13runtime_flagsE1EEENSt3__19enable_ifIXsr28is_floating_point_or_complexIT_EE5valueENS1_6detail7op_infoILNS7_2opE50EN7rt_typeIS6_E4typeEE11result_typeEE4typeERKNSD_13argument_typeE(double)

declare i64 @_ZN9vfun_mod1INSt3__17complexIdEES2_E7iterateILN3wrt13runtime_flagsE1ELS6_0EL15increment_class1EEExPS2_PKS2_RKxPSB_(%"class.std::__1::complex"*, %"class.std::__1::complex"*, i64*, i64*)

declare i64 @_ZN9vfun_mod1INSt3__17complexIdEES2_E7iterateILN3wrt13runtime_flagsE1ELS6_0EL15increment_class0EEExPS2_PKS2_RKxPSB_(%"class.std::__1::complex"*, %"class.std::__1::complex"*, i64*, i64*)

declare i64 @_ZN9vfun_mod1INSt3__17complexIdEES2_E7iterateILN3wrt13runtime_flagsE0ELS6_1EL15increment_class1EEExPS2_PKS2_RKxPSB_(%"class.std::__1::complex"*, %"class.std::__1::complex"*, i64*, i64*)

declare i64 @_ZN9vfun_mod1INSt3__17complexIdEES2_E7iterateILN3wrt13runtime_flagsE0ELS6_1EL15increment_class0EEExPS2_PKS2_RKxPSB_(%"class.std::__1::complex"*, %"class.std::__1::complex"*, i64*, i64*)

declare i64 @_ZN9vfun_mod1INSt3__17complexIdEES2_E7iterateILN3wrt13runtime_flagsE0ELS6_0EL15increment_class1EEExPS2_PKS2_RKxPSB_(%"class.std::__1::complex"*, %"class.std::__1::complex"*, i64*, i64*)

declare i64 @_ZN9vfun_mod1INSt3__17complexIdEES2_E7iterateILN3wrt13runtime_flagsE0ELS6_0EL15increment_class0EEExPS2_PKS2_RKxPSB_(%"class.std::__1::complex"*, %"class.std::__1::complex"*, i64*, i64*)

declare i64 @_ZN9vfun_mod1IddE7iterateILN3wrt13runtime_flagsE1ELS3_0EL15increment_class1EEExPdPKdRKxPS8_(double*, double*, i64*, i64*)

declare i64 @_ZN9vfun_mod1IddE7iterateILN3wrt13runtime_flagsE1ELS3_0EL15increment_class0EEExPdPKdRKxPS8_(double*, double*, i64*, i64*)

declare i64 @_ZN9vfun_mod1IddE7iterateILN3wrt13runtime_flagsE0ELS3_1EL15increment_class1EEExPdPKdRKxPS8_(double*, double*, i64*, i64*)

declare i64 @_ZN9vfun_mod1IddE7iterateILN3wrt13runtime_flagsE0ELS3_1EL15increment_class0EEExPdPKdRKxPS8_(double*, double*, i64*, i64*)

declare i64 @_ZN9vfun_mod1IddE7iterateILN3wrt13runtime_flagsE0ELS3_0EL15increment_class1EEExPdPKdRKxPS8_(double*, double*, i64*, i64*)

declare i64 @_ZN9vfun_mod1IddE7iterateILN3wrt13runtime_flagsE0ELS3_0EL15increment_class0EEExPdPKdRKxPS8_(double*, double*, i64*, i64*)

declare i64 @_ZN9vfun_mod1IxxE7iterateILN3wrt13runtime_flagsE0ELS3_1EL15increment_class1EEExPxPKxRS6_S7_(i64*, i64*, i64*, i64*)

declare i64 @_ZN9vfun_mod1IxxE7iterateILN3wrt13runtime_flagsE0ELS3_1EL15increment_class0EEExPxPKxRS6_S7_(i64*, i64*, i64*, i64*)

declare i64 @_ZN9vfun_mod1IxxE7iterateILN3wrt13runtime_flagsE0ELS3_0EL15increment_class1EEExPxPKxRS6_S7_(i64*, i64*, i64*, i64*)

declare i64 @_ZN9vfun_mod1IxxE7iterateILN3wrt13runtime_flagsE0ELS3_0EL15increment_class0EEExPxPKxRS6_S7_(i64*, i64*, i64*, i64*)

declare i64 @_ZN12vfun_unitizeIxNSt3__17complexIdEEE7iterateILN3wrt13runtime_flagsE0ELS6_1EL15increment_class1EEExPxPKS2_RKxPSB_(i64*, %"class.std::__1::complex"*, i64*, i64*)

declare i64 @_ZN12vfun_unitizeIxNSt3__17complexIdEEE7iterateILN3wrt13runtime_flagsE0ELS6_1EL15increment_class0EEExPxPKS2_RKxPSB_(i64*, %"class.std::__1::complex"*, i64*, i64*)

declare i64 @_ZN12vfun_unitizeIxNSt3__17complexIdEEE7iterateILN3wrt13runtime_flagsE0ELS6_0EL15increment_class1EEExPxPKS2_RKxPSB_(i64*, %"class.std::__1::complex"*, i64*, i64*)

declare i64 @_ZN12vfun_unitizeIxNSt3__17complexIdEEE7iterateILN3wrt13runtime_flagsE0ELS6_0EL15increment_class0EEExPxPKS2_RKxPSB_(i64*, %"class.std::__1::complex"*, i64*, i64*)

declare void @.omp_outlined..28(i32*, i32*, i64*, i64*, i64*, i64*, i64*, i64*, i64*, i64*, i64 (i64*, %"class.std::__1::complex"*, i64*, i64*)**, i64**, %"class.std::__1::complex"**, i64**)

declare i64 @_ZN12vfun_unitizeIxdE7iterateILN3wrt13runtime_flagsE0ELS3_1EL15increment_class1EEExPxPKdRKxPS8_(i64*, double*, i64*, i64*)

declare i64 @_ZN12vfun_unitizeIxdE7iterateILN3wrt13runtime_flagsE0ELS3_1EL15increment_class0EEExPxPKdRKxPS8_(i64*, double*, i64*, i64*)

declare i64 @_ZN12vfun_unitizeIxdE7iterateILN3wrt13runtime_flagsE0ELS3_0EL15increment_class1EEExPxPKdRKxPS8_(i64*, double*, i64*, i64*)

declare i64 @_ZN12vfun_unitizeIxdE7iterateILN3wrt13runtime_flagsE0ELS3_0EL15increment_class0EEExPxPKdRKxPS8_(i64*, double*, i64*, i64*)

declare void @.omp_outlined..10.29(i32*, i32*, i64*, i64*, i64*, i64*, i64*, i64*, i64*, i64*, i64 (i64*, double*, i64*, i64*)**, i64**, double**, i64**)

declare i64 @_ZN12vfun_unitizeIxxE7iterateILN3wrt13runtime_flagsE0ELS3_1EL15increment_class1EEExPxPKxRS6_S7_(i64*, i64*, i64*, i64*)

declare i64 @_ZN12vfun_unitizeIxxE7iterateILN3wrt13runtime_flagsE0ELS3_1EL15increment_class0EEExPxPKxRS6_S7_(i64*, i64*, i64*, i64*)

declare i64 @_ZN12vfun_unitizeIxxE7iterateILN3wrt13runtime_flagsE0ELS3_0EL15increment_class1EEExPxPKxRS6_S7_(i64*, i64*, i64*, i64*)

declare i64 @_ZN12vfun_unitizeIxxE7iterateILN3wrt13runtime_flagsE0ELS3_0EL15increment_class0EEExPxPKxRS6_S7_(i64*, i64*, i64*, i64*)

declare i64 @_ZN13vfun_loggammaIddE7iterateILN3wrt13runtime_flagsE1ELS3_0EL15increment_class1EEExPdPKdRKxPS8_(double*, double*, i64*, i64*)

declare i64 @_ZN13vfun_loggammaIddE7iterateILN3wrt13runtime_flagsE1ELS3_0EL15increment_class0EEExPdPKdRKxPS8_(double*, double*, i64*, i64*)

declare i64 @_ZN13vfun_loggammaIddE7iterateILN3wrt13runtime_flagsE0ELS3_1EL15increment_class1EEExPdPKdRKxPS8_(double*, double*, i64*, i64*)

declare i64 @_ZN13vfun_loggammaIddE7iterateILN3wrt13runtime_flagsE0ELS3_1EL15increment_class0EEExPdPKdRKxPS8_(double*, double*, i64*, i64*)

declare i64 @_ZN13vfun_loggammaIddE7iterateILN3wrt13runtime_flagsE0ELS3_0EL15increment_class1EEExPdPKdRKxPS8_(double*, double*, i64*, i64*)

declare i64 @_ZN13vfun_loggammaIddE7iterateILN3wrt13runtime_flagsE0ELS3_0EL15increment_class0EEExPdPKdRKxPS8_(double*, double*, i64*, i64*)

declare double @lgamma(double)

declare i64 @_ZN10vfun_gammaIddE7iterateILN3wrt13runtime_flagsE1ELS3_0EL15increment_class1EEExPdPKdRKxPS8_(double*, double*, i64*, i64*)

declare i64 @_ZN10vfun_gammaIddE7iterateILN3wrt13runtime_flagsE1ELS3_0EL15increment_class0EEExPdPKdRKxPS8_(double*, double*, i64*, i64*)

declare i64 @_ZN10vfun_gammaIddE7iterateILN3wrt13runtime_flagsE0ELS3_1EL15increment_class1EEExPdPKdRKxPS8_(double*, double*, i64*, i64*)

declare i64 @_ZN10vfun_gammaIddE7iterateILN3wrt13runtime_flagsE0ELS3_1EL15increment_class0EEExPdPKdRKxPS8_(double*, double*, i64*, i64*)

declare i64 @_ZN10vfun_gammaIddE7iterateILN3wrt13runtime_flagsE0ELS3_0EL15increment_class1EEExPdPKdRKxPS8_(double*, double*, i64*, i64*)

declare i64 @_ZN10vfun_gammaIddE7iterateILN3wrt13runtime_flagsE0ELS3_0EL15increment_class0EEExPdPKdRKxPS8_(double*, double*, i64*, i64*)

declare double @tgamma(double)

declare i64 @_ZN10vfun_gammaIxxE7iterateILN3wrt13runtime_flagsE0ELS3_1EL15increment_class1EEExPxPKxRS6_S7_(i64*, i64*, i64*, i64*)

declare i64 @_ZN10vfun_gammaIxxE7iterateILN3wrt13runtime_flagsE0ELS3_1EL15increment_class0EEExPxPKxRS6_S7_(i64*, i64*, i64*, i64*)

declare i64 @_ZN10vfun_gammaIxxE7iterateILN3wrt13runtime_flagsE0ELS3_0EL15increment_class1EEExPxPKxRS6_S7_(i64*, i64*, i64*, i64*)

declare i64 @_ZN10vfun_gammaIxxE7iterateILN3wrt13runtime_flagsE0ELS3_0EL15increment_class0EEExPxPKxRS6_S7_(i64*, i64*, i64*, i64*)

declare i64 @_ZN8vfun_erfIddE7iterateILN3wrt13runtime_flagsE1ELS3_0EL15increment_class1EEExPdPKdRKxPS8_(double*, double*, i64*, i64*)

declare i64 @_ZN8vfun_erfIddE7iterateILN3wrt13runtime_flagsE1ELS3_0EL15increment_class0EEExPdPKdRKxPS8_(double*, double*, i64*, i64*)

declare i64 @_ZN8vfun_erfIddE7iterateILN3wrt13runtime_flagsE0ELS3_1EL15increment_class1EEExPdPKdRKxPS8_(double*, double*, i64*, i64*)

declare i64 @_ZN8vfun_erfIddE7iterateILN3wrt13runtime_flagsE0ELS3_1EL15increment_class0EEExPdPKdRKxPS8_(double*, double*, i64*, i64*)

declare i64 @_ZN8vfun_erfIddE7iterateILN3wrt13runtime_flagsE0ELS3_0EL15increment_class1EEExPdPKdRKxPS8_(double*, double*, i64*, i64*)

declare i64 @_ZN8vfun_erfIddE7iterateILN3wrt13runtime_flagsE0ELS3_0EL15increment_class0EEExPdPKdRKxPS8_(double*, double*, i64*, i64*)

declare double @erf(double)

declare i64 @_ZN9vfun_erfcIddE7iterateILN3wrt13runtime_flagsE1ELS3_0EL15increment_class1EEExPdPKdRKxPS8_(double*, double*, i64*, i64*)

declare i64 @_ZN9vfun_erfcIddE7iterateILN3wrt13runtime_flagsE1ELS3_0EL15increment_class0EEExPdPKdRKxPS8_(double*, double*, i64*, i64*)

declare i64 @_ZN9vfun_erfcIddE7iterateILN3wrt13runtime_flagsE0ELS3_1EL15increment_class1EEExPdPKdRKxPS8_(double*, double*, i64*, i64*)

declare i64 @_ZN9vfun_erfcIddE7iterateILN3wrt13runtime_flagsE0ELS3_1EL15increment_class0EEExPdPKdRKxPS8_(double*, double*, i64*, i64*)

declare i64 @_ZN9vfun_erfcIddE7iterateILN3wrt13runtime_flagsE0ELS3_0EL15increment_class1EEExPdPKdRKxPS8_(double*, double*, i64*, i64*)

declare i64 @_ZN9vfun_erfcIddE7iterateILN3wrt13runtime_flagsE0ELS3_0EL15increment_class0EEExPdPKdRKxPS8_(double*, double*, i64*, i64*)

declare double @erfc(double)

declare i64 @_ZN21vfun_inversehaversineINSt3__17complexIdEES2_E7iterateILN3wrt13runtime_flagsE1ELS6_0EL15increment_class1EEExPS2_PKS2_RKxPSB_(%"class.std::__1::complex"*, %"class.std::__1::complex"*, i64*, i64*)

declare i64 @_ZN21vfun_inversehaversineINSt3__17complexIdEES2_E7iterateILN3wrt13runtime_flagsE1ELS6_0EL15increment_class0EEExPS2_PKS2_RKxPSB_(%"class.std::__1::complex"*, %"class.std::__1::complex"*, i64*, i64*)

declare i64 @_ZN21vfun_inversehaversineINSt3__17complexIdEES2_E7iterateILN3wrt13runtime_flagsE0ELS6_1EL15increment_class1EEExPS2_PKS2_RKxPSB_(%"class.std::__1::complex"*, %"class.std::__1::complex"*, i64*, i64*)

declare i64 @_ZN21vfun_inversehaversineINSt3__17complexIdEES2_E7iterateILN3wrt13runtime_flagsE0ELS6_1EL15increment_class0EEExPS2_PKS2_RKxPSB_(%"class.std::__1::complex"*, %"class.std::__1::complex"*, i64*, i64*)

declare i64 @_ZN21vfun_inversehaversineINSt3__17complexIdEES2_E7iterateILN3wrt13runtime_flagsE0ELS6_0EL15increment_class1EEExPS2_PKS2_RKxPSB_(%"class.std::__1::complex"*, %"class.std::__1::complex"*, i64*, i64*)

declare i64 @_ZN21vfun_inversehaversineINSt3__17complexIdEES2_E7iterateILN3wrt13runtime_flagsE0ELS6_0EL15increment_class0EEExPS2_PKS2_RKxPSB_(%"class.std::__1::complex"*, %"class.std::__1::complex"*, i64*, i64*)

declare { double, double } @_ZN3wrt9scalar_op5unaryL19inversehaversine_opINSt3__17complexIdEELNS_13runtime_flagsE0EEENS3_9enable_ifIXsr10is_complexIT_EE5valueENS1_6detail7op_infoILNS9_2opE44EN7rt_typeIS8_E4typeEE11result_typeEE4typeERKNSF_13argument_typeE(double, double)

; Function Attrs: nounwind readnone speculatable
declare double @llvm.sqrt.f64(double) #0

declare { double, double } @_ZN3wrt9scalar_op5unaryL8asinh_opINSt3__17complexIdEELNS_13runtime_flagsE0EEENS3_9enable_ifIXsr10is_complexIT_EE5valueENS1_6detail7op_infoILNS9_2opE13EN7rt_typeIS8_E4typeEE11result_typeEE4typeERKNSF_13argument_typeE(%"class.std::__1::complex"*)

declare double @frexp(double, i32*)

; Function Attrs: nounwind readnone speculatable
declare double @llvm.log.f64(double) #0

declare double @atan2(double, double)

declare { double, double } @_ZN3wrt9scalar_op5unaryL8log1p_opINSt3__17complexIdEELNS_13runtime_flagsE0EEENS3_9enable_ifIXsr10is_complexIT_EE5valueENS1_6detail7op_infoILNS9_2opE47EN7rt_typeIS8_E4typeEE11result_typeEE4typeERKNSF_13argument_typeE(double, double)

declare double @log1p(double)

declare { double, double } @_ZN3wrt9scalar_op5unaryL19inversehaversine_opINSt3__17complexIdEELNS_13runtime_flagsE1EEENS3_9enable_ifIXsr10is_complexIT_EE5valueENS1_6detail7op_infoILNS9_2opE44EN7rt_typeIS8_E4typeEE11result_typeEE4typeERKNSF_13argument_typeE(double, double)

declare i64 @_ZN21vfun_inversehaversineIddE7iterateILN3wrt13runtime_flagsE1ELS3_0EL15increment_class1EEExPdPKdRKxPS8_(double*, double*, i64*, i64*)

declare i64 @_ZN21vfun_inversehaversineIddE7iterateILN3wrt13runtime_flagsE1ELS3_0EL15increment_class0EEExPdPKdRKxPS8_(double*, double*, i64*, i64*)

declare i64 @_ZN21vfun_inversehaversineIddE7iterateILN3wrt13runtime_flagsE0ELS3_1EL15increment_class1EEExPdPKdRKxPS8_(double*, double*, i64*, i64*)

declare i64 @_ZN21vfun_inversehaversineIddE7iterateILN3wrt13runtime_flagsE0ELS3_1EL15increment_class0EEExPdPKdRKxPS8_(double*, double*, i64*, i64*)

declare i64 @_ZN21vfun_inversehaversineIddE7iterateILN3wrt13runtime_flagsE0ELS3_0EL15increment_class1EEExPdPKdRKxPS8_(double*, double*, i64*, i64*)

declare i64 @_ZN21vfun_inversehaversineIddE7iterateILN3wrt13runtime_flagsE0ELS3_0EL15increment_class0EEExPdPKdRKxPS8_(double*, double*, i64*, i64*)

declare double @asin(double)

declare double @_ZN3wrt9scalar_op5unaryL19inversehaversine_opIdLNS_13runtime_flagsE1EEENSt3__19enable_ifIXsr17is_floating_pointIT_EE5valueENS1_6detail7op_infoILNS7_2opE44EN7rt_typeIS6_E4typeEE11result_typeEE4typeERKNSD_13argument_typeE(double)

declare i64 @_ZN14vfun_haversineINSt3__17complexIdEES2_E7iterateILN3wrt13runtime_flagsE1ELS6_0EL15increment_class1EEExPS2_PKS2_RKxPSB_(%"class.std::__1::complex"*, %"class.std::__1::complex"*, i64*, i64*)

declare i64 @_ZN14vfun_haversineINSt3__17complexIdEES2_E7iterateILN3wrt13runtime_flagsE1ELS6_0EL15increment_class0EEExPS2_PKS2_RKxPSB_(%"class.std::__1::complex"*, %"class.std::__1::complex"*, i64*, i64*)

declare i64 @_ZN14vfun_haversineINSt3__17complexIdEES2_E7iterateILN3wrt13runtime_flagsE0ELS6_1EL15increment_class1EEExPS2_PKS2_RKxPSB_(%"class.std::__1::complex"*, %"class.std::__1::complex"*, i64*, i64*)

declare i64 @_ZN14vfun_haversineINSt3__17complexIdEES2_E7iterateILN3wrt13runtime_flagsE0ELS6_1EL15increment_class0EEExPS2_PKS2_RKxPSB_(%"class.std::__1::complex"*, %"class.std::__1::complex"*, i64*, i64*)

declare i64 @_ZN14vfun_haversineINSt3__17complexIdEES2_E7iterateILN3wrt13runtime_flagsE0ELS6_0EL15increment_class1EEExPS2_PKS2_RKxPSB_(%"class.std::__1::complex"*, %"class.std::__1::complex"*, i64*, i64*)

declare i64 @_ZN14vfun_haversineINSt3__17complexIdEES2_E7iterateILN3wrt13runtime_flagsE0ELS6_0EL15increment_class0EEExPS2_PKS2_RKxPSB_(%"class.std::__1::complex"*, %"class.std::__1::complex"*, i64*, i64*)

declare double @sinh(double)

declare double @cosh(double)

declare { double, double } @_ZN3wrt9scalar_op5unaryL12haversine_opINSt3__17complexIdEELNS_13runtime_flagsE1EEENS3_9enable_ifIXsr28is_floating_point_or_complexIT_EE5valueENS1_6detail7op_infoILNS9_2opE40EN7rt_typeIS8_E4typeEE11result_typeEE4typeERKNSF_13argument_typeE(%"class.std::__1::complex"*)

declare i64 @_ZN14vfun_haversineIddE7iterateILN3wrt13runtime_flagsE1ELS3_0EL15increment_class1EEExPdPKdRKxPS8_(double*, double*, i64*, i64*)

declare i64 @_ZN14vfun_haversineIddE7iterateILN3wrt13runtime_flagsE1ELS3_0EL15increment_class0EEExPdPKdRKxPS8_(double*, double*, i64*, i64*)

declare i64 @_ZN14vfun_haversineIddE7iterateILN3wrt13runtime_flagsE0ELS3_1EL15increment_class1EEExPdPKdRKxPS8_(double*, double*, i64*, i64*)

declare i64 @_ZN14vfun_haversineIddE7iterateILN3wrt13runtime_flagsE0ELS3_1EL15increment_class0EEExPdPKdRKxPS8_(double*, double*, i64*, i64*)

declare i64 @_ZN14vfun_haversineIddE7iterateILN3wrt13runtime_flagsE0ELS3_0EL15increment_class1EEExPdPKdRKxPS8_(double*, double*, i64*, i64*)

declare i64 @_ZN14vfun_haversineIddE7iterateILN3wrt13runtime_flagsE0ELS3_0EL15increment_class0EEExPdPKdRKxPS8_(double*, double*, i64*, i64*)

declare i64 @_ZN24vfun_inversegudermannianINSt3__17complexIdEES2_E7iterateILN3wrt13runtime_flagsE1ELS6_0EL15increment_class1EEExPS2_PKS2_RKxPSB_(%"class.std::__1::complex"*, %"class.std::__1::complex"*, i64*, i64*)

declare i64 @_ZN24vfun_inversegudermannianINSt3__17complexIdEES2_E7iterateILN3wrt13runtime_flagsE1ELS6_0EL15increment_class0EEExPS2_PKS2_RKxPSB_(%"class.std::__1::complex"*, %"class.std::__1::complex"*, i64*, i64*)

declare i64 @_ZN24vfun_inversegudermannianINSt3__17complexIdEES2_E7iterateILN3wrt13runtime_flagsE0ELS6_1EL15increment_class1EEExPS2_PKS2_RKxPSB_(%"class.std::__1::complex"*, %"class.std::__1::complex"*, i64*, i64*)

declare i64 @_ZN24vfun_inversegudermannianINSt3__17complexIdEES2_E7iterateILN3wrt13runtime_flagsE0ELS6_1EL15increment_class0EEExPS2_PKS2_RKxPSB_(%"class.std::__1::complex"*, %"class.std::__1::complex"*, i64*, i64*)

declare i64 @_ZN24vfun_inversegudermannianINSt3__17complexIdEES2_E7iterateILN3wrt13runtime_flagsE0ELS6_0EL15increment_class1EEExPS2_PKS2_RKxPSB_(%"class.std::__1::complex"*, %"class.std::__1::complex"*, i64*, i64*)

declare i64 @_ZN24vfun_inversegudermannianINSt3__17complexIdEES2_E7iterateILN3wrt13runtime_flagsE0ELS6_0EL15increment_class0EEExPS2_PKS2_RKxPSB_(%"class.std::__1::complex"*, %"class.std::__1::complex"*, i64*, i64*)

declare { double, double } @_ZN3wrt9scalar_op5unaryL22inversegudermannian_opINSt3__17complexIdEELNS_13runtime_flagsE0EEENS3_9enable_ifIXsr10is_complexIT_EE5valueENS1_6detail7op_infoILNS9_2opE43EN7rt_typeIS8_E4typeEE11result_typeEE4typeERKNSF_13argument_typeE(%"class.std::__1::complex"*)

declare { double, double } @_ZN3wrt9scalar_op5unaryL22inversegudermannian_opINSt3__17complexIdEELNS_13runtime_flagsE1EEENS3_9enable_ifIXsr10is_complexIT_EE5valueENS1_6detail7op_infoILNS9_2opE43EN7rt_typeIS8_E4typeEE11result_typeEE4typeERKNSF_13argument_typeE(%"class.std::__1::complex"*)

declare i64 @_ZN24vfun_inversegudermannianIddE7iterateILN3wrt13runtime_flagsE1ELS3_0EL15increment_class1EEExPdPKdRKxPS8_(double*, double*, i64*, i64*)

declare i64 @_ZN24vfun_inversegudermannianIddE7iterateILN3wrt13runtime_flagsE1ELS3_0EL15increment_class0EEExPdPKdRKxPS8_(double*, double*, i64*, i64*)

declare i64 @_ZN24vfun_inversegudermannianIddE7iterateILN3wrt13runtime_flagsE0ELS3_1EL15increment_class1EEExPdPKdRKxPS8_(double*, double*, i64*, i64*)

declare i64 @_ZN24vfun_inversegudermannianIddE7iterateILN3wrt13runtime_flagsE0ELS3_1EL15increment_class0EEExPdPKdRKxPS8_(double*, double*, i64*, i64*)

declare i64 @_ZN24vfun_inversegudermannianIddE7iterateILN3wrt13runtime_flagsE0ELS3_0EL15increment_class1EEExPdPKdRKxPS8_(double*, double*, i64*, i64*)

declare i64 @_ZN24vfun_inversegudermannianIddE7iterateILN3wrt13runtime_flagsE0ELS3_0EL15increment_class0EEExPdPKdRKxPS8_(double*, double*, i64*, i64*)

declare double @tan(double)

declare double @atanh(double)

declare double @_ZN3wrt9scalar_op5unaryL22inversegudermannian_opIdLNS_13runtime_flagsE1EEENSt3__19enable_ifIXsr17is_floating_pointIT_EE5valueENS1_6detail7op_infoILNS7_2opE43EN7rt_typeIS6_E4typeEE11result_typeEE4typeERKNSD_13argument_typeE(double)

declare i64 @_ZN17vfun_gudermannianINSt3__17complexIdEES2_E7iterateILN3wrt13runtime_flagsE1ELS6_0EL15increment_class1EEExPS2_PKS2_RKxPSB_(%"class.std::__1::complex"*, %"class.std::__1::complex"*, i64*, i64*)

declare i64 @_ZN17vfun_gudermannianINSt3__17complexIdEES2_E7iterateILN3wrt13runtime_flagsE1ELS6_0EL15increment_class0EEExPS2_PKS2_RKxPSB_(%"class.std::__1::complex"*, %"class.std::__1::complex"*, i64*, i64*)

declare i64 @_ZN17vfun_gudermannianINSt3__17complexIdEES2_E7iterateILN3wrt13runtime_flagsE0ELS6_1EL15increment_class1EEExPS2_PKS2_RKxPSB_(%"class.std::__1::complex"*, %"class.std::__1::complex"*, i64*, i64*)

declare i64 @_ZN17vfun_gudermannianINSt3__17complexIdEES2_E7iterateILN3wrt13runtime_flagsE0ELS6_1EL15increment_class0EEExPS2_PKS2_RKxPSB_(%"class.std::__1::complex"*, %"class.std::__1::complex"*, i64*, i64*)

declare i64 @_ZN17vfun_gudermannianINSt3__17complexIdEES2_E7iterateILN3wrt13runtime_flagsE0ELS6_0EL15increment_class1EEExPS2_PKS2_RKxPSB_(%"class.std::__1::complex"*, %"class.std::__1::complex"*, i64*, i64*)

declare i64 @_ZN17vfun_gudermannianINSt3__17complexIdEES2_E7iterateILN3wrt13runtime_flagsE0ELS6_0EL15increment_class0EEExPS2_PKS2_RKxPSB_(%"class.std::__1::complex"*, %"class.std::__1::complex"*, i64*, i64*)

declare { double, double } @_ZN3wrt9scalar_op5unaryL8atanh_opINSt3__17complexIdEELNS_13runtime_flagsE0EEENS3_9enable_ifIXsr10is_complexIT_EE5valueENS1_6detail7op_infoILNS9_2opE15EN7rt_typeIS8_E4typeEE11result_typeEE4typeERKNSF_13argument_typeE(%"class.std::__1::complex"*)

declare { double, double } @_ZN3wrt9scalar_op5unaryL15gudermannian_opINSt3__17complexIdEELNS_13runtime_flagsE1EEENS3_9enable_ifIXsr10is_complexIT_EE5valueENS1_6detail7op_infoILNS9_2opE39EN7rt_typeIS8_E4typeEE11result_typeEE4typeERKNSF_13argument_typeE(double, double)

declare i64 @_ZN17vfun_gudermannianIddE7iterateILN3wrt13runtime_flagsE1ELS3_0EL15increment_class1EEExPdPKdRKxPS8_(double*, double*, i64*, i64*)

declare i64 @_ZN17vfun_gudermannianIddE7iterateILN3wrt13runtime_flagsE1ELS3_0EL15increment_class0EEExPdPKdRKxPS8_(double*, double*, i64*, i64*)

declare i64 @_ZN17vfun_gudermannianIddE7iterateILN3wrt13runtime_flagsE0ELS3_1EL15increment_class1EEExPdPKdRKxPS8_(double*, double*, i64*, i64*)

declare i64 @_ZN17vfun_gudermannianIddE7iterateILN3wrt13runtime_flagsE0ELS3_1EL15increment_class0EEExPdPKdRKxPS8_(double*, double*, i64*, i64*)

declare i64 @_ZN17vfun_gudermannianIddE7iterateILN3wrt13runtime_flagsE0ELS3_0EL15increment_class1EEExPdPKdRKxPS8_(double*, double*, i64*, i64*)

declare i64 @_ZN17vfun_gudermannianIddE7iterateILN3wrt13runtime_flagsE0ELS3_0EL15increment_class0EEExPdPKdRKxPS8_(double*, double*, i64*, i64*)

declare double @tanh(double)

declare double @atan(double)

declare i64 @_ZN11vfun_lucaslINSt3__17complexIdEES2_E7iterateILN3wrt13runtime_flagsE1ELS6_0EL15increment_class1EEExPS2_PKS2_RKxPSB_(%"class.std::__1::complex"*, %"class.std::__1::complex"*, i64*, i64*)

declare i64 @_ZN11vfun_lucaslINSt3__17complexIdEES2_E7iterateILN3wrt13runtime_flagsE1ELS6_0EL15increment_class0EEExPS2_PKS2_RKxPSB_(%"class.std::__1::complex"*, %"class.std::__1::complex"*, i64*, i64*)

declare i64 @_ZN11vfun_lucaslINSt3__17complexIdEES2_E7iterateILN3wrt13runtime_flagsE0ELS6_1EL15increment_class1EEExPS2_PKS2_RKxPSB_(%"class.std::__1::complex"*, %"class.std::__1::complex"*, i64*, i64*)

declare i64 @_ZN11vfun_lucaslINSt3__17complexIdEES2_E7iterateILN3wrt13runtime_flagsE0ELS6_1EL15increment_class0EEExPS2_PKS2_RKxPSB_(%"class.std::__1::complex"*, %"class.std::__1::complex"*, i64*, i64*)

declare i64 @_ZN11vfun_lucaslINSt3__17complexIdEES2_E7iterateILN3wrt13runtime_flagsE0ELS6_0EL15increment_class1EEExPS2_PKS2_RKxPSB_(%"class.std::__1::complex"*, %"class.std::__1::complex"*, i64*, i64*)

declare i64 @_ZN11vfun_lucaslINSt3__17complexIdEES2_E7iterateILN3wrt13runtime_flagsE0ELS6_0EL15increment_class0EEExPS2_PKS2_RKxPSB_(%"class.std::__1::complex"*, %"class.std::__1::complex"*, i64*, i64*)

declare i64 @_ZN11vfun_lucaslIddE7iterateILN3wrt13runtime_flagsE1ELS3_0EL15increment_class1EEExPdPKdRKxPS8_(double*, double*, i64*, i64*)

declare i64 @_ZN11vfun_lucaslIddE7iterateILN3wrt13runtime_flagsE1ELS3_0EL15increment_class0EEExPdPKdRKxPS8_(double*, double*, i64*, i64*)

declare i64 @_ZN11vfun_lucaslIddE7iterateILN3wrt13runtime_flagsE0ELS3_1EL15increment_class1EEExPdPKdRKxPS8_(double*, double*, i64*, i64*)

declare i64 @_ZN11vfun_lucaslIddE7iterateILN3wrt13runtime_flagsE0ELS3_1EL15increment_class0EEExPdPKdRKxPS8_(double*, double*, i64*, i64*)

declare i64 @_ZN11vfun_lucaslIddE7iterateILN3wrt13runtime_flagsE0ELS3_0EL15increment_class1EEExPdPKdRKxPS8_(double*, double*, i64*, i64*)

declare i64 @_ZN11vfun_lucaslIddE7iterateILN3wrt13runtime_flagsE0ELS3_0EL15increment_class0EEExPdPKdRKxPS8_(double*, double*, i64*, i64*)

; Function Attrs: nounwind readnone speculatable
declare double @llvm.pow.f64(double, double) #0

declare i64 @_ZN11vfun_lucaslIxxE7iterateILN3wrt13runtime_flagsE0ELS3_1EL15increment_class1EEExPxPKxRS6_S7_(i64*, i64*, i64*, i64*)

declare i64 @_ZN11vfun_lucaslIxxE7iterateILN3wrt13runtime_flagsE0ELS3_1EL15increment_class0EEExPxPKxRS6_S7_(i64*, i64*, i64*, i64*)

declare i64 @_ZN11vfun_lucaslIxxE7iterateILN3wrt13runtime_flagsE0ELS3_0EL15increment_class1EEExPxPKxRS6_S7_(i64*, i64*, i64*, i64*)

declare i64 @_ZN11vfun_lucaslIxxE7iterateILN3wrt13runtime_flagsE0ELS3_0EL15increment_class0EEExPxPKxRS6_S7_(i64*, i64*, i64*, i64*)

declare i64 @_ZN14vfun_fibonacciINSt3__17complexIdEES2_E7iterateILN3wrt13runtime_flagsE1ELS6_0EL15increment_class1EEExPS2_PKS2_RKxPSB_(%"class.std::__1::complex"*, %"class.std::__1::complex"*, i64*, i64*)

declare i64 @_ZN14vfun_fibonacciINSt3__17complexIdEES2_E7iterateILN3wrt13runtime_flagsE1ELS6_0EL15increment_class0EEExPS2_PKS2_RKxPSB_(%"class.std::__1::complex"*, %"class.std::__1::complex"*, i64*, i64*)

declare i64 @_ZN14vfun_fibonacciINSt3__17complexIdEES2_E7iterateILN3wrt13runtime_flagsE0ELS6_1EL15increment_class1EEExPS2_PKS2_RKxPSB_(%"class.std::__1::complex"*, %"class.std::__1::complex"*, i64*, i64*)

declare i64 @_ZN14vfun_fibonacciINSt3__17complexIdEES2_E7iterateILN3wrt13runtime_flagsE0ELS6_1EL15increment_class0EEExPS2_PKS2_RKxPSB_(%"class.std::__1::complex"*, %"class.std::__1::complex"*, i64*, i64*)

declare i64 @_ZN14vfun_fibonacciINSt3__17complexIdEES2_E7iterateILN3wrt13runtime_flagsE0ELS6_0EL15increment_class1EEExPS2_PKS2_RKxPSB_(%"class.std::__1::complex"*, %"class.std::__1::complex"*, i64*, i64*)

declare i64 @_ZN14vfun_fibonacciINSt3__17complexIdEES2_E7iterateILN3wrt13runtime_flagsE0ELS6_0EL15increment_class0EEExPS2_PKS2_RKxPSB_(%"class.std::__1::complex"*, %"class.std::__1::complex"*, i64*, i64*)

declare { double, double } @_ZN3wrt9scalar_op5unaryL12fibonacci_opINSt3__17complexIdEELNS_13runtime_flagsE1EEENS3_9enable_ifIXsr28is_floating_point_or_complexIT_EE5valueENS1_6detail7op_infoILNS9_2opE34EN7rt_typeIS8_E4typeEE11result_typeEE4typeERKNSF_13argument_typeE(%"class.std::__1::complex"*)

declare i64 @_ZN14vfun_fibonacciIddE7iterateILN3wrt13runtime_flagsE1ELS3_0EL15increment_class1EEExPdPKdRKxPS8_(double*, double*, i64*, i64*)

declare i64 @_ZN14vfun_fibonacciIddE7iterateILN3wrt13runtime_flagsE1ELS3_0EL15increment_class0EEExPdPKdRKxPS8_(double*, double*, i64*, i64*)

declare i64 @_ZN14vfun_fibonacciIddE7iterateILN3wrt13runtime_flagsE0ELS3_1EL15increment_class1EEExPdPKdRKxPS8_(double*, double*, i64*, i64*)

declare i64 @_ZN14vfun_fibonacciIddE7iterateILN3wrt13runtime_flagsE0ELS3_1EL15increment_class0EEExPdPKdRKxPS8_(double*, double*, i64*, i64*)

declare i64 @_ZN14vfun_fibonacciIddE7iterateILN3wrt13runtime_flagsE0ELS3_0EL15increment_class1EEExPdPKdRKxPS8_(double*, double*, i64*, i64*)

declare i64 @_ZN14vfun_fibonacciIddE7iterateILN3wrt13runtime_flagsE0ELS3_0EL15increment_class0EEExPdPKdRKxPS8_(double*, double*, i64*, i64*)

declare i64 @_ZN14vfun_fibonacciIxxE7iterateILN3wrt13runtime_flagsE0ELS3_1EL15increment_class1EEExPxPKxRS6_S7_(i64*, i64*, i64*, i64*)

declare i64 @_ZN14vfun_fibonacciIxxE7iterateILN3wrt13runtime_flagsE0ELS3_1EL15increment_class0EEExPxPKxRS6_S7_(i64*, i64*, i64*, i64*)

declare i64 @_ZN14vfun_fibonacciIxxE7iterateILN3wrt13runtime_flagsE0ELS3_0EL15increment_class1EEExPxPKxRS6_S7_(i64*, i64*, i64*, i64*)

declare i64 @_ZN14vfun_fibonacciIxxE7iterateILN3wrt13runtime_flagsE0ELS3_0EL15increment_class0EEExPxPKxRS6_S7_(i64*, i64*, i64*, i64*)

declare i64 @_ZN9vfun_sincINSt3__17complexIdEES2_E7iterateILN3wrt13runtime_flagsE1ELS6_0EL15increment_class1EEExPS2_PKS2_RKxPSB_(%"class.std::__1::complex"*, %"class.std::__1::complex"*, i64*, i64*)

declare i64 @_ZN9vfun_sincINSt3__17complexIdEES2_E7iterateILN3wrt13runtime_flagsE1ELS6_0EL15increment_class0EEExPS2_PKS2_RKxPSB_(%"class.std::__1::complex"*, %"class.std::__1::complex"*, i64*, i64*)

declare i64 @_ZN9vfun_sincINSt3__17complexIdEES2_E7iterateILN3wrt13runtime_flagsE0ELS6_1EL15increment_class1EEExPS2_PKS2_RKxPSB_(%"class.std::__1::complex"*, %"class.std::__1::complex"*, i64*, i64*)

declare i64 @_ZN9vfun_sincINSt3__17complexIdEES2_E7iterateILN3wrt13runtime_flagsE0ELS6_1EL15increment_class0EEExPS2_PKS2_RKxPSB_(%"class.std::__1::complex"*, %"class.std::__1::complex"*, i64*, i64*)

declare i64 @_ZN9vfun_sincINSt3__17complexIdEES2_E7iterateILN3wrt13runtime_flagsE0ELS6_0EL15increment_class1EEExPS2_PKS2_RKxPSB_(%"class.std::__1::complex"*, %"class.std::__1::complex"*, i64*, i64*)

declare i64 @_ZN9vfun_sincINSt3__17complexIdEES2_E7iterateILN3wrt13runtime_flagsE0ELS6_0EL15increment_class0EEExPS2_PKS2_RKxPSB_(%"class.std::__1::complex"*, %"class.std::__1::complex"*, i64*, i64*)

declare { double, double } @_ZN3wrt9scalar_op6binaryL9divide_opINSt3__17complexIdEES5_LNS_13runtime_flagsE1EEENS3_9enable_ifIXoosr28is_floating_point_or_complexIT_EE5valuesr28is_floating_point_or_complexIT0_EE5valueENS1_6detail7op_infoILNSA_2opE9EN7rt_typeIS8_E4typeENSD_IS9_E4typeEE11result_typeEE4typeERKNSI_19first_argument_typeERKNSI_20second_argument_typeE(%"class.std::__1::complex"*, %"class.std::__1::complex"*)

declare i64 @_ZN9vfun_sincIddE7iterateILN3wrt13runtime_flagsE1ELS3_0EL15increment_class1EEExPdPKdRKxPS8_(double*, double*, i64*, i64*)

declare i64 @_ZN9vfun_sincIddE7iterateILN3wrt13runtime_flagsE1ELS3_0EL15increment_class0EEExPdPKdRKxPS8_(double*, double*, i64*, i64*)

declare i64 @_ZN9vfun_sincIddE7iterateILN3wrt13runtime_flagsE0ELS3_1EL15increment_class1EEExPdPKdRKxPS8_(double*, double*, i64*, i64*)

declare i64 @_ZN9vfun_sincIddE7iterateILN3wrt13runtime_flagsE0ELS3_1EL15increment_class0EEExPdPKdRKxPS8_(double*, double*, i64*, i64*)

declare i64 @_ZN9vfun_sincIddE7iterateILN3wrt13runtime_flagsE0ELS3_0EL15increment_class1EEExPdPKdRKxPS8_(double*, double*, i64*, i64*)

declare i64 @_ZN9vfun_sincIddE7iterateILN3wrt13runtime_flagsE0ELS3_0EL15increment_class0EEExPdPKdRKxPS8_(double*, double*, i64*, i64*)

declare i64 @_ZN14vfun_bitlengthIxxE7iterateILN3wrt13runtime_flagsE0ELS3_1EL15increment_class1EEExPxPKxRS6_S7_(i64*, i64*, i64*, i64*)

declare i64 @_ZN14vfun_bitlengthIxxE7iterateILN3wrt13runtime_flagsE0ELS3_1EL15increment_class0EEExPxPKxRS6_S7_(i64*, i64*, i64*, i64*)

declare i64 @_ZN14vfun_bitlengthIxxE7iterateILN3wrt13runtime_flagsE0ELS3_0EL15increment_class1EEExPxPKxRS6_S7_(i64*, i64*, i64*, i64*)

declare i64 @_ZN14vfun_bitlengthIxxE7iterateILN3wrt13runtime_flagsE0ELS3_0EL15increment_class0EEExPxPKxRS6_S7_(i64*, i64*, i64*, i64*)

declare i64 @_ZN11vfun_bitnotIxxE7iterateILN3wrt13runtime_flagsE0ELS3_1EL15increment_class1EEExPxPKxRS6_S7_(i64*, i64*, i64*, i64*)

declare i64 @_ZN11vfun_bitnotIxxE7iterateILN3wrt13runtime_flagsE0ELS3_1EL15increment_class0EEExPxPKxRS6_S7_(i64*, i64*, i64*, i64*)

declare i64 @_ZN11vfun_bitnotIxxE7iterateILN3wrt13runtime_flagsE0ELS3_0EL15increment_class1EEExPxPKxRS6_S7_(i64*, i64*, i64*, i64*)

declare i64 @_ZN11vfun_bitnotIxxE7iterateILN3wrt13runtime_flagsE0ELS3_0EL15increment_class0EEExPxPKxRS6_S7_(i64*, i64*, i64*, i64*)

declare i64 @_ZN10vfun_recipINSt3__17complexIdEES2_E7iterateILN3wrt13runtime_flagsE1ELS6_0EL15increment_class1EEExPS2_PKS2_RKxPSB_(%"class.std::__1::complex"*, %"class.std::__1::complex"*, i64*, i64*)

declare i64 @_ZN10vfun_recipINSt3__17complexIdEES2_E7iterateILN3wrt13runtime_flagsE1ELS6_0EL15increment_class0EEExPS2_PKS2_RKxPSB_(%"class.std::__1::complex"*, %"class.std::__1::complex"*, i64*, i64*)

declare i64 @_ZN10vfun_recipINSt3__17complexIdEES2_E7iterateILN3wrt13runtime_flagsE0ELS6_1EL15increment_class1EEExPS2_PKS2_RKxPSB_(%"class.std::__1::complex"*, %"class.std::__1::complex"*, i64*, i64*)

declare i64 @_ZN10vfun_recipINSt3__17complexIdEES2_E7iterateILN3wrt13runtime_flagsE0ELS6_1EL15increment_class0EEExPS2_PKS2_RKxPSB_(%"class.std::__1::complex"*, %"class.std::__1::complex"*, i64*, i64*)

declare i64 @_ZN10vfun_recipINSt3__17complexIdEES2_E7iterateILN3wrt13runtime_flagsE0ELS6_0EL15increment_class1EEExPS2_PKS2_RKxPSB_(%"class.std::__1::complex"*, %"class.std::__1::complex"*, i64*, i64*)

declare i64 @_ZN10vfun_recipINSt3__17complexIdEES2_E7iterateILN3wrt13runtime_flagsE0ELS6_0EL15increment_class0EEExPS2_PKS2_RKxPSB_(%"class.std::__1::complex"*, %"class.std::__1::complex"*, i64*, i64*)

declare i64 @_ZN10vfun_recipIddE7iterateILN3wrt13runtime_flagsE1ELS3_0EL15increment_class1EEExPdPKdRKxPS8_(double*, double*, i64*, i64*)

declare i64 @_ZN10vfun_recipIddE7iterateILN3wrt13runtime_flagsE1ELS3_0EL15increment_class0EEExPdPKdRKxPS8_(double*, double*, i64*, i64*)

declare i64 @_ZN10vfun_recipIddE7iterateILN3wrt13runtime_flagsE0ELS3_1EL15increment_class1EEExPdPKdRKxPS8_(double*, double*, i64*, i64*)

declare i64 @_ZN10vfun_recipIddE7iterateILN3wrt13runtime_flagsE0ELS3_1EL15increment_class0EEExPdPKdRKxPS8_(double*, double*, i64*, i64*)

declare i64 @_ZN10vfun_recipIddE7iterateILN3wrt13runtime_flagsE0ELS3_0EL15increment_class1EEExPdPKdRKxPS8_(double*, double*, i64*, i64*)

declare i64 @_ZN10vfun_recipIddE7iterateILN3wrt13runtime_flagsE0ELS3_0EL15increment_class0EEExPdPKdRKxPS8_(double*, double*, i64*, i64*)

declare i32 @vmlClearErrStatus()

declare void @vdInv(i64, double*, double*)

declare i32 @vmlGetErrStatus()

declare i64 @_ZN10vfun_rsqrtINSt3__17complexIdEES2_E7iterateILN3wrt13runtime_flagsE1ELS6_0EL15increment_class1EEExPS2_PKS2_RKxPSB_(%"class.std::__1::complex"*, %"class.std::__1::complex"*, i64*, i64*)

declare i64 @_ZN10vfun_rsqrtINSt3__17complexIdEES2_E7iterateILN3wrt13runtime_flagsE1ELS6_0EL15increment_class0EEExPS2_PKS2_RKxPSB_(%"class.std::__1::complex"*, %"class.std::__1::complex"*, i64*, i64*)

declare i64 @_ZN10vfun_rsqrtINSt3__17complexIdEES2_E7iterateILN3wrt13runtime_flagsE0ELS6_1EL15increment_class1EEExPS2_PKS2_RKxPSB_(%"class.std::__1::complex"*, %"class.std::__1::complex"*, i64*, i64*)

declare i64 @_ZN10vfun_rsqrtINSt3__17complexIdEES2_E7iterateILN3wrt13runtime_flagsE0ELS6_1EL15increment_class0EEExPS2_PKS2_RKxPSB_(%"class.std::__1::complex"*, %"class.std::__1::complex"*, i64*, i64*)

declare i64 @_ZN10vfun_rsqrtINSt3__17complexIdEES2_E7iterateILN3wrt13runtime_flagsE0ELS6_0EL15increment_class1EEExPS2_PKS2_RKxPSB_(%"class.std::__1::complex"*, %"class.std::__1::complex"*, i64*, i64*)

declare i64 @_ZN10vfun_rsqrtINSt3__17complexIdEES2_E7iterateILN3wrt13runtime_flagsE0ELS6_0EL15increment_class0EEExPS2_PKS2_RKxPSB_(%"class.std::__1::complex"*, %"class.std::__1::complex"*, i64*, i64*)

declare i64 @_ZN10vfun_rsqrtIddE7iterateILN3wrt13runtime_flagsE1ELS3_0EL15increment_class1EEExPdPKdRKxPS8_(double*, double*, i64*, i64*)

declare i64 @_ZN10vfun_rsqrtIddE7iterateILN3wrt13runtime_flagsE1ELS3_0EL15increment_class0EEExPdPKdRKxPS8_(double*, double*, i64*, i64*)

declare i64 @_ZN10vfun_rsqrtIddE7iterateILN3wrt13runtime_flagsE0ELS3_1EL15increment_class1EEExPdPKdRKxPS8_(double*, double*, i64*, i64*)

declare i64 @_ZN10vfun_rsqrtIddE7iterateILN3wrt13runtime_flagsE0ELS3_1EL15increment_class0EEExPdPKdRKxPS8_(double*, double*, i64*, i64*)

declare i64 @_ZN10vfun_rsqrtIddE7iterateILN3wrt13runtime_flagsE0ELS3_0EL15increment_class1EEExPdPKdRKxPS8_(double*, double*, i64*, i64*)

declare i64 @_ZN10vfun_rsqrtIddE7iterateILN3wrt13runtime_flagsE0ELS3_0EL15increment_class0EEExPdPKdRKxPS8_(double*, double*, i64*, i64*)

declare i64 @_ZN9vfun_cbrtIddE7iterateILN3wrt13runtime_flagsE1ELS3_0EL15increment_class1EEExPdPKdRKxPS8_(double*, double*, i64*, i64*)

declare i64 @_ZN9vfun_cbrtIddE7iterateILN3wrt13runtime_flagsE1ELS3_0EL15increment_class0EEExPdPKdRKxPS8_(double*, double*, i64*, i64*)

declare i64 @_ZN9vfun_cbrtIddE7iterateILN3wrt13runtime_flagsE0ELS3_1EL15increment_class1EEExPdPKdRKxPS8_(double*, double*, i64*, i64*)

declare i64 @_ZN9vfun_cbrtIddE7iterateILN3wrt13runtime_flagsE0ELS3_1EL15increment_class0EEExPdPKdRKxPS8_(double*, double*, i64*, i64*)

declare i64 @_ZN9vfun_cbrtIddE7iterateILN3wrt13runtime_flagsE0ELS3_0EL15increment_class1EEExPdPKdRKxPS8_(double*, double*, i64*, i64*)

declare i64 @_ZN9vfun_cbrtIddE7iterateILN3wrt13runtime_flagsE0ELS3_0EL15increment_class0EEExPdPKdRKxPS8_(double*, double*, i64*, i64*)

declare double @cbrt(double)

declare i64 @_ZN9vfun_sqrtINSt3__17complexIdEES2_E7iterateILN3wrt13runtime_flagsE1ELS6_0EL15increment_class1EEExPS2_PKS2_RKxPSB_(%"class.std::__1::complex"*, %"class.std::__1::complex"*, i64*, i64*)

declare i64 @_ZN9vfun_sqrtINSt3__17complexIdEES2_E7iterateILN3wrt13runtime_flagsE1ELS6_0EL15increment_class0EEExPS2_PKS2_RKxPSB_(%"class.std::__1::complex"*, %"class.std::__1::complex"*, i64*, i64*)

declare i64 @_ZN9vfun_sqrtINSt3__17complexIdEES2_E7iterateILN3wrt13runtime_flagsE0ELS6_1EL15increment_class1EEExPS2_PKS2_RKxPSB_(%"class.std::__1::complex"*, %"class.std::__1::complex"*, i64*, i64*)

declare i64 @_ZN9vfun_sqrtINSt3__17complexIdEES2_E7iterateILN3wrt13runtime_flagsE0ELS6_1EL15increment_class0EEExPS2_PKS2_RKxPSB_(%"class.std::__1::complex"*, %"class.std::__1::complex"*, i64*, i64*)

declare i64 @_ZN9vfun_sqrtINSt3__17complexIdEES2_E7iterateILN3wrt13runtime_flagsE0ELS6_0EL15increment_class1EEExPS2_PKS2_RKxPSB_(%"class.std::__1::complex"*, %"class.std::__1::complex"*, i64*, i64*)

declare i64 @_ZN9vfun_sqrtINSt3__17complexIdEES2_E7iterateILN3wrt13runtime_flagsE0ELS6_0EL15increment_class0EEExPS2_PKS2_RKxPSB_(%"class.std::__1::complex"*, %"class.std::__1::complex"*, i64*, i64*)

declare void @vzSqrt(i64, %"class.std::__1::complex"*, %"class.std::__1::complex"*)

declare i64 @_ZN9vfun_sqrtIddE7iterateILN3wrt13runtime_flagsE1ELS3_0EL15increment_class1EEExPdPKdRKxPS8_(double*, double*, i64*, i64*)

declare i64 @_ZN9vfun_sqrtIddE7iterateILN3wrt13runtime_flagsE1ELS3_0EL15increment_class0EEExPdPKdRKxPS8_(double*, double*, i64*, i64*)

declare i64 @_ZN9vfun_sqrtIddE7iterateILN3wrt13runtime_flagsE0ELS3_1EL15increment_class1EEExPdPKdRKxPS8_(double*, double*, i64*, i64*)

declare i64 @_ZN9vfun_sqrtIddE7iterateILN3wrt13runtime_flagsE0ELS3_1EL15increment_class0EEExPdPKdRKxPS8_(double*, double*, i64*, i64*)

declare i64 @_ZN9vfun_sqrtIddE7iterateILN3wrt13runtime_flagsE0ELS3_0EL15increment_class1EEExPdPKdRKxPS8_(double*, double*, i64*, i64*)

declare i64 @_ZN9vfun_sqrtIddE7iterateILN3wrt13runtime_flagsE0ELS3_0EL15increment_class0EEExPdPKdRKxPS8_(double*, double*, i64*, i64*)

declare void @vdSqrt(i64, double*, double*)

declare i64 @_ZN11vfun_squareINSt3__17complexIdEES2_E7iterateILN3wrt13runtime_flagsE1ELS6_0EL15increment_class1EEExPS2_PKS2_RKxPSB_(%"class.std::__1::complex"*, %"class.std::__1::complex"*, i64*, i64*)

declare i64 @_ZN11vfun_squareINSt3__17complexIdEES2_E7iterateILN3wrt13runtime_flagsE1ELS6_0EL15increment_class0EEExPS2_PKS2_RKxPSB_(%"class.std::__1::complex"*, %"class.std::__1::complex"*, i64*, i64*)

declare i64 @_ZN11vfun_squareINSt3__17complexIdEES2_E7iterateILN3wrt13runtime_flagsE0ELS6_1EL15increment_class1EEExPS2_PKS2_RKxPSB_(%"class.std::__1::complex"*, %"class.std::__1::complex"*, i64*, i64*)

declare i64 @_ZN11vfun_squareINSt3__17complexIdEES2_E7iterateILN3wrt13runtime_flagsE0ELS6_1EL15increment_class0EEExPS2_PKS2_RKxPSB_(%"class.std::__1::complex"*, %"class.std::__1::complex"*, i64*, i64*)

declare i64 @_ZN11vfun_squareINSt3__17complexIdEES2_E7iterateILN3wrt13runtime_flagsE0ELS6_0EL15increment_class1EEExPS2_PKS2_RKxPSB_(%"class.std::__1::complex"*, %"class.std::__1::complex"*, i64*, i64*)

declare i64 @_ZN11vfun_squareINSt3__17complexIdEES2_E7iterateILN3wrt13runtime_flagsE0ELS6_0EL15increment_class0EEExPS2_PKS2_RKxPSB_(%"class.std::__1::complex"*, %"class.std::__1::complex"*, i64*, i64*)

declare i64 @_ZN11vfun_squareIddE7iterateILN3wrt13runtime_flagsE1ELS3_0EL15increment_class1EEExPdPKdRKxPS8_(double*, double*, i64*, i64*)

declare i64 @_ZN11vfun_squareIddE7iterateILN3wrt13runtime_flagsE1ELS3_0EL15increment_class0EEExPdPKdRKxPS8_(double*, double*, i64*, i64*)

declare i64 @_ZN11vfun_squareIddE7iterateILN3wrt13runtime_flagsE0ELS3_1EL15increment_class1EEExPdPKdRKxPS8_(double*, double*, i64*, i64*)

declare i64 @_ZN11vfun_squareIddE7iterateILN3wrt13runtime_flagsE0ELS3_1EL15increment_class0EEExPdPKdRKxPS8_(double*, double*, i64*, i64*)

declare i64 @_ZN11vfun_squareIddE7iterateILN3wrt13runtime_flagsE0ELS3_0EL15increment_class1EEExPdPKdRKxPS8_(double*, double*, i64*, i64*)

declare i64 @_ZN11vfun_squareIddE7iterateILN3wrt13runtime_flagsE0ELS3_0EL15increment_class0EEExPdPKdRKxPS8_(double*, double*, i64*, i64*)

declare void @vdSqr(i64, double*, double*)

declare i64 @_ZN11vfun_squareIxxE7iterateILN3wrt13runtime_flagsE0ELS3_1EL15increment_class1EEExPxPKxRS6_S7_(i64*, i64*, i64*, i64*)

declare i64 @_ZN11vfun_squareIxxE7iterateILN3wrt13runtime_flagsE0ELS3_1EL15increment_class0EEExPxPKxRS6_S7_(i64*, i64*, i64*, i64*)

declare i64 @_ZN11vfun_squareIxxE7iterateILN3wrt13runtime_flagsE0ELS3_0EL15increment_class1EEExPxPKxRS6_S7_(i64*, i64*, i64*, i64*)

declare i64 @_ZN11vfun_squareIxxE7iterateILN3wrt13runtime_flagsE0ELS3_0EL15increment_class0EEExPxPKxRS6_S7_(i64*, i64*, i64*, i64*)

declare i64 @_ZN9vfun_oddqIxdE7iterateILN3wrt13runtime_flagsE0ELS3_1EL15increment_class1EEExPxPKdRKxPS8_(i64*, double*, i64*, i64*)

declare i64 @_ZN9vfun_oddqIxdE7iterateILN3wrt13runtime_flagsE0ELS3_1EL15increment_class0EEExPxPKdRKxPS8_(i64*, double*, i64*, i64*)

declare i64 @_ZN9vfun_oddqIxdE7iterateILN3wrt13runtime_flagsE0ELS3_0EL15increment_class1EEExPxPKdRKxPS8_(i64*, double*, i64*, i64*)

declare i64 @_ZN9vfun_oddqIxdE7iterateILN3wrt13runtime_flagsE0ELS3_0EL15increment_class0EEExPxPKdRKxPS8_(i64*, double*, i64*, i64*)

declare i64 @_ZN9vfun_oddqIxxE7iterateILN3wrt13runtime_flagsE0ELS3_1EL15increment_class1EEExPxPKxRS6_S7_(i64*, i64*, i64*, i64*)

declare i64 @_ZN9vfun_oddqIxxE7iterateILN3wrt13runtime_flagsE0ELS3_1EL15increment_class0EEExPxPKxRS6_S7_(i64*, i64*, i64*, i64*)

declare i64 @_ZN9vfun_oddqIxxE7iterateILN3wrt13runtime_flagsE0ELS3_0EL15increment_class1EEExPxPKxRS6_S7_(i64*, i64*, i64*, i64*)

declare i64 @_ZN9vfun_oddqIxxE7iterateILN3wrt13runtime_flagsE0ELS3_0EL15increment_class0EEExPxPKxRS6_S7_(i64*, i64*, i64*, i64*)

declare i64 @_ZN10vfun_evenqIxdE7iterateILN3wrt13runtime_flagsE0ELS3_1EL15increment_class1EEExPxPKdRKxPS8_(i64*, double*, i64*, i64*)

declare i64 @_ZN10vfun_evenqIxdE7iterateILN3wrt13runtime_flagsE0ELS3_1EL15increment_class0EEExPxPKdRKxPS8_(i64*, double*, i64*, i64*)

declare i64 @_ZN10vfun_evenqIxdE7iterateILN3wrt13runtime_flagsE0ELS3_0EL15increment_class1EEExPxPKdRKxPS8_(i64*, double*, i64*, i64*)

declare i64 @_ZN10vfun_evenqIxdE7iterateILN3wrt13runtime_flagsE0ELS3_0EL15increment_class0EEExPxPKdRKxPS8_(i64*, double*, i64*, i64*)

declare i64 @_ZN10vfun_evenqIxxE7iterateILN3wrt13runtime_flagsE0ELS3_1EL15increment_class1EEExPxPKxRS6_S7_(i64*, i64*, i64*, i64*)

declare i64 @_ZN10vfun_evenqIxxE7iterateILN3wrt13runtime_flagsE0ELS3_1EL15increment_class0EEExPxPKxRS6_S7_(i64*, i64*, i64*, i64*)

declare i64 @_ZN10vfun_evenqIxxE7iterateILN3wrt13runtime_flagsE0ELS3_0EL15increment_class1EEExPxPKxRS6_S7_(i64*, i64*, i64*, i64*)

declare i64 @_ZN10vfun_evenqIxxE7iterateILN3wrt13runtime_flagsE0ELS3_0EL15increment_class0EEExPxPKxRS6_S7_(i64*, i64*, i64*, i64*)

declare i64 @_ZN12vfun_intpartIxdE7iterateILN3wrt13runtime_flagsE0ELS3_1EL15increment_class1EEExPxPKdRKxPS8_(i64*, double*, i64*, i64*)

declare i64 @_ZN12vfun_intpartIxdE7iterateILN3wrt13runtime_flagsE0ELS3_1EL15increment_class0EEExPxPKdRKxPS8_(i64*, double*, i64*, i64*)

declare i64 @_ZN12vfun_intpartIxdE7iterateILN3wrt13runtime_flagsE0ELS3_0EL15increment_class1EEExPxPKdRKxPS8_(i64*, double*, i64*, i64*)

declare i64 @_ZN12vfun_intpartIxdE7iterateILN3wrt13runtime_flagsE0ELS3_0EL15increment_class0EEExPxPKdRKxPS8_(i64*, double*, i64*, i64*)

; Function Attrs: nounwind readnone speculatable
declare double @llvm.trunc.f64(double) #0

declare i64 @_ZN12vfun_intpartIxxE7iterateILN3wrt13runtime_flagsE0ELS3_1EL15increment_class1EEExPxPKxRS6_S7_(i64*, i64*, i64*, i64*)

declare i64 @_ZN12vfun_intpartIxxE7iterateILN3wrt13runtime_flagsE0ELS3_1EL15increment_class0EEExPxPKxRS6_S7_(i64*, i64*, i64*, i64*)

declare i64 @_ZN12vfun_intpartIxxE7iterateILN3wrt13runtime_flagsE0ELS3_0EL15increment_class1EEExPxPKxRS6_S7_(i64*, i64*, i64*, i64*)

declare i64 @_ZN12vfun_intpartIxxE7iterateILN3wrt13runtime_flagsE0ELS3_0EL15increment_class0EEExPxPKxRS6_S7_(i64*, i64*, i64*, i64*)

declare i64 @_ZN13vfun_fracpartINSt3__17complexIdEES2_E7iterateILN3wrt13runtime_flagsE1ELS6_0EL15increment_class1EEExPS2_PKS2_RKxPSB_(%"class.std::__1::complex"*, %"class.std::__1::complex"*, i64*, i64*)

declare i64 @_ZN13vfun_fracpartINSt3__17complexIdEES2_E7iterateILN3wrt13runtime_flagsE1ELS6_0EL15increment_class0EEExPS2_PKS2_RKxPSB_(%"class.std::__1::complex"*, %"class.std::__1::complex"*, i64*, i64*)

declare i64 @_ZN13vfun_fracpartINSt3__17complexIdEES2_E7iterateILN3wrt13runtime_flagsE0ELS6_1EL15increment_class1EEExPS2_PKS2_RKxPSB_(%"class.std::__1::complex"*, %"class.std::__1::complex"*, i64*, i64*)

declare i64 @_ZN13vfun_fracpartINSt3__17complexIdEES2_E7iterateILN3wrt13runtime_flagsE0ELS6_1EL15increment_class0EEExPS2_PKS2_RKxPSB_(%"class.std::__1::complex"*, %"class.std::__1::complex"*, i64*, i64*)

declare i64 @_ZN13vfun_fracpartINSt3__17complexIdEES2_E7iterateILN3wrt13runtime_flagsE0ELS6_0EL15increment_class1EEExPS2_PKS2_RKxPSB_(%"class.std::__1::complex"*, %"class.std::__1::complex"*, i64*, i64*)

declare i64 @_ZN13vfun_fracpartINSt3__17complexIdEES2_E7iterateILN3wrt13runtime_flagsE0ELS6_0EL15increment_class0EEExPS2_PKS2_RKxPSB_(%"class.std::__1::complex"*, %"class.std::__1::complex"*, i64*, i64*)

declare i64 @_ZN13vfun_fracpartIddE7iterateILN3wrt13runtime_flagsE1ELS3_0EL15increment_class1EEExPdPKdRKxPS8_(double*, double*, i64*, i64*)

declare i64 @_ZN13vfun_fracpartIddE7iterateILN3wrt13runtime_flagsE1ELS3_0EL15increment_class0EEExPdPKdRKxPS8_(double*, double*, i64*, i64*)

declare i64 @_ZN13vfun_fracpartIddE7iterateILN3wrt13runtime_flagsE0ELS3_1EL15increment_class1EEExPdPKdRKxPS8_(double*, double*, i64*, i64*)

declare i64 @_ZN13vfun_fracpartIddE7iterateILN3wrt13runtime_flagsE0ELS3_1EL15increment_class0EEExPdPKdRKxPS8_(double*, double*, i64*, i64*)

declare i64 @_ZN13vfun_fracpartIddE7iterateILN3wrt13runtime_flagsE0ELS3_0EL15increment_class1EEExPdPKdRKxPS8_(double*, double*, i64*, i64*)

declare i64 @_ZN13vfun_fracpartIddE7iterateILN3wrt13runtime_flagsE0ELS3_0EL15increment_class0EEExPdPKdRKxPS8_(double*, double*, i64*, i64*)

declare void @vdFrac(i64, double*, double*)

declare i64 @_ZN13vfun_fracpartIxxE7iterateILN3wrt13runtime_flagsE0ELS3_1EL15increment_class1EEExPxPKxRS6_S7_(i64*, i64*, i64*, i64*)

declare i64 @_ZN13vfun_fracpartIxxE7iterateILN3wrt13runtime_flagsE0ELS3_1EL15increment_class0EEExPxPKxRS6_S7_(i64*, i64*, i64*, i64*)

declare i64 @_ZN13vfun_fracpartIxxE7iterateILN3wrt13runtime_flagsE0ELS3_0EL15increment_class1EEExPxPKxRS6_S7_(i64*, i64*, i64*, i64*)

declare i64 @_ZN13vfun_fracpartIxxE7iterateILN3wrt13runtime_flagsE0ELS3_0EL15increment_class0EEExPxPKxRS6_S7_(i64*, i64*, i64*, i64*)

declare i64 @_ZN12vfun_ceilingIxdE7iterateILN3wrt13runtime_flagsE0ELS3_1EL15increment_class1EEExPxPKdRKxPS8_(i64*, double*, i64*, i64*)

declare i64 @_ZN12vfun_ceilingIxdE7iterateILN3wrt13runtime_flagsE0ELS3_1EL15increment_class0EEExPxPKdRKxPS8_(i64*, double*, i64*, i64*)

declare i64 @_ZN12vfun_ceilingIxdE7iterateILN3wrt13runtime_flagsE0ELS3_0EL15increment_class1EEExPxPKdRKxPS8_(i64*, double*, i64*, i64*)

declare i64 @_ZN12vfun_ceilingIxdE7iterateILN3wrt13runtime_flagsE0ELS3_0EL15increment_class0EEExPxPKdRKxPS8_(i64*, double*, i64*, i64*)

; Function Attrs: nounwind readnone speculatable
declare double @llvm.ceil.f64(double) #0

declare i64 @_ZN12vfun_ceilingIxxE7iterateILN3wrt13runtime_flagsE0ELS3_1EL15increment_class1EEExPxPKxRS6_S7_(i64*, i64*, i64*, i64*)

declare i64 @_ZN12vfun_ceilingIxxE7iterateILN3wrt13runtime_flagsE0ELS3_1EL15increment_class0EEExPxPKxRS6_S7_(i64*, i64*, i64*, i64*)

declare i64 @_ZN12vfun_ceilingIxxE7iterateILN3wrt13runtime_flagsE0ELS3_0EL15increment_class1EEExPxPKxRS6_S7_(i64*, i64*, i64*, i64*)

declare i64 @_ZN12vfun_ceilingIxxE7iterateILN3wrt13runtime_flagsE0ELS3_0EL15increment_class0EEExPxPKxRS6_S7_(i64*, i64*, i64*, i64*)

declare i64 @_ZN10vfun_floorIxdE7iterateILN3wrt13runtime_flagsE0ELS3_1EL15increment_class1EEExPxPKdRKxPS8_(i64*, double*, i64*, i64*)

declare i64 @_ZN10vfun_floorIxdE7iterateILN3wrt13runtime_flagsE0ELS3_1EL15increment_class0EEExPxPKdRKxPS8_(i64*, double*, i64*, i64*)

declare i64 @_ZN10vfun_floorIxdE7iterateILN3wrt13runtime_flagsE0ELS3_0EL15increment_class1EEExPxPKdRKxPS8_(i64*, double*, i64*, i64*)

declare i64 @_ZN10vfun_floorIxdE7iterateILN3wrt13runtime_flagsE0ELS3_0EL15increment_class0EEExPxPKdRKxPS8_(i64*, double*, i64*, i64*)

; Function Attrs: nounwind readnone speculatable
declare double @llvm.floor.f64(double) #0

declare i64 @_ZN10vfun_floorIxxE7iterateILN3wrt13runtime_flagsE0ELS3_1EL15increment_class1EEExPxPKxRS6_S7_(i64*, i64*, i64*, i64*)

declare i64 @_ZN10vfun_floorIxxE7iterateILN3wrt13runtime_flagsE0ELS3_1EL15increment_class0EEExPxPKxRS6_S7_(i64*, i64*, i64*, i64*)

declare i64 @_ZN10vfun_floorIxxE7iterateILN3wrt13runtime_flagsE0ELS3_0EL15increment_class1EEExPxPKxRS6_S7_(i64*, i64*, i64*, i64*)

declare i64 @_ZN10vfun_floorIxxE7iterateILN3wrt13runtime_flagsE0ELS3_0EL15increment_class0EEExPxPKxRS6_S7_(i64*, i64*, i64*, i64*)

declare i64 @_ZN10vfun_roundIxdE7iterateILN3wrt13runtime_flagsE0ELS3_1EL15increment_class1EEExPxPKdRKxPS8_(i64*, double*, i64*, i64*)

declare i64 @_ZN10vfun_roundIxdE7iterateILN3wrt13runtime_flagsE0ELS3_1EL15increment_class0EEExPxPKdRKxPS8_(i64*, double*, i64*, i64*)

declare i64 @_ZN10vfun_roundIxdE7iterateILN3wrt13runtime_flagsE0ELS3_0EL15increment_class1EEExPxPKdRKxPS8_(i64*, double*, i64*, i64*)

declare i64 @_ZN10vfun_roundIxdE7iterateILN3wrt13runtime_flagsE0ELS3_0EL15increment_class0EEExPxPKdRKxPS8_(i64*, double*, i64*, i64*)

; Function Attrs: nounwind readnone speculatable
declare double @llvm.nearbyint.f64(double) #0

declare i64 @_ZN10vfun_roundIxxE7iterateILN3wrt13runtime_flagsE0ELS3_1EL15increment_class1EEExPxPKxRS6_S7_(i64*, i64*, i64*, i64*)

declare i64 @_ZN10vfun_roundIxxE7iterateILN3wrt13runtime_flagsE0ELS3_1EL15increment_class0EEExPxPKxRS6_S7_(i64*, i64*, i64*, i64*)

declare i64 @_ZN10vfun_roundIxxE7iterateILN3wrt13runtime_flagsE0ELS3_0EL15increment_class1EEExPxPKxRS6_S7_(i64*, i64*, i64*, i64*)

declare i64 @_ZN10vfun_roundIxxE7iterateILN3wrt13runtime_flagsE0ELS3_0EL15increment_class0EEExPxPKxRS6_S7_(i64*, i64*, i64*, i64*)

declare i64 @_ZN9vfun_nnegIxdE7iterateILN3wrt13runtime_flagsE0ELS3_1EL15increment_class1EEExPxPKdRKxPS8_(i64*, double*, i64*, i64*)

declare i64 @_ZN9vfun_nnegIxdE7iterateILN3wrt13runtime_flagsE0ELS3_1EL15increment_class0EEExPxPKdRKxPS8_(i64*, double*, i64*, i64*)

declare i64 @_ZN9vfun_nnegIxdE7iterateILN3wrt13runtime_flagsE0ELS3_0EL15increment_class1EEExPxPKdRKxPS8_(i64*, double*, i64*, i64*)

declare i64 @_ZN9vfun_nnegIxdE7iterateILN3wrt13runtime_flagsE0ELS3_0EL15increment_class0EEExPxPKdRKxPS8_(i64*, double*, i64*, i64*)

declare i64 @_ZN9vfun_nnegIxxE7iterateILN3wrt13runtime_flagsE0ELS3_1EL15increment_class1EEExPxPKxRS6_S7_(i64*, i64*, i64*, i64*)

declare i64 @_ZN9vfun_nnegIxxE7iterateILN3wrt13runtime_flagsE0ELS3_1EL15increment_class0EEExPxPKxRS6_S7_(i64*, i64*, i64*, i64*)

declare i64 @_ZN9vfun_nnegIxxE7iterateILN3wrt13runtime_flagsE0ELS3_0EL15increment_class1EEExPxPKxRS6_S7_(i64*, i64*, i64*, i64*)

declare i64 @_ZN9vfun_nnegIxxE7iterateILN3wrt13runtime_flagsE0ELS3_0EL15increment_class0EEExPxPKxRS6_S7_(i64*, i64*, i64*, i64*)

declare i64 @_ZN9vfun_nposIxdE7iterateILN3wrt13runtime_flagsE0ELS3_1EL15increment_class1EEExPxPKdRKxPS8_(i64*, double*, i64*, i64*)

declare i64 @_ZN9vfun_nposIxdE7iterateILN3wrt13runtime_flagsE0ELS3_1EL15increment_class0EEExPxPKdRKxPS8_(i64*, double*, i64*, i64*)

declare i64 @_ZN9vfun_nposIxdE7iterateILN3wrt13runtime_flagsE0ELS3_0EL15increment_class1EEExPxPKdRKxPS8_(i64*, double*, i64*, i64*)

declare i64 @_ZN9vfun_nposIxdE7iterateILN3wrt13runtime_flagsE0ELS3_0EL15increment_class0EEExPxPKdRKxPS8_(i64*, double*, i64*, i64*)

declare i64 @_ZN9vfun_nposIxxE7iterateILN3wrt13runtime_flagsE0ELS3_1EL15increment_class1EEExPxPKxRS6_S7_(i64*, i64*, i64*, i64*)

declare i64 @_ZN9vfun_nposIxxE7iterateILN3wrt13runtime_flagsE0ELS3_1EL15increment_class0EEExPxPKxRS6_S7_(i64*, i64*, i64*, i64*)

declare i64 @_ZN9vfun_nposIxxE7iterateILN3wrt13runtime_flagsE0ELS3_0EL15increment_class1EEExPxPKxRS6_S7_(i64*, i64*, i64*, i64*)

declare i64 @_ZN9vfun_nposIxxE7iterateILN3wrt13runtime_flagsE0ELS3_0EL15increment_class0EEExPxPKxRS6_S7_(i64*, i64*, i64*, i64*)

declare i64 @_ZN8vfun_negIxdE7iterateILN3wrt13runtime_flagsE0ELS3_1EL15increment_class1EEExPxPKdRKxPS8_(i64*, double*, i64*, i64*)

declare i64 @_ZN8vfun_negIxdE7iterateILN3wrt13runtime_flagsE0ELS3_1EL15increment_class0EEExPxPKdRKxPS8_(i64*, double*, i64*, i64*)

declare i64 @_ZN8vfun_negIxdE7iterateILN3wrt13runtime_flagsE0ELS3_0EL15increment_class1EEExPxPKdRKxPS8_(i64*, double*, i64*, i64*)

declare i64 @_ZN8vfun_negIxdE7iterateILN3wrt13runtime_flagsE0ELS3_0EL15increment_class0EEExPxPKdRKxPS8_(i64*, double*, i64*, i64*)

declare i64 @_ZN8vfun_negIxxE7iterateILN3wrt13runtime_flagsE0ELS3_1EL15increment_class1EEExPxPKxRS6_S7_(i64*, i64*, i64*, i64*)

declare i64 @_ZN8vfun_negIxxE7iterateILN3wrt13runtime_flagsE0ELS3_1EL15increment_class0EEExPxPKxRS6_S7_(i64*, i64*, i64*, i64*)

declare i64 @_ZN8vfun_negIxxE7iterateILN3wrt13runtime_flagsE0ELS3_0EL15increment_class1EEExPxPKxRS6_S7_(i64*, i64*, i64*, i64*)

declare i64 @_ZN8vfun_negIxxE7iterateILN3wrt13runtime_flagsE0ELS3_0EL15increment_class0EEExPxPKxRS6_S7_(i64*, i64*, i64*, i64*)

declare i64 @_ZN8vfun_posIxdE7iterateILN3wrt13runtime_flagsE0ELS3_1EL15increment_class1EEExPxPKdRKxPS8_(i64*, double*, i64*, i64*)

declare i64 @_ZN8vfun_posIxdE7iterateILN3wrt13runtime_flagsE0ELS3_1EL15increment_class0EEExPxPKdRKxPS8_(i64*, double*, i64*, i64*)

declare i64 @_ZN8vfun_posIxdE7iterateILN3wrt13runtime_flagsE0ELS3_0EL15increment_class1EEExPxPKdRKxPS8_(i64*, double*, i64*, i64*)

declare i64 @_ZN8vfun_posIxdE7iterateILN3wrt13runtime_flagsE0ELS3_0EL15increment_class0EEExPxPKdRKxPS8_(i64*, double*, i64*, i64*)

declare i64 @_ZN8vfun_posIxxE7iterateILN3wrt13runtime_flagsE0ELS3_1EL15increment_class1EEExPxPKxRS6_S7_(i64*, i64*, i64*, i64*)

declare i64 @_ZN8vfun_posIxxE7iterateILN3wrt13runtime_flagsE0ELS3_1EL15increment_class0EEExPxPKxRS6_S7_(i64*, i64*, i64*, i64*)

declare i64 @_ZN8vfun_posIxxE7iterateILN3wrt13runtime_flagsE0ELS3_0EL15increment_class1EEExPxPKxRS6_S7_(i64*, i64*, i64*, i64*)

declare i64 @_ZN8vfun_posIxxE7iterateILN3wrt13runtime_flagsE0ELS3_0EL15increment_class0EEExPxPKxRS6_S7_(i64*, i64*, i64*, i64*)

declare i64 @_ZN9vfun_signINSt3__17complexIdEES2_E7iterateILN3wrt13runtime_flagsE1ELS6_0EL15increment_class1EEExPS2_PKS2_RKxPSB_(%"class.std::__1::complex"*, %"class.std::__1::complex"*, i64*, i64*)

declare i64 @_ZN9vfun_signINSt3__17complexIdEES2_E7iterateILN3wrt13runtime_flagsE1ELS6_0EL15increment_class0EEExPS2_PKS2_RKxPSB_(%"class.std::__1::complex"*, %"class.std::__1::complex"*, i64*, i64*)

declare i64 @_ZN9vfun_signINSt3__17complexIdEES2_E7iterateILN3wrt13runtime_flagsE0ELS6_1EL15increment_class1EEExPS2_PKS2_RKxPSB_(%"class.std::__1::complex"*, %"class.std::__1::complex"*, i64*, i64*)

declare i64 @_ZN9vfun_signINSt3__17complexIdEES2_E7iterateILN3wrt13runtime_flagsE0ELS6_1EL15increment_class0EEExPS2_PKS2_RKxPSB_(%"class.std::__1::complex"*, %"class.std::__1::complex"*, i64*, i64*)

declare i64 @_ZN9vfun_signINSt3__17complexIdEES2_E7iterateILN3wrt13runtime_flagsE0ELS6_0EL15increment_class1EEExPS2_PKS2_RKxPSB_(%"class.std::__1::complex"*, %"class.std::__1::complex"*, i64*, i64*)

declare i64 @_ZN9vfun_signINSt3__17complexIdEES2_E7iterateILN3wrt13runtime_flagsE0ELS6_0EL15increment_class0EEExPS2_PKS2_RKxPSB_(%"class.std::__1::complex"*, %"class.std::__1::complex"*, i64*, i64*)

declare i64 @_ZN9vfun_signIxdE7iterateILN3wrt13runtime_flagsE0ELS3_1EL15increment_class1EEExPxPKdRKxPS8_(i64*, double*, i64*, i64*)

declare i64 @_ZN9vfun_signIxdE7iterateILN3wrt13runtime_flagsE0ELS3_1EL15increment_class0EEExPxPKdRKxPS8_(i64*, double*, i64*, i64*)

declare i64 @_ZN9vfun_signIxdE7iterateILN3wrt13runtime_flagsE0ELS3_0EL15increment_class1EEExPxPKdRKxPS8_(i64*, double*, i64*, i64*)

declare i64 @_ZN9vfun_signIxdE7iterateILN3wrt13runtime_flagsE0ELS3_0EL15increment_class0EEExPxPKdRKxPS8_(i64*, double*, i64*, i64*)

declare i64 @_ZN9vfun_signIxxE7iterateILN3wrt13runtime_flagsE0ELS3_1EL15increment_class1EEExPxPKxRS6_S7_(i64*, i64*, i64*, i64*)

declare i64 @_ZN9vfun_signIxxE7iterateILN3wrt13runtime_flagsE0ELS3_1EL15increment_class0EEExPxPKxRS6_S7_(i64*, i64*, i64*, i64*)

declare i64 @_ZN9vfun_signIxxE7iterateILN3wrt13runtime_flagsE0ELS3_0EL15increment_class1EEExPxPKxRS6_S7_(i64*, i64*, i64*, i64*)

declare i64 @_ZN9vfun_signIxxE7iterateILN3wrt13runtime_flagsE0ELS3_0EL15increment_class0EEExPxPKxRS6_S7_(i64*, i64*, i64*, i64*)

declare i64 @_ZN10vfun_minusINSt3__17complexIdEES2_E7iterateILN3wrt13runtime_flagsE1ELS6_0EL15increment_class1EEExPS2_PKS2_RKxPSB_(%"class.std::__1::complex"*, %"class.std::__1::complex"*, i64*, i64*)

declare i64 @_ZN10vfun_minusINSt3__17complexIdEES2_E7iterateILN3wrt13runtime_flagsE1ELS6_0EL15increment_class0EEExPS2_PKS2_RKxPSB_(%"class.std::__1::complex"*, %"class.std::__1::complex"*, i64*, i64*)

declare i64 @_ZN10vfun_minusINSt3__17complexIdEES2_E7iterateILN3wrt13runtime_flagsE0ELS6_1EL15increment_class1EEExPS2_PKS2_RKxPSB_(%"class.std::__1::complex"*, %"class.std::__1::complex"*, i64*, i64*)

declare i64 @_ZN10vfun_minusINSt3__17complexIdEES2_E7iterateILN3wrt13runtime_flagsE0ELS6_1EL15increment_class0EEExPS2_PKS2_RKxPSB_(%"class.std::__1::complex"*, %"class.std::__1::complex"*, i64*, i64*)

declare i64 @_ZN10vfun_minusINSt3__17complexIdEES2_E7iterateILN3wrt13runtime_flagsE0ELS6_0EL15increment_class1EEExPS2_PKS2_RKxPSB_(%"class.std::__1::complex"*, %"class.std::__1::complex"*, i64*, i64*)

declare i64 @_ZN10vfun_minusINSt3__17complexIdEES2_E7iterateILN3wrt13runtime_flagsE0ELS6_0EL15increment_class0EEExPS2_PKS2_RKxPSB_(%"class.std::__1::complex"*, %"class.std::__1::complex"*, i64*, i64*)

declare i64 @_ZN10vfun_minusIddE7iterateILN3wrt13runtime_flagsE1ELS3_0EL15increment_class1EEExPdPKdRKxPS8_(double*, double*, i64*, i64*)

declare i64 @_ZN10vfun_minusIddE7iterateILN3wrt13runtime_flagsE1ELS3_0EL15increment_class0EEExPdPKdRKxPS8_(double*, double*, i64*, i64*)

declare i64 @_ZN10vfun_minusIddE7iterateILN3wrt13runtime_flagsE0ELS3_1EL15increment_class1EEExPdPKdRKxPS8_(double*, double*, i64*, i64*)

declare i64 @_ZN10vfun_minusIddE7iterateILN3wrt13runtime_flagsE0ELS3_1EL15increment_class0EEExPdPKdRKxPS8_(double*, double*, i64*, i64*)

declare i64 @_ZN10vfun_minusIddE7iterateILN3wrt13runtime_flagsE0ELS3_0EL15increment_class1EEExPdPKdRKxPS8_(double*, double*, i64*, i64*)

declare i64 @_ZN10vfun_minusIddE7iterateILN3wrt13runtime_flagsE0ELS3_0EL15increment_class0EEExPdPKdRKxPS8_(double*, double*, i64*, i64*)

declare i64 @_ZN10vfun_minusIxxE7iterateILN3wrt13runtime_flagsE0ELS3_1EL15increment_class1EEExPxPKxRS6_S7_(i64*, i64*, i64*, i64*)

declare i64 @_ZN10vfun_minusIxxE7iterateILN3wrt13runtime_flagsE0ELS3_1EL15increment_class0EEExPxPKxRS6_S7_(i64*, i64*, i64*, i64*)

declare i64 @_ZN10vfun_minusIxxE7iterateILN3wrt13runtime_flagsE0ELS3_0EL15increment_class1EEExPxPKxRS6_S7_(i64*, i64*, i64*, i64*)

declare i64 @_ZN10vfun_minusIxxE7iterateILN3wrt13runtime_flagsE0ELS3_0EL15increment_class0EEExPxPKxRS6_S7_(i64*, i64*, i64*, i64*)

declare i64 @_ZN7vfun_reIdNSt3__17complexIdEEE7iterateILN3wrt13runtime_flagsE1ELS6_0EL15increment_class1EEExPdPKS2_RKxPSB_(double*, %"class.std::__1::complex"*, i64*, i64*)

declare i64 @_ZN7vfun_reIdNSt3__17complexIdEEE7iterateILN3wrt13runtime_flagsE1ELS6_0EL15increment_class0EEExPdPKS2_RKxPSB_(double*, %"class.std::__1::complex"*, i64*, i64*)

declare i64 @_ZN7vfun_reIdNSt3__17complexIdEEE7iterateILN3wrt13runtime_flagsE0ELS6_0EL15increment_class1EEExPdPKS2_RKxPSB_(double*, %"class.std::__1::complex"*, i64*, i64*)

declare i64 @_ZN7vfun_reIdNSt3__17complexIdEEE7iterateILN3wrt13runtime_flagsE0ELS6_0EL15increment_class0EEExPdPKS2_RKxPSB_(double*, %"class.std::__1::complex"*, i64*, i64*)

declare i64 @_ZN7vfun_reIddE7iterateILN3wrt13runtime_flagsE1ELS3_0EL15increment_class1EEExPdPKdRKxPS8_(double*, double*, i64*, i64*)

declare i64 @_ZN7vfun_reIddE7iterateILN3wrt13runtime_flagsE1ELS3_0EL15increment_class0EEExPdPKdRKxPS8_(double*, double*, i64*, i64*)

declare i64 @_ZN7vfun_reIddE7iterateILN3wrt13runtime_flagsE0ELS3_1EL15increment_class1EEExPdPKdRKxPS8_(double*, double*, i64*, i64*)

declare i64 @_ZN7vfun_reIddE7iterateILN3wrt13runtime_flagsE0ELS3_1EL15increment_class0EEExPdPKdRKxPS8_(double*, double*, i64*, i64*)

declare i64 @_ZN7vfun_reIddE7iterateILN3wrt13runtime_flagsE0ELS3_0EL15increment_class1EEExPdPKdRKxPS8_(double*, double*, i64*, i64*)

declare i64 @_ZN7vfun_reIddE7iterateILN3wrt13runtime_flagsE0ELS3_0EL15increment_class0EEExPdPKdRKxPS8_(double*, double*, i64*, i64*)

declare i64 @_ZN7vfun_reIxxE7iterateILN3wrt13runtime_flagsE0ELS3_1EL15increment_class1EEExPxPKxRS6_S7_(i64*, i64*, i64*, i64*)

declare i64 @_ZN7vfun_reIxxE7iterateILN3wrt13runtime_flagsE0ELS3_1EL15increment_class0EEExPxPKxRS6_S7_(i64*, i64*, i64*, i64*)

declare i64 @_ZN7vfun_reIxxE7iterateILN3wrt13runtime_flagsE0ELS3_0EL15increment_class1EEExPxPKxRS6_S7_(i64*, i64*, i64*, i64*)

declare i64 @_ZN7vfun_reIxxE7iterateILN3wrt13runtime_flagsE0ELS3_0EL15increment_class0EEExPxPKxRS6_S7_(i64*, i64*, i64*, i64*)

declare i64 @_ZN7vfun_imIdNSt3__17complexIdEEE7iterateILN3wrt13runtime_flagsE1ELS6_0EL15increment_class1EEExPdPKS2_RKxPSB_(double*, %"class.std::__1::complex"*, i64*, i64*)

declare i64 @_ZN7vfun_imIdNSt3__17complexIdEEE7iterateILN3wrt13runtime_flagsE1ELS6_0EL15increment_class0EEExPdPKS2_RKxPSB_(double*, %"class.std::__1::complex"*, i64*, i64*)

declare i64 @_ZN7vfun_imIdNSt3__17complexIdEEE7iterateILN3wrt13runtime_flagsE0ELS6_0EL15increment_class1EEExPdPKS2_RKxPSB_(double*, %"class.std::__1::complex"*, i64*, i64*)

declare i64 @_ZN7vfun_imIdNSt3__17complexIdEEE7iterateILN3wrt13runtime_flagsE0ELS6_0EL15increment_class0EEExPdPKS2_RKxPSB_(double*, %"class.std::__1::complex"*, i64*, i64*)

declare i64 @_ZN7vfun_imIxdE7iterateILN3wrt13runtime_flagsE0ELS3_1EL15increment_class1EEExPxPKdRKxPS8_(i64*, double*, i64*, i64*)

declare i64 @_ZN7vfun_imIxdE7iterateILN3wrt13runtime_flagsE0ELS3_1EL15increment_class0EEExPxPKdRKxPS8_(i64*, double*, i64*, i64*)

declare i64 @_ZN7vfun_imIxdE7iterateILN3wrt13runtime_flagsE0ELS3_0EL15increment_class1EEExPxPKdRKxPS8_(i64*, double*, i64*, i64*)

declare i64 @_ZN7vfun_imIxdE7iterateILN3wrt13runtime_flagsE0ELS3_0EL15increment_class0EEExPxPKdRKxPS8_(i64*, double*, i64*, i64*)

declare i64 @_ZN7vfun_imIxxE7iterateILN3wrt13runtime_flagsE0ELS3_1EL15increment_class1EEExPxPKxRS6_S7_(i64*, i64*, i64*, i64*)

declare i64 @_ZN7vfun_imIxxE7iterateILN3wrt13runtime_flagsE0ELS3_1EL15increment_class0EEExPxPKxRS6_S7_(i64*, i64*, i64*, i64*)

declare i64 @_ZN7vfun_imIxxE7iterateILN3wrt13runtime_flagsE0ELS3_0EL15increment_class1EEExPxPKxRS6_S7_(i64*, i64*, i64*, i64*)

declare i64 @_ZN7vfun_imIxxE7iterateILN3wrt13runtime_flagsE0ELS3_0EL15increment_class0EEExPxPKxRS6_S7_(i64*, i64*, i64*, i64*)

declare i64 @_ZN9vfun_conjINSt3__17complexIdEES2_E7iterateILN3wrt13runtime_flagsE1ELS6_0EL15increment_class1EEExPS2_PKS2_RKxPSB_(%"class.std::__1::complex"*, %"class.std::__1::complex"*, i64*, i64*)

declare i64 @_ZN9vfun_conjINSt3__17complexIdEES2_E7iterateILN3wrt13runtime_flagsE1ELS6_0EL15increment_class0EEExPS2_PKS2_RKxPSB_(%"class.std::__1::complex"*, %"class.std::__1::complex"*, i64*, i64*)

declare i64 @_ZN9vfun_conjINSt3__17complexIdEES2_E7iterateILN3wrt13runtime_flagsE0ELS6_1EL15increment_class1EEExPS2_PKS2_RKxPSB_(%"class.std::__1::complex"*, %"class.std::__1::complex"*, i64*, i64*)

declare i64 @_ZN9vfun_conjINSt3__17complexIdEES2_E7iterateILN3wrt13runtime_flagsE0ELS6_1EL15increment_class0EEExPS2_PKS2_RKxPSB_(%"class.std::__1::complex"*, %"class.std::__1::complex"*, i64*, i64*)

declare i64 @_ZN9vfun_conjINSt3__17complexIdEES2_E7iterateILN3wrt13runtime_flagsE0ELS6_0EL15increment_class1EEExPS2_PKS2_RKxPSB_(%"class.std::__1::complex"*, %"class.std::__1::complex"*, i64*, i64*)

declare i64 @_ZN9vfun_conjINSt3__17complexIdEES2_E7iterateILN3wrt13runtime_flagsE0ELS6_0EL15increment_class0EEExPS2_PKS2_RKxPSB_(%"class.std::__1::complex"*, %"class.std::__1::complex"*, i64*, i64*)

declare void @vzConj(i64, %"class.std::__1::complex"*, %"class.std::__1::complex"*)

declare i64 @_ZN9vfun_conjIddE7iterateILN3wrt13runtime_flagsE1ELS3_0EL15increment_class1EEExPdPKdRKxPS8_(double*, double*, i64*, i64*)

declare i64 @_ZN9vfun_conjIddE7iterateILN3wrt13runtime_flagsE1ELS3_0EL15increment_class0EEExPdPKdRKxPS8_(double*, double*, i64*, i64*)

declare i64 @_ZN9vfun_conjIddE7iterateILN3wrt13runtime_flagsE0ELS3_1EL15increment_class1EEExPdPKdRKxPS8_(double*, double*, i64*, i64*)

declare i64 @_ZN9vfun_conjIddE7iterateILN3wrt13runtime_flagsE0ELS3_1EL15increment_class0EEExPdPKdRKxPS8_(double*, double*, i64*, i64*)

declare i64 @_ZN9vfun_conjIddE7iterateILN3wrt13runtime_flagsE0ELS3_0EL15increment_class1EEExPdPKdRKxPS8_(double*, double*, i64*, i64*)

declare i64 @_ZN9vfun_conjIddE7iterateILN3wrt13runtime_flagsE0ELS3_0EL15increment_class0EEExPdPKdRKxPS8_(double*, double*, i64*, i64*)

declare i64 @_ZN9vfun_conjIxxE7iterateILN3wrt13runtime_flagsE0ELS3_1EL15increment_class1EEExPxPKxRS6_S7_(i64*, i64*, i64*, i64*)

declare i64 @_ZN9vfun_conjIxxE7iterateILN3wrt13runtime_flagsE0ELS3_1EL15increment_class0EEExPxPKxRS6_S7_(i64*, i64*, i64*, i64*)

declare i64 @_ZN9vfun_conjIxxE7iterateILN3wrt13runtime_flagsE0ELS3_0EL15increment_class1EEExPxPKxRS6_S7_(i64*, i64*, i64*, i64*)

declare i64 @_ZN9vfun_conjIxxE7iterateILN3wrt13runtime_flagsE0ELS3_0EL15increment_class0EEExPxPKxRS6_S7_(i64*, i64*, i64*, i64*)

declare i64 @_ZN8vfun_argIdNSt3__17complexIdEEE7iterateILN3wrt13runtime_flagsE1ELS6_0EL15increment_class1EEExPdPKS2_RKxPSB_(double*, %"class.std::__1::complex"*, i64*, i64*)

declare i64 @_ZN8vfun_argIdNSt3__17complexIdEEE7iterateILN3wrt13runtime_flagsE1ELS6_0EL15increment_class0EEExPdPKS2_RKxPSB_(double*, %"class.std::__1::complex"*, i64*, i64*)

declare i64 @_ZN8vfun_argIdNSt3__17complexIdEEE7iterateILN3wrt13runtime_flagsE0ELS6_0EL15increment_class1EEExPdPKS2_RKxPSB_(double*, %"class.std::__1::complex"*, i64*, i64*)

declare i64 @_ZN8vfun_argIdNSt3__17complexIdEEE7iterateILN3wrt13runtime_flagsE0ELS6_0EL15increment_class0EEExPdPKS2_RKxPSB_(double*, %"class.std::__1::complex"*, i64*, i64*)

declare i64 @_ZN8vfun_argIxdE7iterateILN3wrt13runtime_flagsE0ELS3_1EL15increment_class1EEExPxPKdRKxPS8_(i64*, double*, i64*, i64*)

declare i64 @_ZN8vfun_argIxdE7iterateILN3wrt13runtime_flagsE0ELS3_1EL15increment_class0EEExPxPKdRKxPS8_(i64*, double*, i64*, i64*)

declare i64 @_ZN8vfun_argIxdE7iterateILN3wrt13runtime_flagsE0ELS3_0EL15increment_class1EEExPxPKdRKxPS8_(i64*, double*, i64*, i64*)

declare i64 @_ZN8vfun_argIxdE7iterateILN3wrt13runtime_flagsE0ELS3_0EL15increment_class0EEExPxPKdRKxPS8_(i64*, double*, i64*, i64*)

declare i64 @_ZN8vfun_argIxxE7iterateILN3wrt13runtime_flagsE0ELS3_1EL15increment_class1EEExPxPKxRS6_S7_(i64*, i64*, i64*, i64*)

declare i64 @_ZN8vfun_argIxxE7iterateILN3wrt13runtime_flagsE0ELS3_1EL15increment_class0EEExPxPKxRS6_S7_(i64*, i64*, i64*, i64*)

declare i64 @_ZN8vfun_argIxxE7iterateILN3wrt13runtime_flagsE0ELS3_0EL15increment_class1EEExPxPKxRS6_S7_(i64*, i64*, i64*, i64*)

declare i64 @_ZN8vfun_argIxxE7iterateILN3wrt13runtime_flagsE0ELS3_0EL15increment_class0EEExPxPKxRS6_S7_(i64*, i64*, i64*, i64*)

declare i64 @_ZN8vfun_absIdNSt3__17complexIdEEE7iterateILN3wrt13runtime_flagsE1ELS6_0EL15increment_class1EEExPdPKS2_RKxPSB_(double*, %"class.std::__1::complex"*, i64*, i64*)

declare i64 @_ZN8vfun_absIdNSt3__17complexIdEEE7iterateILN3wrt13runtime_flagsE1ELS6_0EL15increment_class0EEExPdPKS2_RKxPSB_(double*, %"class.std::__1::complex"*, i64*, i64*)

declare i64 @_ZN8vfun_absIdNSt3__17complexIdEEE7iterateILN3wrt13runtime_flagsE0ELS6_0EL15increment_class1EEExPdPKS2_RKxPSB_(double*, %"class.std::__1::complex"*, i64*, i64*)

declare i64 @_ZN8vfun_absIdNSt3__17complexIdEEE7iterateILN3wrt13runtime_flagsE0ELS6_0EL15increment_class0EEExPdPKS2_RKxPSB_(double*, %"class.std::__1::complex"*, i64*, i64*)

declare void @vzAbs(i64, %"class.std::__1::complex"*, double*)

declare i64 @_ZN8vfun_absIddE7iterateILN3wrt13runtime_flagsE1ELS3_0EL15increment_class1EEExPdPKdRKxPS8_(double*, double*, i64*, i64*)

declare i64 @_ZN8vfun_absIddE7iterateILN3wrt13runtime_flagsE1ELS3_0EL15increment_class0EEExPdPKdRKxPS8_(double*, double*, i64*, i64*)

declare i64 @_ZN8vfun_absIddE7iterateILN3wrt13runtime_flagsE0ELS3_1EL15increment_class1EEExPdPKdRKxPS8_(double*, double*, i64*, i64*)

declare i64 @_ZN8vfun_absIddE7iterateILN3wrt13runtime_flagsE0ELS3_1EL15increment_class0EEExPdPKdRKxPS8_(double*, double*, i64*, i64*)

declare i64 @_ZN8vfun_absIddE7iterateILN3wrt13runtime_flagsE0ELS3_0EL15increment_class1EEExPdPKdRKxPS8_(double*, double*, i64*, i64*)

declare i64 @_ZN8vfun_absIddE7iterateILN3wrt13runtime_flagsE0ELS3_0EL15increment_class0EEExPdPKdRKxPS8_(double*, double*, i64*, i64*)

declare void @vdAbs(i64, double*, double*)

declare i64 @_ZN8vfun_absIxxE7iterateILN3wrt13runtime_flagsE0ELS3_1EL15increment_class1EEExPxPKxRS6_S7_(i64*, i64*, i64*, i64*)

declare i64 @_ZN8vfun_absIxxE7iterateILN3wrt13runtime_flagsE0ELS3_1EL15increment_class0EEExPxPKxRS6_S7_(i64*, i64*, i64*, i64*)

declare i64 @_ZN8vfun_absIxxE7iterateILN3wrt13runtime_flagsE0ELS3_0EL15increment_class1EEExPxPKxRS6_S7_(i64*, i64*, i64*, i64*)

declare i64 @_ZN8vfun_absIxxE7iterateILN3wrt13runtime_flagsE0ELS3_0EL15increment_class0EEExPxPKxRS6_S7_(i64*, i64*, i64*, i64*)

declare i64 @_ZN10vfun_log10INSt3__17complexIdEES2_E7iterateILN3wrt13runtime_flagsE1ELS6_0EL15increment_class1EEExPS2_PKS2_RKxPSB_(%"class.std::__1::complex"*, %"class.std::__1::complex"*, i64*, i64*)

declare i64 @_ZN10vfun_log10INSt3__17complexIdEES2_E7iterateILN3wrt13runtime_flagsE1ELS6_0EL15increment_class0EEExPS2_PKS2_RKxPSB_(%"class.std::__1::complex"*, %"class.std::__1::complex"*, i64*, i64*)

declare i64 @_ZN10vfun_log10INSt3__17complexIdEES2_E7iterateILN3wrt13runtime_flagsE0ELS6_1EL15increment_class1EEExPS2_PKS2_RKxPSB_(%"class.std::__1::complex"*, %"class.std::__1::complex"*, i64*, i64*)

declare i64 @_ZN10vfun_log10INSt3__17complexIdEES2_E7iterateILN3wrt13runtime_flagsE0ELS6_1EL15increment_class0EEExPS2_PKS2_RKxPSB_(%"class.std::__1::complex"*, %"class.std::__1::complex"*, i64*, i64*)

declare i64 @_ZN10vfun_log10INSt3__17complexIdEES2_E7iterateILN3wrt13runtime_flagsE0ELS6_0EL15increment_class1EEExPS2_PKS2_RKxPSB_(%"class.std::__1::complex"*, %"class.std::__1::complex"*, i64*, i64*)

declare i64 @_ZN10vfun_log10INSt3__17complexIdEES2_E7iterateILN3wrt13runtime_flagsE0ELS6_0EL15increment_class0EEExPS2_PKS2_RKxPSB_(%"class.std::__1::complex"*, %"class.std::__1::complex"*, i64*, i64*)

; Function Attrs: nounwind readnone speculatable
declare double @llvm.log10.f64(double) #0

declare void @vzLog10(i64, %"class.std::__1::complex"*, %"class.std::__1::complex"*)

declare i64 @_ZN10vfun_log10IddE7iterateILN3wrt13runtime_flagsE1ELS3_0EL15increment_class1EEExPdPKdRKxPS8_(double*, double*, i64*, i64*)

declare i64 @_ZN10vfun_log10IddE7iterateILN3wrt13runtime_flagsE1ELS3_0EL15increment_class0EEExPdPKdRKxPS8_(double*, double*, i64*, i64*)

declare i64 @_ZN10vfun_log10IddE7iterateILN3wrt13runtime_flagsE0ELS3_1EL15increment_class1EEExPdPKdRKxPS8_(double*, double*, i64*, i64*)

declare i64 @_ZN10vfun_log10IddE7iterateILN3wrt13runtime_flagsE0ELS3_1EL15increment_class0EEExPdPKdRKxPS8_(double*, double*, i64*, i64*)

declare i64 @_ZN10vfun_log10IddE7iterateILN3wrt13runtime_flagsE0ELS3_0EL15increment_class1EEExPdPKdRKxPS8_(double*, double*, i64*, i64*)

declare i64 @_ZN10vfun_log10IddE7iterateILN3wrt13runtime_flagsE0ELS3_0EL15increment_class0EEExPdPKdRKxPS8_(double*, double*, i64*, i64*)

declare void @vdLog10(i64, double*, double*)

declare i64 @_ZN10vfun_log10IxxE7iterateILN3wrt13runtime_flagsE0ELS3_1EL15increment_class1EEExPxPKxRS6_S7_(i64*, i64*, i64*, i64*)

declare i64 @_ZN10vfun_log10IxxE7iterateILN3wrt13runtime_flagsE0ELS3_1EL15increment_class0EEExPxPKxRS6_S7_(i64*, i64*, i64*, i64*)

declare i64 @_ZN10vfun_log10IxxE7iterateILN3wrt13runtime_flagsE0ELS3_0EL15increment_class1EEExPxPKxRS6_S7_(i64*, i64*, i64*, i64*)

declare i64 @_ZN10vfun_log10IxxE7iterateILN3wrt13runtime_flagsE0ELS3_0EL15increment_class0EEExPxPKxRS6_S7_(i64*, i64*, i64*, i64*)

declare { i64, i64 } @lldiv(i64, i64)

declare i64 @_ZN9vfun_log2INSt3__17complexIdEES2_E7iterateILN3wrt13runtime_flagsE1ELS6_0EL15increment_class1EEExPS2_PKS2_RKxPSB_(%"class.std::__1::complex"*, %"class.std::__1::complex"*, i64*, i64*)

declare i64 @_ZN9vfun_log2INSt3__17complexIdEES2_E7iterateILN3wrt13runtime_flagsE1ELS6_0EL15increment_class0EEExPS2_PKS2_RKxPSB_(%"class.std::__1::complex"*, %"class.std::__1::complex"*, i64*, i64*)

declare i64 @_ZN9vfun_log2INSt3__17complexIdEES2_E7iterateILN3wrt13runtime_flagsE0ELS6_1EL15increment_class1EEExPS2_PKS2_RKxPSB_(%"class.std::__1::complex"*, %"class.std::__1::complex"*, i64*, i64*)

declare i64 @_ZN9vfun_log2INSt3__17complexIdEES2_E7iterateILN3wrt13runtime_flagsE0ELS6_1EL15increment_class0EEExPS2_PKS2_RKxPSB_(%"class.std::__1::complex"*, %"class.std::__1::complex"*, i64*, i64*)

declare i64 @_ZN9vfun_log2INSt3__17complexIdEES2_E7iterateILN3wrt13runtime_flagsE0ELS6_0EL15increment_class1EEExPS2_PKS2_RKxPSB_(%"class.std::__1::complex"*, %"class.std::__1::complex"*, i64*, i64*)

declare i64 @_ZN9vfun_log2INSt3__17complexIdEES2_E7iterateILN3wrt13runtime_flagsE0ELS6_0EL15increment_class0EEExPS2_PKS2_RKxPSB_(%"class.std::__1::complex"*, %"class.std::__1::complex"*, i64*, i64*)

; Function Attrs: nounwind readnone speculatable
declare double @llvm.log2.f64(double) #0

declare i64 @_ZN9vfun_log2IddE7iterateILN3wrt13runtime_flagsE1ELS3_0EL15increment_class1EEExPdPKdRKxPS8_(double*, double*, i64*, i64*)

declare i64 @_ZN9vfun_log2IddE7iterateILN3wrt13runtime_flagsE1ELS3_0EL15increment_class0EEExPdPKdRKxPS8_(double*, double*, i64*, i64*)

declare i64 @_ZN9vfun_log2IddE7iterateILN3wrt13runtime_flagsE0ELS3_1EL15increment_class1EEExPdPKdRKxPS8_(double*, double*, i64*, i64*)

declare i64 @_ZN9vfun_log2IddE7iterateILN3wrt13runtime_flagsE0ELS3_1EL15increment_class0EEExPdPKdRKxPS8_(double*, double*, i64*, i64*)

declare i64 @_ZN9vfun_log2IddE7iterateILN3wrt13runtime_flagsE0ELS3_0EL15increment_class1EEExPdPKdRKxPS8_(double*, double*, i64*, i64*)

declare i64 @_ZN9vfun_log2IddE7iterateILN3wrt13runtime_flagsE0ELS3_0EL15increment_class0EEExPdPKdRKxPS8_(double*, double*, i64*, i64*)

declare i64 @_ZN9vfun_log2IxxE7iterateILN3wrt13runtime_flagsE0ELS3_1EL15increment_class1EEExPxPKxRS6_S7_(i64*, i64*, i64*, i64*)

declare i64 @_ZN9vfun_log2IxxE7iterateILN3wrt13runtime_flagsE0ELS3_1EL15increment_class0EEExPxPKxRS6_S7_(i64*, i64*, i64*, i64*)

declare i64 @_ZN9vfun_log2IxxE7iterateILN3wrt13runtime_flagsE0ELS3_0EL15increment_class1EEExPxPKxRS6_S7_(i64*, i64*, i64*, i64*)

declare i64 @_ZN9vfun_log2IxxE7iterateILN3wrt13runtime_flagsE0ELS3_0EL15increment_class0EEExPxPKxRS6_S7_(i64*, i64*, i64*, i64*)

declare i64 @_ZN10vfun_log1pINSt3__17complexIdEES2_E7iterateILN3wrt13runtime_flagsE1ELS6_0EL15increment_class1EEExPS2_PKS2_RKxPSB_(%"class.std::__1::complex"*, %"class.std::__1::complex"*, i64*, i64*)

declare i64 @_ZN10vfun_log1pINSt3__17complexIdEES2_E7iterateILN3wrt13runtime_flagsE1ELS6_0EL15increment_class0EEExPS2_PKS2_RKxPSB_(%"class.std::__1::complex"*, %"class.std::__1::complex"*, i64*, i64*)

declare i64 @_ZN10vfun_log1pINSt3__17complexIdEES2_E7iterateILN3wrt13runtime_flagsE0ELS6_1EL15increment_class1EEExPS2_PKS2_RKxPSB_(%"class.std::__1::complex"*, %"class.std::__1::complex"*, i64*, i64*)

declare i64 @_ZN10vfun_log1pINSt3__17complexIdEES2_E7iterateILN3wrt13runtime_flagsE0ELS6_1EL15increment_class0EEExPS2_PKS2_RKxPSB_(%"class.std::__1::complex"*, %"class.std::__1::complex"*, i64*, i64*)

declare i64 @_ZN10vfun_log1pINSt3__17complexIdEES2_E7iterateILN3wrt13runtime_flagsE0ELS6_0EL15increment_class1EEExPS2_PKS2_RKxPSB_(%"class.std::__1::complex"*, %"class.std::__1::complex"*, i64*, i64*)

declare i64 @_ZN10vfun_log1pINSt3__17complexIdEES2_E7iterateILN3wrt13runtime_flagsE0ELS6_0EL15increment_class0EEExPS2_PKS2_RKxPSB_(%"class.std::__1::complex"*, %"class.std::__1::complex"*, i64*, i64*)

declare { double, double } @_ZN3wrt9scalar_op5unaryL8log1p_opINSt3__17complexIdEELNS_13runtime_flagsE1EEENS3_9enable_ifIXsr10is_complexIT_EE5valueENS1_6detail7op_infoILNS9_2opE47EN7rt_typeIS8_E4typeEE11result_typeEE4typeERKNSF_13argument_typeE(double, double)

declare i64 @_ZN10vfun_log1pIddE7iterateILN3wrt13runtime_flagsE1ELS3_0EL15increment_class1EEExPdPKdRKxPS8_(double*, double*, i64*, i64*)

declare i64 @_ZN10vfun_log1pIddE7iterateILN3wrt13runtime_flagsE1ELS3_0EL15increment_class0EEExPdPKdRKxPS8_(double*, double*, i64*, i64*)

declare i64 @_ZN10vfun_log1pIddE7iterateILN3wrt13runtime_flagsE0ELS3_1EL15increment_class1EEExPdPKdRKxPS8_(double*, double*, i64*, i64*)

declare i64 @_ZN10vfun_log1pIddE7iterateILN3wrt13runtime_flagsE0ELS3_1EL15increment_class0EEExPdPKdRKxPS8_(double*, double*, i64*, i64*)

declare i64 @_ZN10vfun_log1pIddE7iterateILN3wrt13runtime_flagsE0ELS3_0EL15increment_class1EEExPdPKdRKxPS8_(double*, double*, i64*, i64*)

declare i64 @_ZN10vfun_log1pIddE7iterateILN3wrt13runtime_flagsE0ELS3_0EL15increment_class0EEExPdPKdRKxPS8_(double*, double*, i64*, i64*)

declare void @vdLog1p(i64, double*, double*)

declare i64 @_ZN8vfun_logINSt3__17complexIdEES2_E7iterateILN3wrt13runtime_flagsE1ELS6_0EL15increment_class1EEExPS2_PKS2_RKxPSB_(%"class.std::__1::complex"*, %"class.std::__1::complex"*, i64*, i64*)

declare i64 @_ZN8vfun_logINSt3__17complexIdEES2_E7iterateILN3wrt13runtime_flagsE1ELS6_0EL15increment_class0EEExPS2_PKS2_RKxPSB_(%"class.std::__1::complex"*, %"class.std::__1::complex"*, i64*, i64*)

declare i64 @_ZN8vfun_logINSt3__17complexIdEES2_E7iterateILN3wrt13runtime_flagsE0ELS6_1EL15increment_class1EEExPS2_PKS2_RKxPSB_(%"class.std::__1::complex"*, %"class.std::__1::complex"*, i64*, i64*)

declare i64 @_ZN8vfun_logINSt3__17complexIdEES2_E7iterateILN3wrt13runtime_flagsE0ELS6_1EL15increment_class0EEExPS2_PKS2_RKxPSB_(%"class.std::__1::complex"*, %"class.std::__1::complex"*, i64*, i64*)

declare i64 @_ZN8vfun_logINSt3__17complexIdEES2_E7iterateILN3wrt13runtime_flagsE0ELS6_0EL15increment_class1EEExPS2_PKS2_RKxPSB_(%"class.std::__1::complex"*, %"class.std::__1::complex"*, i64*, i64*)

declare i64 @_ZN8vfun_logINSt3__17complexIdEES2_E7iterateILN3wrt13runtime_flagsE0ELS6_0EL15increment_class0EEExPS2_PKS2_RKxPSB_(%"class.std::__1::complex"*, %"class.std::__1::complex"*, i64*, i64*)

declare void @vzLn(i64, %"class.std::__1::complex"*, %"class.std::__1::complex"*)

declare i64 @_ZN8vfun_logIddE7iterateILN3wrt13runtime_flagsE1ELS3_0EL15increment_class1EEExPdPKdRKxPS8_(double*, double*, i64*, i64*)

declare i64 @_ZN8vfun_logIddE7iterateILN3wrt13runtime_flagsE1ELS3_0EL15increment_class0EEExPdPKdRKxPS8_(double*, double*, i64*, i64*)

declare i64 @_ZN8vfun_logIddE7iterateILN3wrt13runtime_flagsE0ELS3_1EL15increment_class1EEExPdPKdRKxPS8_(double*, double*, i64*, i64*)

declare i64 @_ZN8vfun_logIddE7iterateILN3wrt13runtime_flagsE0ELS3_1EL15increment_class0EEExPdPKdRKxPS8_(double*, double*, i64*, i64*)

declare i64 @_ZN8vfun_logIddE7iterateILN3wrt13runtime_flagsE0ELS3_0EL15increment_class1EEExPdPKdRKxPS8_(double*, double*, i64*, i64*)

declare i64 @_ZN8vfun_logIddE7iterateILN3wrt13runtime_flagsE0ELS3_0EL15increment_class0EEExPdPKdRKxPS8_(double*, double*, i64*, i64*)

declare void @vdLn(i64, double*, double*)

declare i64 @_ZN10vfun_expm1INSt3__17complexIdEES2_E7iterateILN3wrt13runtime_flagsE1ELS6_0EL15increment_class1EEExPS2_PKS2_RKxPSB_(%"class.std::__1::complex"*, %"class.std::__1::complex"*, i64*, i64*)

declare i64 @_ZN10vfun_expm1INSt3__17complexIdEES2_E7iterateILN3wrt13runtime_flagsE1ELS6_0EL15increment_class0EEExPS2_PKS2_RKxPSB_(%"class.std::__1::complex"*, %"class.std::__1::complex"*, i64*, i64*)

declare i64 @_ZN10vfun_expm1INSt3__17complexIdEES2_E7iterateILN3wrt13runtime_flagsE0ELS6_1EL15increment_class1EEExPS2_PKS2_RKxPSB_(%"class.std::__1::complex"*, %"class.std::__1::complex"*, i64*, i64*)

declare i64 @_ZN10vfun_expm1INSt3__17complexIdEES2_E7iterateILN3wrt13runtime_flagsE0ELS6_1EL15increment_class0EEExPS2_PKS2_RKxPSB_(%"class.std::__1::complex"*, %"class.std::__1::complex"*, i64*, i64*)

declare i64 @_ZN10vfun_expm1INSt3__17complexIdEES2_E7iterateILN3wrt13runtime_flagsE0ELS6_0EL15increment_class1EEExPS2_PKS2_RKxPSB_(%"class.std::__1::complex"*, %"class.std::__1::complex"*, i64*, i64*)

declare i64 @_ZN10vfun_expm1INSt3__17complexIdEES2_E7iterateILN3wrt13runtime_flagsE0ELS6_0EL15increment_class0EEExPS2_PKS2_RKxPSB_(%"class.std::__1::complex"*, %"class.std::__1::complex"*, i64*, i64*)

declare double @expm1(double)

declare { double, double } @_ZN3wrt9scalar_op5unaryL8expm1_opINSt3__17complexIdEELNS_13runtime_flagsE1EEENS3_9enable_ifIXsr10is_complexIT_EE5valueENS1_6detail7op_infoILNS9_2opE33EN7rt_typeIS8_E4typeEE11result_typeEE4typeERKNSF_13argument_typeE(double, double)

declare i64 @_ZN10vfun_expm1IddE7iterateILN3wrt13runtime_flagsE1ELS3_0EL15increment_class1EEExPdPKdRKxPS8_(double*, double*, i64*, i64*)

declare i64 @_ZN10vfun_expm1IddE7iterateILN3wrt13runtime_flagsE1ELS3_0EL15increment_class0EEExPdPKdRKxPS8_(double*, double*, i64*, i64*)

declare i64 @_ZN10vfun_expm1IddE7iterateILN3wrt13runtime_flagsE0ELS3_1EL15increment_class1EEExPdPKdRKxPS8_(double*, double*, i64*, i64*)

declare i64 @_ZN10vfun_expm1IddE7iterateILN3wrt13runtime_flagsE0ELS3_1EL15increment_class0EEExPdPKdRKxPS8_(double*, double*, i64*, i64*)

declare i64 @_ZN10vfun_expm1IddE7iterateILN3wrt13runtime_flagsE0ELS3_0EL15increment_class1EEExPdPKdRKxPS8_(double*, double*, i64*, i64*)

declare i64 @_ZN10vfun_expm1IddE7iterateILN3wrt13runtime_flagsE0ELS3_0EL15increment_class0EEExPdPKdRKxPS8_(double*, double*, i64*, i64*)

declare void @vdExpm1(i64, double*, double*)

declare i64 @_ZN8vfun_expINSt3__17complexIdEES2_E7iterateILN3wrt13runtime_flagsE1ELS6_0EL15increment_class1EEExPS2_PKS2_RKxPSB_(%"class.std::__1::complex"*, %"class.std::__1::complex"*, i64*, i64*)

declare i64 @_ZN8vfun_expINSt3__17complexIdEES2_E7iterateILN3wrt13runtime_flagsE1ELS6_0EL15increment_class0EEExPS2_PKS2_RKxPSB_(%"class.std::__1::complex"*, %"class.std::__1::complex"*, i64*, i64*)

declare i64 @_ZN8vfun_expINSt3__17complexIdEES2_E7iterateILN3wrt13runtime_flagsE0ELS6_1EL15increment_class1EEExPS2_PKS2_RKxPSB_(%"class.std::__1::complex"*, %"class.std::__1::complex"*, i64*, i64*)

declare i64 @_ZN8vfun_expINSt3__17complexIdEES2_E7iterateILN3wrt13runtime_flagsE0ELS6_1EL15increment_class0EEExPS2_PKS2_RKxPSB_(%"class.std::__1::complex"*, %"class.std::__1::complex"*, i64*, i64*)

declare i64 @_ZN8vfun_expINSt3__17complexIdEES2_E7iterateILN3wrt13runtime_flagsE0ELS6_0EL15increment_class1EEExPS2_PKS2_RKxPSB_(%"class.std::__1::complex"*, %"class.std::__1::complex"*, i64*, i64*)

declare i64 @_ZN8vfun_expINSt3__17complexIdEES2_E7iterateILN3wrt13runtime_flagsE0ELS6_0EL15increment_class0EEExPS2_PKS2_RKxPSB_(%"class.std::__1::complex"*, %"class.std::__1::complex"*, i64*, i64*)

declare void @vzExp(i64, %"class.std::__1::complex"*, %"class.std::__1::complex"*)

declare i64 @_ZN8vfun_expIddE7iterateILN3wrt13runtime_flagsE1ELS3_0EL15increment_class1EEExPdPKdRKxPS8_(double*, double*, i64*, i64*)

declare i64 @_ZN8vfun_expIddE7iterateILN3wrt13runtime_flagsE1ELS3_0EL15increment_class0EEExPdPKdRKxPS8_(double*, double*, i64*, i64*)

declare i64 @_ZN8vfun_expIddE7iterateILN3wrt13runtime_flagsE0ELS3_1EL15increment_class1EEExPdPKdRKxPS8_(double*, double*, i64*, i64*)

declare i64 @_ZN8vfun_expIddE7iterateILN3wrt13runtime_flagsE0ELS3_1EL15increment_class0EEExPdPKdRKxPS8_(double*, double*, i64*, i64*)

declare i64 @_ZN8vfun_expIddE7iterateILN3wrt13runtime_flagsE0ELS3_0EL15increment_class1EEExPdPKdRKxPS8_(double*, double*, i64*, i64*)

declare i64 @_ZN8vfun_expIddE7iterateILN3wrt13runtime_flagsE0ELS3_0EL15increment_class0EEExPdPKdRKxPS8_(double*, double*, i64*, i64*)

declare void @vdExp(i64, double*, double*)

declare i64 @_ZN10vfun_acothINSt3__17complexIdEES2_E7iterateILN3wrt13runtime_flagsE1ELS6_0EL15increment_class1EEExPS2_PKS2_RKxPSB_(%"class.std::__1::complex"*, %"class.std::__1::complex"*, i64*, i64*)

declare i64 @_ZN10vfun_acothINSt3__17complexIdEES2_E7iterateILN3wrt13runtime_flagsE1ELS6_0EL15increment_class0EEExPS2_PKS2_RKxPSB_(%"class.std::__1::complex"*, %"class.std::__1::complex"*, i64*, i64*)

declare i64 @_ZN10vfun_acothINSt3__17complexIdEES2_E7iterateILN3wrt13runtime_flagsE0ELS6_1EL15increment_class1EEExPS2_PKS2_RKxPSB_(%"class.std::__1::complex"*, %"class.std::__1::complex"*, i64*, i64*)

declare i64 @_ZN10vfun_acothINSt3__17complexIdEES2_E7iterateILN3wrt13runtime_flagsE0ELS6_1EL15increment_class0EEExPS2_PKS2_RKxPSB_(%"class.std::__1::complex"*, %"class.std::__1::complex"*, i64*, i64*)

declare i64 @_ZN10vfun_acothINSt3__17complexIdEES2_E7iterateILN3wrt13runtime_flagsE0ELS6_0EL15increment_class1EEExPS2_PKS2_RKxPSB_(%"class.std::__1::complex"*, %"class.std::__1::complex"*, i64*, i64*)

declare i64 @_ZN10vfun_acothINSt3__17complexIdEES2_E7iterateILN3wrt13runtime_flagsE0ELS6_0EL15increment_class0EEExPS2_PKS2_RKxPSB_(%"class.std::__1::complex"*, %"class.std::__1::complex"*, i64*, i64*)

declare { double, double } @_ZN3wrt9scalar_op5unaryL8acoth_opINSt3__17complexIdEELNS_13runtime_flagsE1EEENS3_9enable_ifIXsr10is_complexIT_EE5valueENS1_6detail7op_infoILNS9_2opE6EN7rt_typeIS8_E4typeEE11result_typeEE4typeERKNSF_13argument_typeE(%"class.std::__1::complex"*)

declare i64 @_ZN10vfun_acothIddE7iterateILN3wrt13runtime_flagsE1ELS3_0EL15increment_class1EEExPdPKdRKxPS8_(double*, double*, i64*, i64*)

declare i64 @_ZN10vfun_acothIddE7iterateILN3wrt13runtime_flagsE1ELS3_0EL15increment_class0EEExPdPKdRKxPS8_(double*, double*, i64*, i64*)

declare i64 @_ZN10vfun_acothIddE7iterateILN3wrt13runtime_flagsE0ELS3_1EL15increment_class1EEExPdPKdRKxPS8_(double*, double*, i64*, i64*)

declare i64 @_ZN10vfun_acothIddE7iterateILN3wrt13runtime_flagsE0ELS3_1EL15increment_class0EEExPdPKdRKxPS8_(double*, double*, i64*, i64*)

declare i64 @_ZN10vfun_acothIddE7iterateILN3wrt13runtime_flagsE0ELS3_0EL15increment_class1EEExPdPKdRKxPS8_(double*, double*, i64*, i64*)

declare i64 @_ZN10vfun_acothIddE7iterateILN3wrt13runtime_flagsE0ELS3_0EL15increment_class0EEExPdPKdRKxPS8_(double*, double*, i64*, i64*)

declare i64 @_ZN10vfun_asechINSt3__17complexIdEES2_E7iterateILN3wrt13runtime_flagsE1ELS6_0EL15increment_class1EEExPS2_PKS2_RKxPSB_(%"class.std::__1::complex"*, %"class.std::__1::complex"*, i64*, i64*)

declare i64 @_ZN10vfun_asechINSt3__17complexIdEES2_E7iterateILN3wrt13runtime_flagsE1ELS6_0EL15increment_class0EEExPS2_PKS2_RKxPSB_(%"class.std::__1::complex"*, %"class.std::__1::complex"*, i64*, i64*)

declare i64 @_ZN10vfun_asechINSt3__17complexIdEES2_E7iterateILN3wrt13runtime_flagsE0ELS6_1EL15increment_class1EEExPS2_PKS2_RKxPSB_(%"class.std::__1::complex"*, %"class.std::__1::complex"*, i64*, i64*)

declare i64 @_ZN10vfun_asechINSt3__17complexIdEES2_E7iterateILN3wrt13runtime_flagsE0ELS6_1EL15increment_class0EEExPS2_PKS2_RKxPSB_(%"class.std::__1::complex"*, %"class.std::__1::complex"*, i64*, i64*)

declare i64 @_ZN10vfun_asechINSt3__17complexIdEES2_E7iterateILN3wrt13runtime_flagsE0ELS6_0EL15increment_class1EEExPS2_PKS2_RKxPSB_(%"class.std::__1::complex"*, %"class.std::__1::complex"*, i64*, i64*)

declare i64 @_ZN10vfun_asechINSt3__17complexIdEES2_E7iterateILN3wrt13runtime_flagsE0ELS6_0EL15increment_class0EEExPS2_PKS2_RKxPSB_(%"class.std::__1::complex"*, %"class.std::__1::complex"*, i64*, i64*)

declare { double, double } @_ZN3wrt9scalar_op5unaryL8acosh_opINSt3__17complexIdEELNS_13runtime_flagsE0EEENS3_9enable_ifIXsr10is_complexIT_EE5valueENS1_6detail7op_infoILNS9_2opE4EN7rt_typeIS8_E4typeEE11result_typeEE4typeERKNSF_13argument_typeE(%"class.std::__1::complex"*)

declare { double, double } @_ZN3wrt9scalar_op5unaryL8asech_opINSt3__17complexIdEELNS_13runtime_flagsE1EEENS3_9enable_ifIXsr10is_complexIT_EE5valueENS1_6detail7op_infoILNS9_2opE11EN7rt_typeIS8_E4typeEE11result_typeEE4typeERKNSF_13argument_typeE(%"class.std::__1::complex"*)

declare i64 @_ZN10vfun_asechIddE7iterateILN3wrt13runtime_flagsE1ELS3_0EL15increment_class1EEExPdPKdRKxPS8_(double*, double*, i64*, i64*)

declare i64 @_ZN10vfun_asechIddE7iterateILN3wrt13runtime_flagsE1ELS3_0EL15increment_class0EEExPdPKdRKxPS8_(double*, double*, i64*, i64*)

declare i64 @_ZN10vfun_asechIddE7iterateILN3wrt13runtime_flagsE0ELS3_1EL15increment_class1EEExPdPKdRKxPS8_(double*, double*, i64*, i64*)

declare i64 @_ZN10vfun_asechIddE7iterateILN3wrt13runtime_flagsE0ELS3_1EL15increment_class0EEExPdPKdRKxPS8_(double*, double*, i64*, i64*)

declare i64 @_ZN10vfun_asechIddE7iterateILN3wrt13runtime_flagsE0ELS3_0EL15increment_class1EEExPdPKdRKxPS8_(double*, double*, i64*, i64*)

declare i64 @_ZN10vfun_asechIddE7iterateILN3wrt13runtime_flagsE0ELS3_0EL15increment_class0EEExPdPKdRKxPS8_(double*, double*, i64*, i64*)

declare double @acosh(double)

declare i64 @_ZN10vfun_acschINSt3__17complexIdEES2_E7iterateILN3wrt13runtime_flagsE1ELS6_0EL15increment_class1EEExPS2_PKS2_RKxPSB_(%"class.std::__1::complex"*, %"class.std::__1::complex"*, i64*, i64*)

declare i64 @_ZN10vfun_acschINSt3__17complexIdEES2_E7iterateILN3wrt13runtime_flagsE1ELS6_0EL15increment_class0EEExPS2_PKS2_RKxPSB_(%"class.std::__1::complex"*, %"class.std::__1::complex"*, i64*, i64*)

declare i64 @_ZN10vfun_acschINSt3__17complexIdEES2_E7iterateILN3wrt13runtime_flagsE0ELS6_1EL15increment_class1EEExPS2_PKS2_RKxPSB_(%"class.std::__1::complex"*, %"class.std::__1::complex"*, i64*, i64*)

declare i64 @_ZN10vfun_acschINSt3__17complexIdEES2_E7iterateILN3wrt13runtime_flagsE0ELS6_1EL15increment_class0EEExPS2_PKS2_RKxPSB_(%"class.std::__1::complex"*, %"class.std::__1::complex"*, i64*, i64*)

declare i64 @_ZN10vfun_acschINSt3__17complexIdEES2_E7iterateILN3wrt13runtime_flagsE0ELS6_0EL15increment_class1EEExPS2_PKS2_RKxPSB_(%"class.std::__1::complex"*, %"class.std::__1::complex"*, i64*, i64*)

declare i64 @_ZN10vfun_acschINSt3__17complexIdEES2_E7iterateILN3wrt13runtime_flagsE0ELS6_0EL15increment_class0EEExPS2_PKS2_RKxPSB_(%"class.std::__1::complex"*, %"class.std::__1::complex"*, i64*, i64*)

declare { double, double } @_ZN3wrt9scalar_op5unaryL8acsch_opINSt3__17complexIdEELNS_13runtime_flagsE1EEENS3_9enable_ifIXsr28is_floating_point_or_complexIT_EE5valueENS1_6detail7op_infoILNS9_2opE8EN7rt_typeIS8_E4typeEE11result_typeEE4typeERKNSF_13argument_typeE(%"class.std::__1::complex"*)

declare i64 @_ZN10vfun_acschIddE7iterateILN3wrt13runtime_flagsE1ELS3_0EL15increment_class1EEExPdPKdRKxPS8_(double*, double*, i64*, i64*)

declare i64 @_ZN10vfun_acschIddE7iterateILN3wrt13runtime_flagsE1ELS3_0EL15increment_class0EEExPdPKdRKxPS8_(double*, double*, i64*, i64*)

declare i64 @_ZN10vfun_acschIddE7iterateILN3wrt13runtime_flagsE0ELS3_1EL15increment_class1EEExPdPKdRKxPS8_(double*, double*, i64*, i64*)

declare i64 @_ZN10vfun_acschIddE7iterateILN3wrt13runtime_flagsE0ELS3_1EL15increment_class0EEExPdPKdRKxPS8_(double*, double*, i64*, i64*)

declare i64 @_ZN10vfun_acschIddE7iterateILN3wrt13runtime_flagsE0ELS3_0EL15increment_class1EEExPdPKdRKxPS8_(double*, double*, i64*, i64*)

declare i64 @_ZN10vfun_acschIddE7iterateILN3wrt13runtime_flagsE0ELS3_0EL15increment_class0EEExPdPKdRKxPS8_(double*, double*, i64*, i64*)

declare double @asinh(double)

declare i64 @_ZN10vfun_atanhINSt3__17complexIdEES2_E7iterateILN3wrt13runtime_flagsE1ELS6_0EL15increment_class1EEExPS2_PKS2_RKxPSB_(%"class.std::__1::complex"*, %"class.std::__1::complex"*, i64*, i64*)

declare i64 @_ZN10vfun_atanhINSt3__17complexIdEES2_E7iterateILN3wrt13runtime_flagsE1ELS6_0EL15increment_class0EEExPS2_PKS2_RKxPSB_(%"class.std::__1::complex"*, %"class.std::__1::complex"*, i64*, i64*)

declare i64 @_ZN10vfun_atanhINSt3__17complexIdEES2_E7iterateILN3wrt13runtime_flagsE0ELS6_1EL15increment_class1EEExPS2_PKS2_RKxPSB_(%"class.std::__1::complex"*, %"class.std::__1::complex"*, i64*, i64*)

declare i64 @_ZN10vfun_atanhINSt3__17complexIdEES2_E7iterateILN3wrt13runtime_flagsE0ELS6_1EL15increment_class0EEExPS2_PKS2_RKxPSB_(%"class.std::__1::complex"*, %"class.std::__1::complex"*, i64*, i64*)

declare i64 @_ZN10vfun_atanhINSt3__17complexIdEES2_E7iterateILN3wrt13runtime_flagsE0ELS6_0EL15increment_class1EEExPS2_PKS2_RKxPSB_(%"class.std::__1::complex"*, %"class.std::__1::complex"*, i64*, i64*)

declare i64 @_ZN10vfun_atanhINSt3__17complexIdEES2_E7iterateILN3wrt13runtime_flagsE0ELS6_0EL15increment_class0EEExPS2_PKS2_RKxPSB_(%"class.std::__1::complex"*, %"class.std::__1::complex"*, i64*, i64*)

declare { double, double } @_ZN3wrt9scalar_op5unaryL8atanh_opINSt3__17complexIdEELNS_13runtime_flagsE1EEENS3_9enable_ifIXsr10is_complexIT_EE5valueENS1_6detail7op_infoILNS9_2opE15EN7rt_typeIS8_E4typeEE11result_typeEE4typeERKNSF_13argument_typeE(%"class.std::__1::complex"*)

declare i64 @_ZN10vfun_atanhIddE7iterateILN3wrt13runtime_flagsE1ELS3_0EL15increment_class1EEExPdPKdRKxPS8_(double*, double*, i64*, i64*)

declare i64 @_ZN10vfun_atanhIddE7iterateILN3wrt13runtime_flagsE1ELS3_0EL15increment_class0EEExPdPKdRKxPS8_(double*, double*, i64*, i64*)

declare i64 @_ZN10vfun_atanhIddE7iterateILN3wrt13runtime_flagsE0ELS3_1EL15increment_class1EEExPdPKdRKxPS8_(double*, double*, i64*, i64*)

declare i64 @_ZN10vfun_atanhIddE7iterateILN3wrt13runtime_flagsE0ELS3_1EL15increment_class0EEExPdPKdRKxPS8_(double*, double*, i64*, i64*)

declare i64 @_ZN10vfun_atanhIddE7iterateILN3wrt13runtime_flagsE0ELS3_0EL15increment_class1EEExPdPKdRKxPS8_(double*, double*, i64*, i64*)

declare i64 @_ZN10vfun_atanhIddE7iterateILN3wrt13runtime_flagsE0ELS3_0EL15increment_class0EEExPdPKdRKxPS8_(double*, double*, i64*, i64*)

declare void @vdAtanh(i64, double*, double*)

declare i64 @_ZN10vfun_acoshINSt3__17complexIdEES2_E7iterateILN3wrt13runtime_flagsE1ELS6_0EL15increment_class1EEExPS2_PKS2_RKxPSB_(%"class.std::__1::complex"*, %"class.std::__1::complex"*, i64*, i64*)

declare i64 @_ZN10vfun_acoshINSt3__17complexIdEES2_E7iterateILN3wrt13runtime_flagsE1ELS6_0EL15increment_class0EEExPS2_PKS2_RKxPSB_(%"class.std::__1::complex"*, %"class.std::__1::complex"*, i64*, i64*)

declare i64 @_ZN10vfun_acoshINSt3__17complexIdEES2_E7iterateILN3wrt13runtime_flagsE0ELS6_1EL15increment_class1EEExPS2_PKS2_RKxPSB_(%"class.std::__1::complex"*, %"class.std::__1::complex"*, i64*, i64*)

declare i64 @_ZN10vfun_acoshINSt3__17complexIdEES2_E7iterateILN3wrt13runtime_flagsE0ELS6_1EL15increment_class0EEExPS2_PKS2_RKxPSB_(%"class.std::__1::complex"*, %"class.std::__1::complex"*, i64*, i64*)

declare i64 @_ZN10vfun_acoshINSt3__17complexIdEES2_E7iterateILN3wrt13runtime_flagsE0ELS6_0EL15increment_class1EEExPS2_PKS2_RKxPSB_(%"class.std::__1::complex"*, %"class.std::__1::complex"*, i64*, i64*)

declare i64 @_ZN10vfun_acoshINSt3__17complexIdEES2_E7iterateILN3wrt13runtime_flagsE0ELS6_0EL15increment_class0EEExPS2_PKS2_RKxPSB_(%"class.std::__1::complex"*, %"class.std::__1::complex"*, i64*, i64*)

declare void @vzAcosh(i64, %"class.std::__1::complex"*, %"class.std::__1::complex"*)

declare { double, double } @_ZN3wrt9scalar_op5unaryL8acosh_opINSt3__17complexIdEELNS_13runtime_flagsE1EEENS3_9enable_ifIXsr10is_complexIT_EE5valueENS1_6detail7op_infoILNS9_2opE4EN7rt_typeIS8_E4typeEE11result_typeEE4typeERKNSF_13argument_typeE(%"class.std::__1::complex"*)

declare i64 @_ZN10vfun_acoshIddE7iterateILN3wrt13runtime_flagsE1ELS3_0EL15increment_class1EEExPdPKdRKxPS8_(double*, double*, i64*, i64*)

declare i64 @_ZN10vfun_acoshIddE7iterateILN3wrt13runtime_flagsE1ELS3_0EL15increment_class0EEExPdPKdRKxPS8_(double*, double*, i64*, i64*)

declare i64 @_ZN10vfun_acoshIddE7iterateILN3wrt13runtime_flagsE0ELS3_1EL15increment_class1EEExPdPKdRKxPS8_(double*, double*, i64*, i64*)

declare i64 @_ZN10vfun_acoshIddE7iterateILN3wrt13runtime_flagsE0ELS3_1EL15increment_class0EEExPdPKdRKxPS8_(double*, double*, i64*, i64*)

declare i64 @_ZN10vfun_acoshIddE7iterateILN3wrt13runtime_flagsE0ELS3_0EL15increment_class1EEExPdPKdRKxPS8_(double*, double*, i64*, i64*)

declare i64 @_ZN10vfun_acoshIddE7iterateILN3wrt13runtime_flagsE0ELS3_0EL15increment_class0EEExPdPKdRKxPS8_(double*, double*, i64*, i64*)

declare void @vdAcosh(i64, double*, double*)

declare i64 @_ZN10vfun_asinhINSt3__17complexIdEES2_E7iterateILN3wrt13runtime_flagsE1ELS6_0EL15increment_class1EEExPS2_PKS2_RKxPSB_(%"class.std::__1::complex"*, %"class.std::__1::complex"*, i64*, i64*)

declare i64 @_ZN10vfun_asinhINSt3__17complexIdEES2_E7iterateILN3wrt13runtime_flagsE1ELS6_0EL15increment_class0EEExPS2_PKS2_RKxPSB_(%"class.std::__1::complex"*, %"class.std::__1::complex"*, i64*, i64*)

declare i64 @_ZN10vfun_asinhINSt3__17complexIdEES2_E7iterateILN3wrt13runtime_flagsE0ELS6_1EL15increment_class1EEExPS2_PKS2_RKxPSB_(%"class.std::__1::complex"*, %"class.std::__1::complex"*, i64*, i64*)

declare i64 @_ZN10vfun_asinhINSt3__17complexIdEES2_E7iterateILN3wrt13runtime_flagsE0ELS6_1EL15increment_class0EEExPS2_PKS2_RKxPSB_(%"class.std::__1::complex"*, %"class.std::__1::complex"*, i64*, i64*)

declare i64 @_ZN10vfun_asinhINSt3__17complexIdEES2_E7iterateILN3wrt13runtime_flagsE0ELS6_0EL15increment_class1EEExPS2_PKS2_RKxPSB_(%"class.std::__1::complex"*, %"class.std::__1::complex"*, i64*, i64*)

declare i64 @_ZN10vfun_asinhINSt3__17complexIdEES2_E7iterateILN3wrt13runtime_flagsE0ELS6_0EL15increment_class0EEExPS2_PKS2_RKxPSB_(%"class.std::__1::complex"*, %"class.std::__1::complex"*, i64*, i64*)

declare { double, double } @_ZN3wrt9scalar_op5unaryL8asinh_opINSt3__17complexIdEELNS_13runtime_flagsE1EEENS3_9enable_ifIXsr10is_complexIT_EE5valueENS1_6detail7op_infoILNS9_2opE13EN7rt_typeIS8_E4typeEE11result_typeEE4typeERKNSF_13argument_typeE(%"class.std::__1::complex"*)

declare i64 @_ZN10vfun_asinhIddE7iterateILN3wrt13runtime_flagsE1ELS3_0EL15increment_class1EEExPdPKdRKxPS8_(double*, double*, i64*, i64*)

declare i64 @_ZN10vfun_asinhIddE7iterateILN3wrt13runtime_flagsE1ELS3_0EL15increment_class0EEExPdPKdRKxPS8_(double*, double*, i64*, i64*)

declare i64 @_ZN10vfun_asinhIddE7iterateILN3wrt13runtime_flagsE0ELS3_1EL15increment_class1EEExPdPKdRKxPS8_(double*, double*, i64*, i64*)

declare i64 @_ZN10vfun_asinhIddE7iterateILN3wrt13runtime_flagsE0ELS3_1EL15increment_class0EEExPdPKdRKxPS8_(double*, double*, i64*, i64*)

declare i64 @_ZN10vfun_asinhIddE7iterateILN3wrt13runtime_flagsE0ELS3_0EL15increment_class1EEExPdPKdRKxPS8_(double*, double*, i64*, i64*)

declare i64 @_ZN10vfun_asinhIddE7iterateILN3wrt13runtime_flagsE0ELS3_0EL15increment_class0EEExPdPKdRKxPS8_(double*, double*, i64*, i64*)

declare void @vdAsinh(i64, double*, double*)

declare i64 @_ZN9vfun_acotINSt3__17complexIdEES2_E7iterateILN3wrt13runtime_flagsE1ELS6_0EL15increment_class1EEExPS2_PKS2_RKxPSB_(%"class.std::__1::complex"*, %"class.std::__1::complex"*, i64*, i64*)

declare i64 @_ZN9vfun_acotINSt3__17complexIdEES2_E7iterateILN3wrt13runtime_flagsE1ELS6_0EL15increment_class0EEExPS2_PKS2_RKxPSB_(%"class.std::__1::complex"*, %"class.std::__1::complex"*, i64*, i64*)

declare i64 @_ZN9vfun_acotINSt3__17complexIdEES2_E7iterateILN3wrt13runtime_flagsE0ELS6_1EL15increment_class1EEExPS2_PKS2_RKxPSB_(%"class.std::__1::complex"*, %"class.std::__1::complex"*, i64*, i64*)

declare i64 @_ZN9vfun_acotINSt3__17complexIdEES2_E7iterateILN3wrt13runtime_flagsE0ELS6_1EL15increment_class0EEExPS2_PKS2_RKxPSB_(%"class.std::__1::complex"*, %"class.std::__1::complex"*, i64*, i64*)

declare i64 @_ZN9vfun_acotINSt3__17complexIdEES2_E7iterateILN3wrt13runtime_flagsE0ELS6_0EL15increment_class1EEExPS2_PKS2_RKxPSB_(%"class.std::__1::complex"*, %"class.std::__1::complex"*, i64*, i64*)

declare i64 @_ZN9vfun_acotINSt3__17complexIdEES2_E7iterateILN3wrt13runtime_flagsE0ELS6_0EL15increment_class0EEExPS2_PKS2_RKxPSB_(%"class.std::__1::complex"*, %"class.std::__1::complex"*, i64*, i64*)

declare i64 @_ZN9vfun_acotIddE7iterateILN3wrt13runtime_flagsE1ELS3_0EL15increment_class1EEExPdPKdRKxPS8_(double*, double*, i64*, i64*)

declare i64 @_ZN9vfun_acotIddE7iterateILN3wrt13runtime_flagsE1ELS3_0EL15increment_class0EEExPdPKdRKxPS8_(double*, double*, i64*, i64*)

declare i64 @_ZN9vfun_acotIddE7iterateILN3wrt13runtime_flagsE0ELS3_1EL15increment_class1EEExPdPKdRKxPS8_(double*, double*, i64*, i64*)

declare i64 @_ZN9vfun_acotIddE7iterateILN3wrt13runtime_flagsE0ELS3_1EL15increment_class0EEExPdPKdRKxPS8_(double*, double*, i64*, i64*)

declare i64 @_ZN9vfun_acotIddE7iterateILN3wrt13runtime_flagsE0ELS3_0EL15increment_class1EEExPdPKdRKxPS8_(double*, double*, i64*, i64*)

declare i64 @_ZN9vfun_acotIddE7iterateILN3wrt13runtime_flagsE0ELS3_0EL15increment_class0EEExPdPKdRKxPS8_(double*, double*, i64*, i64*)

declare i64 @_ZN9vfun_asecINSt3__17complexIdEES2_E7iterateILN3wrt13runtime_flagsE1ELS6_0EL15increment_class1EEExPS2_PKS2_RKxPSB_(%"class.std::__1::complex"*, %"class.std::__1::complex"*, i64*, i64*)

declare i64 @_ZN9vfun_asecINSt3__17complexIdEES2_E7iterateILN3wrt13runtime_flagsE1ELS6_0EL15increment_class0EEExPS2_PKS2_RKxPSB_(%"class.std::__1::complex"*, %"class.std::__1::complex"*, i64*, i64*)

declare i64 @_ZN9vfun_asecINSt3__17complexIdEES2_E7iterateILN3wrt13runtime_flagsE0ELS6_1EL15increment_class1EEExPS2_PKS2_RKxPSB_(%"class.std::__1::complex"*, %"class.std::__1::complex"*, i64*, i64*)

declare i64 @_ZN9vfun_asecINSt3__17complexIdEES2_E7iterateILN3wrt13runtime_flagsE0ELS6_1EL15increment_class0EEExPS2_PKS2_RKxPSB_(%"class.std::__1::complex"*, %"class.std::__1::complex"*, i64*, i64*)

declare i64 @_ZN9vfun_asecINSt3__17complexIdEES2_E7iterateILN3wrt13runtime_flagsE0ELS6_0EL15increment_class1EEExPS2_PKS2_RKxPSB_(%"class.std::__1::complex"*, %"class.std::__1::complex"*, i64*, i64*)

declare i64 @_ZN9vfun_asecINSt3__17complexIdEES2_E7iterateILN3wrt13runtime_flagsE0ELS6_0EL15increment_class0EEExPS2_PKS2_RKxPSB_(%"class.std::__1::complex"*, %"class.std::__1::complex"*, i64*, i64*)

declare i64 @_ZN9vfun_asecIddE7iterateILN3wrt13runtime_flagsE1ELS3_0EL15increment_class1EEExPdPKdRKxPS8_(double*, double*, i64*, i64*)

declare i64 @_ZN9vfun_asecIddE7iterateILN3wrt13runtime_flagsE1ELS3_0EL15increment_class0EEExPdPKdRKxPS8_(double*, double*, i64*, i64*)

declare i64 @_ZN9vfun_asecIddE7iterateILN3wrt13runtime_flagsE0ELS3_1EL15increment_class1EEExPdPKdRKxPS8_(double*, double*, i64*, i64*)

declare i64 @_ZN9vfun_asecIddE7iterateILN3wrt13runtime_flagsE0ELS3_1EL15increment_class0EEExPdPKdRKxPS8_(double*, double*, i64*, i64*)

declare i64 @_ZN9vfun_asecIddE7iterateILN3wrt13runtime_flagsE0ELS3_0EL15increment_class1EEExPdPKdRKxPS8_(double*, double*, i64*, i64*)

declare i64 @_ZN9vfun_asecIddE7iterateILN3wrt13runtime_flagsE0ELS3_0EL15increment_class0EEExPdPKdRKxPS8_(double*, double*, i64*, i64*)

declare double @acos(double)

declare i64 @_ZN9vfun_acscINSt3__17complexIdEES2_E7iterateILN3wrt13runtime_flagsE1ELS6_0EL15increment_class1EEExPS2_PKS2_RKxPSB_(%"class.std::__1::complex"*, %"class.std::__1::complex"*, i64*, i64*)

declare i64 @_ZN9vfun_acscINSt3__17complexIdEES2_E7iterateILN3wrt13runtime_flagsE1ELS6_0EL15increment_class0EEExPS2_PKS2_RKxPSB_(%"class.std::__1::complex"*, %"class.std::__1::complex"*, i64*, i64*)

declare i64 @_ZN9vfun_acscINSt3__17complexIdEES2_E7iterateILN3wrt13runtime_flagsE0ELS6_1EL15increment_class1EEExPS2_PKS2_RKxPSB_(%"class.std::__1::complex"*, %"class.std::__1::complex"*, i64*, i64*)

declare i64 @_ZN9vfun_acscINSt3__17complexIdEES2_E7iterateILN3wrt13runtime_flagsE0ELS6_1EL15increment_class0EEExPS2_PKS2_RKxPSB_(%"class.std::__1::complex"*, %"class.std::__1::complex"*, i64*, i64*)

declare i64 @_ZN9vfun_acscINSt3__17complexIdEES2_E7iterateILN3wrt13runtime_flagsE0ELS6_0EL15increment_class1EEExPS2_PKS2_RKxPSB_(%"class.std::__1::complex"*, %"class.std::__1::complex"*, i64*, i64*)

declare i64 @_ZN9vfun_acscINSt3__17complexIdEES2_E7iterateILN3wrt13runtime_flagsE0ELS6_0EL15increment_class0EEExPS2_PKS2_RKxPSB_(%"class.std::__1::complex"*, %"class.std::__1::complex"*, i64*, i64*)

declare i64 @_ZN9vfun_acscIddE7iterateILN3wrt13runtime_flagsE1ELS3_0EL15increment_class1EEExPdPKdRKxPS8_(double*, double*, i64*, i64*)

declare i64 @_ZN9vfun_acscIddE7iterateILN3wrt13runtime_flagsE1ELS3_0EL15increment_class0EEExPdPKdRKxPS8_(double*, double*, i64*, i64*)

declare i64 @_ZN9vfun_acscIddE7iterateILN3wrt13runtime_flagsE0ELS3_1EL15increment_class1EEExPdPKdRKxPS8_(double*, double*, i64*, i64*)

declare i64 @_ZN9vfun_acscIddE7iterateILN3wrt13runtime_flagsE0ELS3_1EL15increment_class0EEExPdPKdRKxPS8_(double*, double*, i64*, i64*)

declare i64 @_ZN9vfun_acscIddE7iterateILN3wrt13runtime_flagsE0ELS3_0EL15increment_class1EEExPdPKdRKxPS8_(double*, double*, i64*, i64*)

declare i64 @_ZN9vfun_acscIddE7iterateILN3wrt13runtime_flagsE0ELS3_0EL15increment_class0EEExPdPKdRKxPS8_(double*, double*, i64*, i64*)

declare i64 @_ZN9vfun_atanINSt3__17complexIdEES2_E7iterateILN3wrt13runtime_flagsE1ELS6_0EL15increment_class1EEExPS2_PKS2_RKxPSB_(%"class.std::__1::complex"*, %"class.std::__1::complex"*, i64*, i64*)

declare i64 @_ZN9vfun_atanINSt3__17complexIdEES2_E7iterateILN3wrt13runtime_flagsE1ELS6_0EL15increment_class0EEExPS2_PKS2_RKxPSB_(%"class.std::__1::complex"*, %"class.std::__1::complex"*, i64*, i64*)

declare i64 @_ZN9vfun_atanINSt3__17complexIdEES2_E7iterateILN3wrt13runtime_flagsE0ELS6_1EL15increment_class1EEExPS2_PKS2_RKxPSB_(%"class.std::__1::complex"*, %"class.std::__1::complex"*, i64*, i64*)

declare i64 @_ZN9vfun_atanINSt3__17complexIdEES2_E7iterateILN3wrt13runtime_flagsE0ELS6_1EL15increment_class0EEExPS2_PKS2_RKxPSB_(%"class.std::__1::complex"*, %"class.std::__1::complex"*, i64*, i64*)

declare i64 @_ZN9vfun_atanINSt3__17complexIdEES2_E7iterateILN3wrt13runtime_flagsE0ELS6_0EL15increment_class1EEExPS2_PKS2_RKxPSB_(%"class.std::__1::complex"*, %"class.std::__1::complex"*, i64*, i64*)

declare i64 @_ZN9vfun_atanINSt3__17complexIdEES2_E7iterateILN3wrt13runtime_flagsE0ELS6_0EL15increment_class0EEExPS2_PKS2_RKxPSB_(%"class.std::__1::complex"*, %"class.std::__1::complex"*, i64*, i64*)

declare { double, double } @_ZN3wrt9scalar_op5unaryL7atan_opINSt3__17complexIdEELNS_13runtime_flagsE1EEENS3_9enable_ifIXsr10is_complexIT_EE5valueENS1_6detail7op_infoILNS9_2opE14EN7rt_typeIS8_E4typeEE11result_typeEE4typeERKNSF_13argument_typeE(%"class.std::__1::complex"*)

declare i64 @_ZN9vfun_atanIddE7iterateILN3wrt13runtime_flagsE1ELS3_0EL15increment_class1EEExPdPKdRKxPS8_(double*, double*, i64*, i64*)

declare i64 @_ZN9vfun_atanIddE7iterateILN3wrt13runtime_flagsE1ELS3_0EL15increment_class0EEExPdPKdRKxPS8_(double*, double*, i64*, i64*)

declare i64 @_ZN9vfun_atanIddE7iterateILN3wrt13runtime_flagsE0ELS3_1EL15increment_class1EEExPdPKdRKxPS8_(double*, double*, i64*, i64*)

declare i64 @_ZN9vfun_atanIddE7iterateILN3wrt13runtime_flagsE0ELS3_1EL15increment_class0EEExPdPKdRKxPS8_(double*, double*, i64*, i64*)

declare i64 @_ZN9vfun_atanIddE7iterateILN3wrt13runtime_flagsE0ELS3_0EL15increment_class1EEExPdPKdRKxPS8_(double*, double*, i64*, i64*)

declare i64 @_ZN9vfun_atanIddE7iterateILN3wrt13runtime_flagsE0ELS3_0EL15increment_class0EEExPdPKdRKxPS8_(double*, double*, i64*, i64*)

declare void @vdAtan(i64, double*, double*)

declare i64 @_ZN9vfun_acosINSt3__17complexIdEES2_E7iterateILN3wrt13runtime_flagsE1ELS6_0EL15increment_class1EEExPS2_PKS2_RKxPSB_(%"class.std::__1::complex"*, %"class.std::__1::complex"*, i64*, i64*)

declare i64 @_ZN9vfun_acosINSt3__17complexIdEES2_E7iterateILN3wrt13runtime_flagsE1ELS6_0EL15increment_class0EEExPS2_PKS2_RKxPSB_(%"class.std::__1::complex"*, %"class.std::__1::complex"*, i64*, i64*)

declare i64 @_ZN9vfun_acosINSt3__17complexIdEES2_E7iterateILN3wrt13runtime_flagsE0ELS6_1EL15increment_class1EEExPS2_PKS2_RKxPSB_(%"class.std::__1::complex"*, %"class.std::__1::complex"*, i64*, i64*)

declare i64 @_ZN9vfun_acosINSt3__17complexIdEES2_E7iterateILN3wrt13runtime_flagsE0ELS6_1EL15increment_class0EEExPS2_PKS2_RKxPSB_(%"class.std::__1::complex"*, %"class.std::__1::complex"*, i64*, i64*)

declare i64 @_ZN9vfun_acosINSt3__17complexIdEES2_E7iterateILN3wrt13runtime_flagsE0ELS6_0EL15increment_class1EEExPS2_PKS2_RKxPSB_(%"class.std::__1::complex"*, %"class.std::__1::complex"*, i64*, i64*)

declare i64 @_ZN9vfun_acosINSt3__17complexIdEES2_E7iterateILN3wrt13runtime_flagsE0ELS6_0EL15increment_class0EEExPS2_PKS2_RKxPSB_(%"class.std::__1::complex"*, %"class.std::__1::complex"*, i64*, i64*)

declare i64 @_ZN9vfun_acosIddE7iterateILN3wrt13runtime_flagsE1ELS3_0EL15increment_class1EEExPdPKdRKxPS8_(double*, double*, i64*, i64*)

declare i64 @_ZN9vfun_acosIddE7iterateILN3wrt13runtime_flagsE1ELS3_0EL15increment_class0EEExPdPKdRKxPS8_(double*, double*, i64*, i64*)

declare i64 @_ZN9vfun_acosIddE7iterateILN3wrt13runtime_flagsE0ELS3_1EL15increment_class1EEExPdPKdRKxPS8_(double*, double*, i64*, i64*)

declare i64 @_ZN9vfun_acosIddE7iterateILN3wrt13runtime_flagsE0ELS3_1EL15increment_class0EEExPdPKdRKxPS8_(double*, double*, i64*, i64*)

declare i64 @_ZN9vfun_acosIddE7iterateILN3wrt13runtime_flagsE0ELS3_0EL15increment_class1EEExPdPKdRKxPS8_(double*, double*, i64*, i64*)

declare i64 @_ZN9vfun_acosIddE7iterateILN3wrt13runtime_flagsE0ELS3_0EL15increment_class0EEExPdPKdRKxPS8_(double*, double*, i64*, i64*)

declare void @vdAcos(i64, double*, double*)

declare i64 @_ZN9vfun_asinINSt3__17complexIdEES2_E7iterateILN3wrt13runtime_flagsE1ELS6_0EL15increment_class1EEExPS2_PKS2_RKxPSB_(%"class.std::__1::complex"*, %"class.std::__1::complex"*, i64*, i64*)

declare i64 @_ZN9vfun_asinINSt3__17complexIdEES2_E7iterateILN3wrt13runtime_flagsE1ELS6_0EL15increment_class0EEExPS2_PKS2_RKxPSB_(%"class.std::__1::complex"*, %"class.std::__1::complex"*, i64*, i64*)

declare i64 @_ZN9vfun_asinINSt3__17complexIdEES2_E7iterateILN3wrt13runtime_flagsE0ELS6_1EL15increment_class1EEExPS2_PKS2_RKxPSB_(%"class.std::__1::complex"*, %"class.std::__1::complex"*, i64*, i64*)

declare i64 @_ZN9vfun_asinINSt3__17complexIdEES2_E7iterateILN3wrt13runtime_flagsE0ELS6_1EL15increment_class0EEExPS2_PKS2_RKxPSB_(%"class.std::__1::complex"*, %"class.std::__1::complex"*, i64*, i64*)

declare i64 @_ZN9vfun_asinINSt3__17complexIdEES2_E7iterateILN3wrt13runtime_flagsE0ELS6_0EL15increment_class1EEExPS2_PKS2_RKxPSB_(%"class.std::__1::complex"*, %"class.std::__1::complex"*, i64*, i64*)

declare i64 @_ZN9vfun_asinINSt3__17complexIdEES2_E7iterateILN3wrt13runtime_flagsE0ELS6_0EL15increment_class0EEExPS2_PKS2_RKxPSB_(%"class.std::__1::complex"*, %"class.std::__1::complex"*, i64*, i64*)

declare i64 @_ZN9vfun_asinIddE7iterateILN3wrt13runtime_flagsE1ELS3_0EL15increment_class1EEExPdPKdRKxPS8_(double*, double*, i64*, i64*)

declare i64 @_ZN9vfun_asinIddE7iterateILN3wrt13runtime_flagsE1ELS3_0EL15increment_class0EEExPdPKdRKxPS8_(double*, double*, i64*, i64*)

declare i64 @_ZN9vfun_asinIddE7iterateILN3wrt13runtime_flagsE0ELS3_1EL15increment_class1EEExPdPKdRKxPS8_(double*, double*, i64*, i64*)

declare i64 @_ZN9vfun_asinIddE7iterateILN3wrt13runtime_flagsE0ELS3_1EL15increment_class0EEExPdPKdRKxPS8_(double*, double*, i64*, i64*)

declare i64 @_ZN9vfun_asinIddE7iterateILN3wrt13runtime_flagsE0ELS3_0EL15increment_class1EEExPdPKdRKxPS8_(double*, double*, i64*, i64*)

declare i64 @_ZN9vfun_asinIddE7iterateILN3wrt13runtime_flagsE0ELS3_0EL15increment_class0EEExPdPKdRKxPS8_(double*, double*, i64*, i64*)

declare void @vdAsin(i64, double*, double*)

declare i64 @_ZN9vfun_cothINSt3__17complexIdEES2_E7iterateILN3wrt13runtime_flagsE1ELS6_0EL15increment_class1EEExPS2_PKS2_RKxPSB_(%"class.std::__1::complex"*, %"class.std::__1::complex"*, i64*, i64*)

declare i64 @_ZN9vfun_cothINSt3__17complexIdEES2_E7iterateILN3wrt13runtime_flagsE1ELS6_0EL15increment_class0EEExPS2_PKS2_RKxPSB_(%"class.std::__1::complex"*, %"class.std::__1::complex"*, i64*, i64*)

declare i64 @_ZN9vfun_cothINSt3__17complexIdEES2_E7iterateILN3wrt13runtime_flagsE0ELS6_1EL15increment_class1EEExPS2_PKS2_RKxPSB_(%"class.std::__1::complex"*, %"class.std::__1::complex"*, i64*, i64*)

declare i64 @_ZN9vfun_cothINSt3__17complexIdEES2_E7iterateILN3wrt13runtime_flagsE0ELS6_1EL15increment_class0EEExPS2_PKS2_RKxPSB_(%"class.std::__1::complex"*, %"class.std::__1::complex"*, i64*, i64*)

declare i64 @_ZN9vfun_cothINSt3__17complexIdEES2_E7iterateILN3wrt13runtime_flagsE0ELS6_0EL15increment_class1EEExPS2_PKS2_RKxPSB_(%"class.std::__1::complex"*, %"class.std::__1::complex"*, i64*, i64*)

declare i64 @_ZN9vfun_cothINSt3__17complexIdEES2_E7iterateILN3wrt13runtime_flagsE0ELS6_0EL15increment_class0EEExPS2_PKS2_RKxPSB_(%"class.std::__1::complex"*, %"class.std::__1::complex"*, i64*, i64*)

declare { double, double } @_ZN3wrt9scalar_op5unaryL7coth_opINSt3__17complexIdEELNS_13runtime_flagsE1EEENS3_9enable_ifIXsr28is_floating_point_or_complexIT_EE5valueENS1_6detail7op_infoILNS9_2opE26EN7rt_typeIS8_E4typeEE11result_typeEE4typeERKNSF_13argument_typeE(%"class.std::__1::complex"*)

declare i64 @_ZN9vfun_cothIddE7iterateILN3wrt13runtime_flagsE1ELS3_0EL15increment_class1EEExPdPKdRKxPS8_(double*, double*, i64*, i64*)

declare i64 @_ZN9vfun_cothIddE7iterateILN3wrt13runtime_flagsE1ELS3_0EL15increment_class0EEExPdPKdRKxPS8_(double*, double*, i64*, i64*)

declare i64 @_ZN9vfun_cothIddE7iterateILN3wrt13runtime_flagsE0ELS3_1EL15increment_class1EEExPdPKdRKxPS8_(double*, double*, i64*, i64*)

declare i64 @_ZN9vfun_cothIddE7iterateILN3wrt13runtime_flagsE0ELS3_1EL15increment_class0EEExPdPKdRKxPS8_(double*, double*, i64*, i64*)

declare i64 @_ZN9vfun_cothIddE7iterateILN3wrt13runtime_flagsE0ELS3_0EL15increment_class1EEExPdPKdRKxPS8_(double*, double*, i64*, i64*)

declare i64 @_ZN9vfun_cothIddE7iterateILN3wrt13runtime_flagsE0ELS3_0EL15increment_class0EEExPdPKdRKxPS8_(double*, double*, i64*, i64*)

declare i64 @_ZN9vfun_sechINSt3__17complexIdEES2_E7iterateILN3wrt13runtime_flagsE1ELS6_0EL15increment_class1EEExPS2_PKS2_RKxPSB_(%"class.std::__1::complex"*, %"class.std::__1::complex"*, i64*, i64*)

declare i64 @_ZN9vfun_sechINSt3__17complexIdEES2_E7iterateILN3wrt13runtime_flagsE1ELS6_0EL15increment_class0EEExPS2_PKS2_RKxPSB_(%"class.std::__1::complex"*, %"class.std::__1::complex"*, i64*, i64*)

declare i64 @_ZN9vfun_sechINSt3__17complexIdEES2_E7iterateILN3wrt13runtime_flagsE0ELS6_1EL15increment_class1EEExPS2_PKS2_RKxPSB_(%"class.std::__1::complex"*, %"class.std::__1::complex"*, i64*, i64*)

declare i64 @_ZN9vfun_sechINSt3__17complexIdEES2_E7iterateILN3wrt13runtime_flagsE0ELS6_1EL15increment_class0EEExPS2_PKS2_RKxPSB_(%"class.std::__1::complex"*, %"class.std::__1::complex"*, i64*, i64*)

declare i64 @_ZN9vfun_sechINSt3__17complexIdEES2_E7iterateILN3wrt13runtime_flagsE0ELS6_0EL15increment_class1EEExPS2_PKS2_RKxPSB_(%"class.std::__1::complex"*, %"class.std::__1::complex"*, i64*, i64*)

declare i64 @_ZN9vfun_sechINSt3__17complexIdEES2_E7iterateILN3wrt13runtime_flagsE0ELS6_0EL15increment_class0EEExPS2_PKS2_RKxPSB_(%"class.std::__1::complex"*, %"class.std::__1::complex"*, i64*, i64*)

declare i64 @_ZN9vfun_sechIddE7iterateILN3wrt13runtime_flagsE1ELS3_0EL15increment_class1EEExPdPKdRKxPS8_(double*, double*, i64*, i64*)

declare i64 @_ZN9vfun_sechIddE7iterateILN3wrt13runtime_flagsE1ELS3_0EL15increment_class0EEExPdPKdRKxPS8_(double*, double*, i64*, i64*)

declare i64 @_ZN9vfun_sechIddE7iterateILN3wrt13runtime_flagsE0ELS3_1EL15increment_class1EEExPdPKdRKxPS8_(double*, double*, i64*, i64*)

declare i64 @_ZN9vfun_sechIddE7iterateILN3wrt13runtime_flagsE0ELS3_1EL15increment_class0EEExPdPKdRKxPS8_(double*, double*, i64*, i64*)

declare i64 @_ZN9vfun_sechIddE7iterateILN3wrt13runtime_flagsE0ELS3_0EL15increment_class1EEExPdPKdRKxPS8_(double*, double*, i64*, i64*)

declare i64 @_ZN9vfun_sechIddE7iterateILN3wrt13runtime_flagsE0ELS3_0EL15increment_class0EEExPdPKdRKxPS8_(double*, double*, i64*, i64*)

declare i64 @_ZN9vfun_cschINSt3__17complexIdEES2_E7iterateILN3wrt13runtime_flagsE1ELS6_0EL15increment_class1EEExPS2_PKS2_RKxPSB_(%"class.std::__1::complex"*, %"class.std::__1::complex"*, i64*, i64*)

declare i64 @_ZN9vfun_cschINSt3__17complexIdEES2_E7iterateILN3wrt13runtime_flagsE1ELS6_0EL15increment_class0EEExPS2_PKS2_RKxPSB_(%"class.std::__1::complex"*, %"class.std::__1::complex"*, i64*, i64*)

declare i64 @_ZN9vfun_cschINSt3__17complexIdEES2_E7iterateILN3wrt13runtime_flagsE0ELS6_1EL15increment_class1EEExPS2_PKS2_RKxPSB_(%"class.std::__1::complex"*, %"class.std::__1::complex"*, i64*, i64*)

declare i64 @_ZN9vfun_cschINSt3__17complexIdEES2_E7iterateILN3wrt13runtime_flagsE0ELS6_1EL15increment_class0EEExPS2_PKS2_RKxPSB_(%"class.std::__1::complex"*, %"class.std::__1::complex"*, i64*, i64*)

declare i64 @_ZN9vfun_cschINSt3__17complexIdEES2_E7iterateILN3wrt13runtime_flagsE0ELS6_0EL15increment_class1EEExPS2_PKS2_RKxPSB_(%"class.std::__1::complex"*, %"class.std::__1::complex"*, i64*, i64*)

declare i64 @_ZN9vfun_cschINSt3__17complexIdEES2_E7iterateILN3wrt13runtime_flagsE0ELS6_0EL15increment_class0EEExPS2_PKS2_RKxPSB_(%"class.std::__1::complex"*, %"class.std::__1::complex"*, i64*, i64*)

declare i64 @_ZN9vfun_cschIddE7iterateILN3wrt13runtime_flagsE1ELS3_0EL15increment_class1EEExPdPKdRKxPS8_(double*, double*, i64*, i64*)

declare i64 @_ZN9vfun_cschIddE7iterateILN3wrt13runtime_flagsE1ELS3_0EL15increment_class0EEExPdPKdRKxPS8_(double*, double*, i64*, i64*)

declare i64 @_ZN9vfun_cschIddE7iterateILN3wrt13runtime_flagsE0ELS3_1EL15increment_class1EEExPdPKdRKxPS8_(double*, double*, i64*, i64*)

declare i64 @_ZN9vfun_cschIddE7iterateILN3wrt13runtime_flagsE0ELS3_1EL15increment_class0EEExPdPKdRKxPS8_(double*, double*, i64*, i64*)

declare i64 @_ZN9vfun_cschIddE7iterateILN3wrt13runtime_flagsE0ELS3_0EL15increment_class1EEExPdPKdRKxPS8_(double*, double*, i64*, i64*)

declare i64 @_ZN9vfun_cschIddE7iterateILN3wrt13runtime_flagsE0ELS3_0EL15increment_class0EEExPdPKdRKxPS8_(double*, double*, i64*, i64*)

declare i64 @_ZN9vfun_tanhINSt3__17complexIdEES2_E7iterateILN3wrt13runtime_flagsE1ELS6_0EL15increment_class1EEExPS2_PKS2_RKxPSB_(%"class.std::__1::complex"*, %"class.std::__1::complex"*, i64*, i64*)

declare i64 @_ZN9vfun_tanhINSt3__17complexIdEES2_E7iterateILN3wrt13runtime_flagsE1ELS6_0EL15increment_class0EEExPS2_PKS2_RKxPSB_(%"class.std::__1::complex"*, %"class.std::__1::complex"*, i64*, i64*)

declare i64 @_ZN9vfun_tanhINSt3__17complexIdEES2_E7iterateILN3wrt13runtime_flagsE0ELS6_1EL15increment_class1EEExPS2_PKS2_RKxPSB_(%"class.std::__1::complex"*, %"class.std::__1::complex"*, i64*, i64*)

declare i64 @_ZN9vfun_tanhINSt3__17complexIdEES2_E7iterateILN3wrt13runtime_flagsE0ELS6_1EL15increment_class0EEExPS2_PKS2_RKxPSB_(%"class.std::__1::complex"*, %"class.std::__1::complex"*, i64*, i64*)

declare i64 @_ZN9vfun_tanhINSt3__17complexIdEES2_E7iterateILN3wrt13runtime_flagsE0ELS6_0EL15increment_class1EEExPS2_PKS2_RKxPSB_(%"class.std::__1::complex"*, %"class.std::__1::complex"*, i64*, i64*)

declare i64 @_ZN9vfun_tanhINSt3__17complexIdEES2_E7iterateILN3wrt13runtime_flagsE0ELS6_0EL15increment_class0EEExPS2_PKS2_RKxPSB_(%"class.std::__1::complex"*, %"class.std::__1::complex"*, i64*, i64*)

declare void @vzTanh(i64, %"class.std::__1::complex"*, %"class.std::__1::complex"*)

declare i64 @_ZN9vfun_tanhIddE7iterateILN3wrt13runtime_flagsE1ELS3_0EL15increment_class1EEExPdPKdRKxPS8_(double*, double*, i64*, i64*)

declare i64 @_ZN9vfun_tanhIddE7iterateILN3wrt13runtime_flagsE1ELS3_0EL15increment_class0EEExPdPKdRKxPS8_(double*, double*, i64*, i64*)

declare i64 @_ZN9vfun_tanhIddE7iterateILN3wrt13runtime_flagsE0ELS3_1EL15increment_class1EEExPdPKdRKxPS8_(double*, double*, i64*, i64*)

declare i64 @_ZN9vfun_tanhIddE7iterateILN3wrt13runtime_flagsE0ELS3_1EL15increment_class0EEExPdPKdRKxPS8_(double*, double*, i64*, i64*)

declare i64 @_ZN9vfun_tanhIddE7iterateILN3wrt13runtime_flagsE0ELS3_0EL15increment_class1EEExPdPKdRKxPS8_(double*, double*, i64*, i64*)

declare i64 @_ZN9vfun_tanhIddE7iterateILN3wrt13runtime_flagsE0ELS3_0EL15increment_class0EEExPdPKdRKxPS8_(double*, double*, i64*, i64*)

declare void @vdTanh(i64, double*, double*)

declare i64 @_ZN9vfun_coshINSt3__17complexIdEES2_E7iterateILN3wrt13runtime_flagsE1ELS6_0EL15increment_class1EEExPS2_PKS2_RKxPSB_(%"class.std::__1::complex"*, %"class.std::__1::complex"*, i64*, i64*)

declare i64 @_ZN9vfun_coshINSt3__17complexIdEES2_E7iterateILN3wrt13runtime_flagsE1ELS6_0EL15increment_class0EEExPS2_PKS2_RKxPSB_(%"class.std::__1::complex"*, %"class.std::__1::complex"*, i64*, i64*)

declare i64 @_ZN9vfun_coshINSt3__17complexIdEES2_E7iterateILN3wrt13runtime_flagsE0ELS6_1EL15increment_class1EEExPS2_PKS2_RKxPSB_(%"class.std::__1::complex"*, %"class.std::__1::complex"*, i64*, i64*)

declare i64 @_ZN9vfun_coshINSt3__17complexIdEES2_E7iterateILN3wrt13runtime_flagsE0ELS6_1EL15increment_class0EEExPS2_PKS2_RKxPSB_(%"class.std::__1::complex"*, %"class.std::__1::complex"*, i64*, i64*)

declare i64 @_ZN9vfun_coshINSt3__17complexIdEES2_E7iterateILN3wrt13runtime_flagsE0ELS6_0EL15increment_class1EEExPS2_PKS2_RKxPSB_(%"class.std::__1::complex"*, %"class.std::__1::complex"*, i64*, i64*)

declare i64 @_ZN9vfun_coshINSt3__17complexIdEES2_E7iterateILN3wrt13runtime_flagsE0ELS6_0EL15increment_class0EEExPS2_PKS2_RKxPSB_(%"class.std::__1::complex"*, %"class.std::__1::complex"*, i64*, i64*)

declare void @vzCosh(i64, %"class.std::__1::complex"*, %"class.std::__1::complex"*)

declare i64 @_ZN9vfun_coshIddE7iterateILN3wrt13runtime_flagsE1ELS3_0EL15increment_class1EEExPdPKdRKxPS8_(double*, double*, i64*, i64*)

declare i64 @_ZN9vfun_coshIddE7iterateILN3wrt13runtime_flagsE1ELS3_0EL15increment_class0EEExPdPKdRKxPS8_(double*, double*, i64*, i64*)

declare i64 @_ZN9vfun_coshIddE7iterateILN3wrt13runtime_flagsE0ELS3_1EL15increment_class1EEExPdPKdRKxPS8_(double*, double*, i64*, i64*)

declare i64 @_ZN9vfun_coshIddE7iterateILN3wrt13runtime_flagsE0ELS3_1EL15increment_class0EEExPdPKdRKxPS8_(double*, double*, i64*, i64*)

declare i64 @_ZN9vfun_coshIddE7iterateILN3wrt13runtime_flagsE0ELS3_0EL15increment_class1EEExPdPKdRKxPS8_(double*, double*, i64*, i64*)

declare i64 @_ZN9vfun_coshIddE7iterateILN3wrt13runtime_flagsE0ELS3_0EL15increment_class0EEExPdPKdRKxPS8_(double*, double*, i64*, i64*)

declare void @vdCosh(i64, double*, double*)

declare i64 @_ZN9vfun_sinhINSt3__17complexIdEES2_E7iterateILN3wrt13runtime_flagsE1ELS6_0EL15increment_class1EEExPS2_PKS2_RKxPSB_(%"class.std::__1::complex"*, %"class.std::__1::complex"*, i64*, i64*)

declare i64 @_ZN9vfun_sinhINSt3__17complexIdEES2_E7iterateILN3wrt13runtime_flagsE1ELS6_0EL15increment_class0EEExPS2_PKS2_RKxPSB_(%"class.std::__1::complex"*, %"class.std::__1::complex"*, i64*, i64*)

declare i64 @_ZN9vfun_sinhINSt3__17complexIdEES2_E7iterateILN3wrt13runtime_flagsE0ELS6_1EL15increment_class1EEExPS2_PKS2_RKxPSB_(%"class.std::__1::complex"*, %"class.std::__1::complex"*, i64*, i64*)

declare i64 @_ZN9vfun_sinhINSt3__17complexIdEES2_E7iterateILN3wrt13runtime_flagsE0ELS6_1EL15increment_class0EEExPS2_PKS2_RKxPSB_(%"class.std::__1::complex"*, %"class.std::__1::complex"*, i64*, i64*)

declare i64 @_ZN9vfun_sinhINSt3__17complexIdEES2_E7iterateILN3wrt13runtime_flagsE0ELS6_0EL15increment_class1EEExPS2_PKS2_RKxPSB_(%"class.std::__1::complex"*, %"class.std::__1::complex"*, i64*, i64*)

declare i64 @_ZN9vfun_sinhINSt3__17complexIdEES2_E7iterateILN3wrt13runtime_flagsE0ELS6_0EL15increment_class0EEExPS2_PKS2_RKxPSB_(%"class.std::__1::complex"*, %"class.std::__1::complex"*, i64*, i64*)

declare void @vzSinh(i64, %"class.std::__1::complex"*, %"class.std::__1::complex"*)

declare i64 @_ZN9vfun_sinhIddE7iterateILN3wrt13runtime_flagsE1ELS3_0EL15increment_class1EEExPdPKdRKxPS8_(double*, double*, i64*, i64*)

declare i64 @_ZN9vfun_sinhIddE7iterateILN3wrt13runtime_flagsE1ELS3_0EL15increment_class0EEExPdPKdRKxPS8_(double*, double*, i64*, i64*)

declare i64 @_ZN9vfun_sinhIddE7iterateILN3wrt13runtime_flagsE0ELS3_1EL15increment_class1EEExPdPKdRKxPS8_(double*, double*, i64*, i64*)

declare i64 @_ZN9vfun_sinhIddE7iterateILN3wrt13runtime_flagsE0ELS3_1EL15increment_class0EEExPdPKdRKxPS8_(double*, double*, i64*, i64*)

declare i64 @_ZN9vfun_sinhIddE7iterateILN3wrt13runtime_flagsE0ELS3_0EL15increment_class1EEExPdPKdRKxPS8_(double*, double*, i64*, i64*)

declare i64 @_ZN9vfun_sinhIddE7iterateILN3wrt13runtime_flagsE0ELS3_0EL15increment_class0EEExPdPKdRKxPS8_(double*, double*, i64*, i64*)

declare void @vdSinh(i64, double*, double*)

declare i64 @_ZN8vfun_cotINSt3__17complexIdEES2_E7iterateILN3wrt13runtime_flagsE1ELS6_0EL15increment_class1EEExPS2_PKS2_RKxPSB_(%"class.std::__1::complex"*, %"class.std::__1::complex"*, i64*, i64*)

declare i64 @_ZN8vfun_cotINSt3__17complexIdEES2_E7iterateILN3wrt13runtime_flagsE1ELS6_0EL15increment_class0EEExPS2_PKS2_RKxPSB_(%"class.std::__1::complex"*, %"class.std::__1::complex"*, i64*, i64*)

declare i64 @_ZN8vfun_cotINSt3__17complexIdEES2_E7iterateILN3wrt13runtime_flagsE0ELS6_1EL15increment_class1EEExPS2_PKS2_RKxPSB_(%"class.std::__1::complex"*, %"class.std::__1::complex"*, i64*, i64*)

declare i64 @_ZN8vfun_cotINSt3__17complexIdEES2_E7iterateILN3wrt13runtime_flagsE0ELS6_1EL15increment_class0EEExPS2_PKS2_RKxPSB_(%"class.std::__1::complex"*, %"class.std::__1::complex"*, i64*, i64*)

declare i64 @_ZN8vfun_cotINSt3__17complexIdEES2_E7iterateILN3wrt13runtime_flagsE0ELS6_0EL15increment_class1EEExPS2_PKS2_RKxPSB_(%"class.std::__1::complex"*, %"class.std::__1::complex"*, i64*, i64*)

declare i64 @_ZN8vfun_cotINSt3__17complexIdEES2_E7iterateILN3wrt13runtime_flagsE0ELS6_0EL15increment_class0EEExPS2_PKS2_RKxPSB_(%"class.std::__1::complex"*, %"class.std::__1::complex"*, i64*, i64*)

declare { double, double } @_ZN3wrt9scalar_op5unaryL6cot_opINSt3__17complexIdEELNS_13runtime_flagsE1EEENS3_9enable_ifIXsr28is_floating_point_or_complexIT_EE5valueENS1_6detail7op_infoILNS9_2opE25EN7rt_typeIS8_E4typeEE11result_typeEE4typeERKNSF_13argument_typeE(double, double)

declare i64 @_ZN8vfun_cotIddE7iterateILN3wrt13runtime_flagsE1ELS3_0EL15increment_class1EEExPdPKdRKxPS8_(double*, double*, i64*, i64*)

declare i64 @_ZN8vfun_cotIddE7iterateILN3wrt13runtime_flagsE1ELS3_0EL15increment_class0EEExPdPKdRKxPS8_(double*, double*, i64*, i64*)

declare i64 @_ZN8vfun_cotIddE7iterateILN3wrt13runtime_flagsE0ELS3_1EL15increment_class1EEExPdPKdRKxPS8_(double*, double*, i64*, i64*)

declare i64 @_ZN8vfun_cotIddE7iterateILN3wrt13runtime_flagsE0ELS3_1EL15increment_class0EEExPdPKdRKxPS8_(double*, double*, i64*, i64*)

declare i64 @_ZN8vfun_cotIddE7iterateILN3wrt13runtime_flagsE0ELS3_0EL15increment_class1EEExPdPKdRKxPS8_(double*, double*, i64*, i64*)

declare i64 @_ZN8vfun_cotIddE7iterateILN3wrt13runtime_flagsE0ELS3_0EL15increment_class0EEExPdPKdRKxPS8_(double*, double*, i64*, i64*)

declare i64 @_ZN8vfun_secINSt3__17complexIdEES2_E7iterateILN3wrt13runtime_flagsE1ELS6_0EL15increment_class1EEExPS2_PKS2_RKxPSB_(%"class.std::__1::complex"*, %"class.std::__1::complex"*, i64*, i64*)

declare i64 @_ZN8vfun_secINSt3__17complexIdEES2_E7iterateILN3wrt13runtime_flagsE1ELS6_0EL15increment_class0EEExPS2_PKS2_RKxPSB_(%"class.std::__1::complex"*, %"class.std::__1::complex"*, i64*, i64*)

declare i64 @_ZN8vfun_secINSt3__17complexIdEES2_E7iterateILN3wrt13runtime_flagsE0ELS6_1EL15increment_class1EEExPS2_PKS2_RKxPSB_(%"class.std::__1::complex"*, %"class.std::__1::complex"*, i64*, i64*)

declare i64 @_ZN8vfun_secINSt3__17complexIdEES2_E7iterateILN3wrt13runtime_flagsE0ELS6_1EL15increment_class0EEExPS2_PKS2_RKxPSB_(%"class.std::__1::complex"*, %"class.std::__1::complex"*, i64*, i64*)

declare i64 @_ZN8vfun_secINSt3__17complexIdEES2_E7iterateILN3wrt13runtime_flagsE0ELS6_0EL15increment_class1EEExPS2_PKS2_RKxPSB_(%"class.std::__1::complex"*, %"class.std::__1::complex"*, i64*, i64*)

declare i64 @_ZN8vfun_secINSt3__17complexIdEES2_E7iterateILN3wrt13runtime_flagsE0ELS6_0EL15increment_class0EEExPS2_PKS2_RKxPSB_(%"class.std::__1::complex"*, %"class.std::__1::complex"*, i64*, i64*)

declare { double, double } @_ZN3wrt9scalar_op5unaryL6sec_opINSt3__17complexIdEELNS_13runtime_flagsE1EEENS3_9enable_ifIXsr28is_floating_point_or_complexIT_EE5valueENS1_6detail7op_infoILNS9_2opE66EN7rt_typeIS8_E4typeEE11result_typeEE4typeERKNSF_13argument_typeE(double, double)

declare i64 @_ZN8vfun_secIddE7iterateILN3wrt13runtime_flagsE1ELS3_0EL15increment_class1EEExPdPKdRKxPS8_(double*, double*, i64*, i64*)

declare i64 @_ZN8vfun_secIddE7iterateILN3wrt13runtime_flagsE1ELS3_0EL15increment_class0EEExPdPKdRKxPS8_(double*, double*, i64*, i64*)

declare i64 @_ZN8vfun_secIddE7iterateILN3wrt13runtime_flagsE0ELS3_1EL15increment_class1EEExPdPKdRKxPS8_(double*, double*, i64*, i64*)

declare i64 @_ZN8vfun_secIddE7iterateILN3wrt13runtime_flagsE0ELS3_1EL15increment_class0EEExPdPKdRKxPS8_(double*, double*, i64*, i64*)

declare i64 @_ZN8vfun_secIddE7iterateILN3wrt13runtime_flagsE0ELS3_0EL15increment_class1EEExPdPKdRKxPS8_(double*, double*, i64*, i64*)

declare i64 @_ZN8vfun_secIddE7iterateILN3wrt13runtime_flagsE0ELS3_0EL15increment_class0EEExPdPKdRKxPS8_(double*, double*, i64*, i64*)

declare i64 @_ZN8vfun_cscINSt3__17complexIdEES2_E7iterateILN3wrt13runtime_flagsE1ELS6_0EL15increment_class1EEExPS2_PKS2_RKxPSB_(%"class.std::__1::complex"*, %"class.std::__1::complex"*, i64*, i64*)

declare i64 @_ZN8vfun_cscINSt3__17complexIdEES2_E7iterateILN3wrt13runtime_flagsE1ELS6_0EL15increment_class0EEExPS2_PKS2_RKxPSB_(%"class.std::__1::complex"*, %"class.std::__1::complex"*, i64*, i64*)

declare i64 @_ZN8vfun_cscINSt3__17complexIdEES2_E7iterateILN3wrt13runtime_flagsE0ELS6_1EL15increment_class1EEExPS2_PKS2_RKxPSB_(%"class.std::__1::complex"*, %"class.std::__1::complex"*, i64*, i64*)

declare i64 @_ZN8vfun_cscINSt3__17complexIdEES2_E7iterateILN3wrt13runtime_flagsE0ELS6_1EL15increment_class0EEExPS2_PKS2_RKxPSB_(%"class.std::__1::complex"*, %"class.std::__1::complex"*, i64*, i64*)

declare i64 @_ZN8vfun_cscINSt3__17complexIdEES2_E7iterateILN3wrt13runtime_flagsE0ELS6_0EL15increment_class1EEExPS2_PKS2_RKxPSB_(%"class.std::__1::complex"*, %"class.std::__1::complex"*, i64*, i64*)

declare i64 @_ZN8vfun_cscINSt3__17complexIdEES2_E7iterateILN3wrt13runtime_flagsE0ELS6_0EL15increment_class0EEExPS2_PKS2_RKxPSB_(%"class.std::__1::complex"*, %"class.std::__1::complex"*, i64*, i64*)

declare i64 @_ZN8vfun_cscIddE7iterateILN3wrt13runtime_flagsE1ELS3_0EL15increment_class1EEExPdPKdRKxPS8_(double*, double*, i64*, i64*)

declare i64 @_ZN8vfun_cscIddE7iterateILN3wrt13runtime_flagsE1ELS3_0EL15increment_class0EEExPdPKdRKxPS8_(double*, double*, i64*, i64*)

declare i64 @_ZN8vfun_cscIddE7iterateILN3wrt13runtime_flagsE0ELS3_1EL15increment_class1EEExPdPKdRKxPS8_(double*, double*, i64*, i64*)

declare i64 @_ZN8vfun_cscIddE7iterateILN3wrt13runtime_flagsE0ELS3_1EL15increment_class0EEExPdPKdRKxPS8_(double*, double*, i64*, i64*)

declare i64 @_ZN8vfun_cscIddE7iterateILN3wrt13runtime_flagsE0ELS3_0EL15increment_class1EEExPdPKdRKxPS8_(double*, double*, i64*, i64*)

declare i64 @_ZN8vfun_cscIddE7iterateILN3wrt13runtime_flagsE0ELS3_0EL15increment_class0EEExPdPKdRKxPS8_(double*, double*, i64*, i64*)

declare i64 @_ZN8vfun_tanINSt3__17complexIdEES2_E7iterateILN3wrt13runtime_flagsE1ELS6_0EL15increment_class1EEExPS2_PKS2_RKxPSB_(%"class.std::__1::complex"*, %"class.std::__1::complex"*, i64*, i64*)

declare i64 @_ZN8vfun_tanINSt3__17complexIdEES2_E7iterateILN3wrt13runtime_flagsE1ELS6_0EL15increment_class0EEExPS2_PKS2_RKxPSB_(%"class.std::__1::complex"*, %"class.std::__1::complex"*, i64*, i64*)

declare i64 @_ZN8vfun_tanINSt3__17complexIdEES2_E7iterateILN3wrt13runtime_flagsE0ELS6_1EL15increment_class1EEExPS2_PKS2_RKxPSB_(%"class.std::__1::complex"*, %"class.std::__1::complex"*, i64*, i64*)

declare i64 @_ZN8vfun_tanINSt3__17complexIdEES2_E7iterateILN3wrt13runtime_flagsE0ELS6_1EL15increment_class0EEExPS2_PKS2_RKxPSB_(%"class.std::__1::complex"*, %"class.std::__1::complex"*, i64*, i64*)

declare i64 @_ZN8vfun_tanINSt3__17complexIdEES2_E7iterateILN3wrt13runtime_flagsE0ELS6_0EL15increment_class1EEExPS2_PKS2_RKxPSB_(%"class.std::__1::complex"*, %"class.std::__1::complex"*, i64*, i64*)

declare i64 @_ZN8vfun_tanINSt3__17complexIdEES2_E7iterateILN3wrt13runtime_flagsE0ELS6_0EL15increment_class0EEExPS2_PKS2_RKxPSB_(%"class.std::__1::complex"*, %"class.std::__1::complex"*, i64*, i64*)

declare void @vzTan(i64, %"class.std::__1::complex"*, %"class.std::__1::complex"*)

declare i64 @_ZN8vfun_tanIddE7iterateILN3wrt13runtime_flagsE1ELS3_0EL15increment_class1EEExPdPKdRKxPS8_(double*, double*, i64*, i64*)

declare i64 @_ZN8vfun_tanIddE7iterateILN3wrt13runtime_flagsE1ELS3_0EL15increment_class0EEExPdPKdRKxPS8_(double*, double*, i64*, i64*)

declare i64 @_ZN8vfun_tanIddE7iterateILN3wrt13runtime_flagsE0ELS3_1EL15increment_class1EEExPdPKdRKxPS8_(double*, double*, i64*, i64*)

declare i64 @_ZN8vfun_tanIddE7iterateILN3wrt13runtime_flagsE0ELS3_1EL15increment_class0EEExPdPKdRKxPS8_(double*, double*, i64*, i64*)

declare i64 @_ZN8vfun_tanIddE7iterateILN3wrt13runtime_flagsE0ELS3_0EL15increment_class1EEExPdPKdRKxPS8_(double*, double*, i64*, i64*)

declare i64 @_ZN8vfun_tanIddE7iterateILN3wrt13runtime_flagsE0ELS3_0EL15increment_class0EEExPdPKdRKxPS8_(double*, double*, i64*, i64*)

declare void @vdTan(i64, double*, double*)

declare i64 @_ZN8vfun_cosINSt3__17complexIdEES2_E7iterateILN3wrt13runtime_flagsE1ELS6_0EL15increment_class1EEExPS2_PKS2_RKxPSB_(%"class.std::__1::complex"*, %"class.std::__1::complex"*, i64*, i64*)

declare i64 @_ZN8vfun_cosINSt3__17complexIdEES2_E7iterateILN3wrt13runtime_flagsE1ELS6_0EL15increment_class0EEExPS2_PKS2_RKxPSB_(%"class.std::__1::complex"*, %"class.std::__1::complex"*, i64*, i64*)

declare i64 @_ZN8vfun_cosINSt3__17complexIdEES2_E7iterateILN3wrt13runtime_flagsE0ELS6_1EL15increment_class1EEExPS2_PKS2_RKxPSB_(%"class.std::__1::complex"*, %"class.std::__1::complex"*, i64*, i64*)

declare i64 @_ZN8vfun_cosINSt3__17complexIdEES2_E7iterateILN3wrt13runtime_flagsE0ELS6_1EL15increment_class0EEExPS2_PKS2_RKxPSB_(%"class.std::__1::complex"*, %"class.std::__1::complex"*, i64*, i64*)

declare i64 @_ZN8vfun_cosINSt3__17complexIdEES2_E7iterateILN3wrt13runtime_flagsE0ELS6_0EL15increment_class1EEExPS2_PKS2_RKxPSB_(%"class.std::__1::complex"*, %"class.std::__1::complex"*, i64*, i64*)

declare i64 @_ZN8vfun_cosINSt3__17complexIdEES2_E7iterateILN3wrt13runtime_flagsE0ELS6_0EL15increment_class0EEExPS2_PKS2_RKxPSB_(%"class.std::__1::complex"*, %"class.std::__1::complex"*, i64*, i64*)

declare void @vzCos(i64, %"class.std::__1::complex"*, %"class.std::__1::complex"*)

declare i64 @_ZN8vfun_cosIddE7iterateILN3wrt13runtime_flagsE1ELS3_0EL15increment_class1EEExPdPKdRKxPS8_(double*, double*, i64*, i64*)

declare i64 @_ZN8vfun_cosIddE7iterateILN3wrt13runtime_flagsE1ELS3_0EL15increment_class0EEExPdPKdRKxPS8_(double*, double*, i64*, i64*)

declare i64 @_ZN8vfun_cosIddE7iterateILN3wrt13runtime_flagsE0ELS3_1EL15increment_class1EEExPdPKdRKxPS8_(double*, double*, i64*, i64*)

declare i64 @_ZN8vfun_cosIddE7iterateILN3wrt13runtime_flagsE0ELS3_1EL15increment_class0EEExPdPKdRKxPS8_(double*, double*, i64*, i64*)

declare i64 @_ZN8vfun_cosIddE7iterateILN3wrt13runtime_flagsE0ELS3_0EL15increment_class1EEExPdPKdRKxPS8_(double*, double*, i64*, i64*)

declare i64 @_ZN8vfun_cosIddE7iterateILN3wrt13runtime_flagsE0ELS3_0EL15increment_class0EEExPdPKdRKxPS8_(double*, double*, i64*, i64*)

declare void @vdCos(i64, double*, double*)

declare i64 @_ZN8vfun_sinINSt3__17complexIdEES2_E7iterateILN3wrt13runtime_flagsE1ELS6_0EL15increment_class1EEExPS2_PKS2_RKxPSB_(%"class.std::__1::complex"*, %"class.std::__1::complex"*, i64*, i64*)

declare i64 @_ZN8vfun_sinINSt3__17complexIdEES2_E7iterateILN3wrt13runtime_flagsE1ELS6_0EL15increment_class0EEExPS2_PKS2_RKxPSB_(%"class.std::__1::complex"*, %"class.std::__1::complex"*, i64*, i64*)

declare i64 @_ZN8vfun_sinINSt3__17complexIdEES2_E7iterateILN3wrt13runtime_flagsE0ELS6_1EL15increment_class1EEExPS2_PKS2_RKxPSB_(%"class.std::__1::complex"*, %"class.std::__1::complex"*, i64*, i64*)

declare i64 @_ZN8vfun_sinINSt3__17complexIdEES2_E7iterateILN3wrt13runtime_flagsE0ELS6_1EL15increment_class0EEExPS2_PKS2_RKxPSB_(%"class.std::__1::complex"*, %"class.std::__1::complex"*, i64*, i64*)

declare i64 @_ZN8vfun_sinINSt3__17complexIdEES2_E7iterateILN3wrt13runtime_flagsE0ELS6_0EL15increment_class1EEExPS2_PKS2_RKxPSB_(%"class.std::__1::complex"*, %"class.std::__1::complex"*, i64*, i64*)

declare i64 @_ZN8vfun_sinINSt3__17complexIdEES2_E7iterateILN3wrt13runtime_flagsE0ELS6_0EL15increment_class0EEExPS2_PKS2_RKxPSB_(%"class.std::__1::complex"*, %"class.std::__1::complex"*, i64*, i64*)

declare void @vzSin(i64, %"class.std::__1::complex"*, %"class.std::__1::complex"*)

declare i64 @_ZN8vfun_sinIddE7iterateILN3wrt13runtime_flagsE1ELS3_0EL15increment_class1EEExPdPKdRKxPS8_(double*, double*, i64*, i64*)

declare i64 @_ZN8vfun_sinIddE7iterateILN3wrt13runtime_flagsE1ELS3_0EL15increment_class0EEExPdPKdRKxPS8_(double*, double*, i64*, i64*)

declare i64 @_ZN8vfun_sinIddE7iterateILN3wrt13runtime_flagsE0ELS3_1EL15increment_class1EEExPdPKdRKxPS8_(double*, double*, i64*, i64*)

declare i64 @_ZN8vfun_sinIddE7iterateILN3wrt13runtime_flagsE0ELS3_1EL15increment_class0EEExPdPKdRKxPS8_(double*, double*, i64*, i64*)

declare i64 @_ZN8vfun_sinIddE7iterateILN3wrt13runtime_flagsE0ELS3_0EL15increment_class1EEExPdPKdRKxPS8_(double*, double*, i64*, i64*)

declare i64 @_ZN8vfun_sinIddE7iterateILN3wrt13runtime_flagsE0ELS3_0EL15increment_class0EEExPdPKdRKxPS8_(double*, double*, i64*, i64*)

declare void @vdSin(i64, double*, double*)

declare i64 @machfunc_i_copy(i8*, i8*, i64, i64*, i32)

declare i64 @_ZN9vfun_copyIxxE7iterateILN3wrt13runtime_flagsE0ELS3_1EL15increment_class1EEExPxPKxRS6_S7_(i64*, i64*, i64*, i64*)

declare i64 @_ZN9vfun_copyIxxE7iterateILN3wrt13runtime_flagsE0ELS3_1EL15increment_class0EEExPxPKxRS6_S7_(i64*, i64*, i64*, i64*)

declare i64 @_ZN9vfun_copyIxxE7iterateILN3wrt13runtime_flagsE0ELS3_0EL15increment_class1EEExPxPKxRS6_S7_(i64*, i64*, i64*, i64*)

declare i64 @_ZN9vfun_copyIxxE7iterateILN3wrt13runtime_flagsE0ELS3_0EL15increment_class0EEExPxPKxRS6_S7_(i64*, i64*, i64*, i64*)

declare i64 @machfunc_d_copy(i8*, i8*, i64, i64*, i32)

declare i64 @_ZN9vfun_copyIddE7iterateILN3wrt13runtime_flagsE1ELS3_0EL15increment_class1EEExPdPKdRKxPS8_(double*, double*, i64*, i64*)

declare i64 @_ZN9vfun_copyIddE7iterateILN3wrt13runtime_flagsE1ELS3_0EL15increment_class0EEExPdPKdRKxPS8_(double*, double*, i64*, i64*)

declare i64 @_ZN9vfun_copyIddE7iterateILN3wrt13runtime_flagsE0ELS3_1EL15increment_class1EEExPdPKdRKxPS8_(double*, double*, i64*, i64*)

declare i64 @_ZN9vfun_copyIddE7iterateILN3wrt13runtime_flagsE0ELS3_1EL15increment_class0EEExPdPKdRKxPS8_(double*, double*, i64*, i64*)

declare i64 @_ZN9vfun_copyIddE7iterateILN3wrt13runtime_flagsE0ELS3_0EL15increment_class1EEExPdPKdRKxPS8_(double*, double*, i64*, i64*)

declare i64 @_ZN9vfun_copyIddE7iterateILN3wrt13runtime_flagsE0ELS3_0EL15increment_class0EEExPdPKdRKxPS8_(double*, double*, i64*, i64*)

declare i64 @machfunc_c_copy(i8*, i8*, i64, i64*, i32)

declare i64 @_ZN9vfun_copyINSt3__17complexIdEES2_E7iterateILN3wrt13runtime_flagsE1ELS6_0EL15increment_class1EEExPS2_PKS2_RKxPSB_(%"class.std::__1::complex"*, %"class.std::__1::complex"*, i64*, i64*)

declare i64 @_ZN9vfun_copyINSt3__17complexIdEES2_E7iterateILN3wrt13runtime_flagsE1ELS6_0EL15increment_class0EEExPS2_PKS2_RKxPSB_(%"class.std::__1::complex"*, %"class.std::__1::complex"*, i64*, i64*)

declare i64 @_ZN9vfun_copyINSt3__17complexIdEES2_E7iterateILN3wrt13runtime_flagsE0ELS6_1EL15increment_class1EEExPS2_PKS2_RKxPSB_(%"class.std::__1::complex"*, %"class.std::__1::complex"*, i64*, i64*)

declare i64 @_ZN9vfun_copyINSt3__17complexIdEES2_E7iterateILN3wrt13runtime_flagsE0ELS6_1EL15increment_class0EEExPS2_PKS2_RKxPSB_(%"class.std::__1::complex"*, %"class.std::__1::complex"*, i64*, i64*)

declare i64 @_ZN9vfun_copyINSt3__17complexIdEES2_E7iterateILN3wrt13runtime_flagsE0ELS6_0EL15increment_class1EEExPS2_PKS2_RKxPSB_(%"class.std::__1::complex"*, %"class.std::__1::complex"*, i64*, i64*)

declare i64 @_ZN9vfun_copyINSt3__17complexIdEES2_E7iterateILN3wrt13runtime_flagsE0ELS6_0EL15increment_class0EEExPS2_PKS2_RKxPSB_(%"class.std::__1::complex"*, %"class.std::__1::complex"*, i64*, i64*)

declare i64 @machfunc_i_zero(i8*, i8*, i64, i64*, i32)

declare i64 @_ZN9vfun_zeroIxxE7iterateILN3wrt13runtime_flagsE0ELS3_1EL15increment_class1EEExPxPKxRS6_S7_(i64*, i64*, i64*, i64*)

declare i64 @_ZN9vfun_zeroIxxE7iterateILN3wrt13runtime_flagsE0ELS3_1EL15increment_class0EEExPxPKxRS6_S7_(i64*, i64*, i64*, i64*)

declare i64 @_ZN9vfun_zeroIxxE7iterateILN3wrt13runtime_flagsE0ELS3_0EL15increment_class1EEExPxPKxRS6_S7_(i64*, i64*, i64*, i64*)

declare i64 @_ZN9vfun_zeroIxxE7iterateILN3wrt13runtime_flagsE0ELS3_0EL15increment_class0EEExPxPKxRS6_S7_(i64*, i64*, i64*, i64*)

declare i64 @machfunc_d_zero(i8*, i8*, i64, i64*, i32)

declare i64 @_ZN9vfun_zeroIddE7iterateILN3wrt13runtime_flagsE1ELS3_0EL15increment_class1EEExPdPKdRKxPS8_(double*, double*, i64*, i64*)

declare i64 @_ZN9vfun_zeroIddE7iterateILN3wrt13runtime_flagsE1ELS3_0EL15increment_class0EEExPdPKdRKxPS8_(double*, double*, i64*, i64*)

declare i64 @_ZN9vfun_zeroIddE7iterateILN3wrt13runtime_flagsE0ELS3_1EL15increment_class1EEExPdPKdRKxPS8_(double*, double*, i64*, i64*)

declare i64 @_ZN9vfun_zeroIddE7iterateILN3wrt13runtime_flagsE0ELS3_1EL15increment_class0EEExPdPKdRKxPS8_(double*, double*, i64*, i64*)

declare i64 @_ZN9vfun_zeroIddE7iterateILN3wrt13runtime_flagsE0ELS3_0EL15increment_class1EEExPdPKdRKxPS8_(double*, double*, i64*, i64*)

declare i64 @_ZN9vfun_zeroIddE7iterateILN3wrt13runtime_flagsE0ELS3_0EL15increment_class0EEExPdPKdRKxPS8_(double*, double*, i64*, i64*)

declare i64 @machfunc_c_zero(i8*, i8*, i64, i64*, i32)

declare i64 @_ZN9vfun_zeroINSt3__17complexIdEES2_E7iterateILN3wrt13runtime_flagsE1ELS6_0EL15increment_class1EEExPS2_PKS2_RKxPSB_(%"class.std::__1::complex"*, %"class.std::__1::complex"*, i64*, i64*)

declare i64 @_ZN9vfun_zeroINSt3__17complexIdEES2_E7iterateILN3wrt13runtime_flagsE1ELS6_0EL15increment_class0EEExPS2_PKS2_RKxPSB_(%"class.std::__1::complex"*, %"class.std::__1::complex"*, i64*, i64*)

declare i64 @_ZN9vfun_zeroINSt3__17complexIdEES2_E7iterateILN3wrt13runtime_flagsE0ELS6_1EL15increment_class1EEExPS2_PKS2_RKxPSB_(%"class.std::__1::complex"*, %"class.std::__1::complex"*, i64*, i64*)

declare i64 @_ZN9vfun_zeroINSt3__17complexIdEES2_E7iterateILN3wrt13runtime_flagsE0ELS6_1EL15increment_class0EEExPS2_PKS2_RKxPSB_(%"class.std::__1::complex"*, %"class.std::__1::complex"*, i64*, i64*)

declare i64 @_ZN9vfun_zeroINSt3__17complexIdEES2_E7iterateILN3wrt13runtime_flagsE0ELS6_0EL15increment_class1EEExPS2_PKS2_RKxPSB_(%"class.std::__1::complex"*, %"class.std::__1::complex"*, i64*, i64*)

declare i64 @_ZN9vfun_zeroINSt3__17complexIdEES2_E7iterateILN3wrt13runtime_flagsE0ELS6_0EL15increment_class0EEExPS2_PKS2_RKxPSB_(%"class.std::__1::complex"*, %"class.std::__1::complex"*, i64*, i64*)

declare i32 @ReturnRangeType1(i32, i32, i32*)

declare i32 @ReturnType1(i32, i32)

declare i64 @machfunc_ii_dot(i8*, i8*, i8*, i64, i64*, i32)

declare i64 @_ZN8vfun_dotIxxxE7iterateILN3wrt13runtime_flagsE0ELS3_1EL15increment_class1EEExPxPKxS7_RS6_S7_(i64*, i64*, i64*, i64*, i64*)

declare i64 @_ZN8vfun_dotIxxxE7iterateILN3wrt13runtime_flagsE0ELS3_1EL15increment_class0EEExPxPKxS7_RS6_S7_(i64*, i64*, i64*, i64*, i64*)

declare i64 @_ZN8vfun_dotIxxxE7iterateILN3wrt13runtime_flagsE0ELS3_0EL15increment_class1EEExPxPKxS7_RS6_S7_(i64*, i64*, i64*, i64*, i64*)

declare i64 @_ZN8vfun_dotIxxxE7iterateILN3wrt13runtime_flagsE0ELS3_0EL15increment_class0EEExPxPKxS7_RS6_S7_(i64*, i64*, i64*, i64*, i64*)

declare i64 @_ZN3wrt9scalar_op6binaryL7plus_opIxxLNS_13runtime_flagsE0EEENSt3__19enable_ifIXaasr11is_integralIT_EE5valuesr11is_integralIT0_EE5valueENS1_6detail7op_infoILNS8_2opE19EN7rt_typeIS6_E4typeENSB_IS7_E4typeEE11result_typeEE4typeERKNSG_19first_argument_typeERKNSG_20second_argument_typeE.30(i64*, i64*)

declare i64 @_ZN3wrt9scalar_op6binaryL7plus_opIxxLNS_13runtime_flagsE1EEENSt3__19enable_ifIXaasr11is_integralIT_EE5valuesr11is_integralIT0_EE5valueENS1_6detail7op_infoILNS8_2opE19EN7rt_typeIS6_E4typeENSB_IS7_E4typeEE11result_typeEE4typeERKNSG_19first_argument_typeERKNSG_20second_argument_typeE.31(i64*, i64*)

declare void @.omp_outlined..32(i32*, i32*, i64*, i64*, i64*, i64*, i64*, i64*, i64*, i64*, i64*, i64 (i64*, i64*, i64*, i64*, i64*)**, i64**, i64**, i64**, i64**, i64 (i64*, i64*)**)

declare i64 @machfunc_ii_plus(i8*, i8*, i8*, i64, i64*, i32)

declare i64 @machfunc_id_plus(i8*, i8*, i8*, i64, i64*, i32)

declare i64 @machfunc_ic_plus(i8*, i8*, i8*, i64, i64*, i32)

declare i64 @_ZL16machfunc_di_plusPvPKvS1_xPKxj(i8*, i8*, i8*, i64, i64*, i32)

declare i64 @machfunc_dd_plus(i8*, i8*, i8*, i64, i64*, i32)

declare i64 @machfunc_dc_plus(i8*, i8*, i8*, i64, i64*, i32)

declare i64 @_ZL16machfunc_ci_plusPvPKvS1_xPKxj(i8*, i8*, i8*, i64, i64*, i32)

declare i64 @_ZL16machfunc_cd_plusPvPKvS1_xPKxj(i8*, i8*, i8*, i64, i64*, i32)

declare i64 @machfunc_cc_plus(i8*, i8*, i8*, i64, i64*, i32)

declare i64 @machfunc_ii_subtract(i8*, i8*, i8*, i64, i64*, i32)

declare i64 @machfunc_id_subtract(i8*, i8*, i8*, i64, i64*, i32)

declare i64 @machfunc_ic_subtract(i8*, i8*, i8*, i64, i64*, i32)

declare i64 @machfunc_di_subtract(i8*, i8*, i8*, i64, i64*, i32)

declare i64 @machfunc_dd_subtract(i8*, i8*, i8*, i64, i64*, i32)

declare i64 @machfunc_dc_subtract(i8*, i8*, i8*, i64, i64*, i32)

declare i64 @machfunc_ci_subtract(i8*, i8*, i8*, i64, i64*, i32)

declare i64 @machfunc_cd_subtract(i8*, i8*, i8*, i64, i64*, i32)

declare i64 @machfunc_cc_subtract(i8*, i8*, i8*, i64, i64*, i32)

declare i64 @machfunc_ii_times(i8*, i8*, i8*, i64, i64*, i32)

declare i64 @machfunc_id_times(i8*, i8*, i8*, i64, i64*, i32)

declare i64 @machfunc_ic_times(i8*, i8*, i8*, i64, i64*, i32)

declare i64 @machfunc_di_times(i8*, i8*, i8*, i64, i64*, i32)

declare i64 @machfunc_dd_times(i8*, i8*, i8*, i64, i64*, i32)

declare i64 @machfunc_dc_times(i8*, i8*, i8*, i64, i64*, i32)

declare i64 @machfunc_ci_times(i8*, i8*, i8*, i64, i64*, i32)

declare i64 @machfunc_cd_times(i8*, i8*, i8*, i64, i64*, i32)

declare i64 @machfunc_cc_times(i8*, i8*, i8*, i64, i64*, i32)

declare i64 @machfunc_id_div(i8*, i8*, i8*, i64, i64*, i32)

declare i64 @machfunc_ic_div(i8*, i8*, i8*, i64, i64*, i32)

declare i64 @machfunc_di_div(i8*, i8*, i8*, i64, i64*, i32)

declare i64 @machfunc_dd_div(i8*, i8*, i8*, i64, i64*, i32)

declare i64 @machfunc_dc_div(i8*, i8*, i8*, i64, i64*, i32)

declare i64 @machfunc_ci_div(i8*, i8*, i8*, i64, i64*, i32)

declare i64 @machfunc_cd_div(i8*, i8*, i8*, i64, i64*, i32)

declare i64 @machfunc_cc_div(i8*, i8*, i8*, i64, i64*, i32)

declare i64 @machfunc_ii_mod(i8*, i8*, i8*, i64, i64*, i32)

declare i64 @_ZL15machfunc_id_modPvPKvS1_xPKxj(i8*, i8*, i8*, i64, i64*, i32)

declare i64 @_ZL15machfunc_ic_modPvPKvS1_xPKxj(i8*, i8*, i8*, i64, i64*, i32)

declare i64 @_ZL15machfunc_di_modPvPKvS1_xPKxj(i8*, i8*, i8*, i64, i64*, i32)

declare i64 @machfunc_dd_mod(i8*, i8*, i8*, i64, i64*, i32)

declare i64 @_ZL15machfunc_dc_modPvPKvS1_xPKxj(i8*, i8*, i8*, i64, i64*, i32)

declare i64 @_ZL15machfunc_ci_modPvPKvS1_xPKxj(i8*, i8*, i8*, i64, i64*, i32)

declare i64 @_ZL15machfunc_cd_modPvPKvS1_xPKxj(i8*, i8*, i8*, i64, i64*, i32)

declare i64 @machfunc_cc_mod(i8*, i8*, i8*, i64, i64*, i32)

declare i64 @machfunc_ii_quotient(i8*, i8*, i8*, i64, i64*, i32)

declare i64 @_ZL20machfunc_id_quotientPvPKvS1_xPKxj(i8*, i8*, i8*, i64, i64*, i32)

declare i64 @_ZL20machfunc_di_quotientPvPKvS1_xPKxj(i8*, i8*, i8*, i64, i64*, i32)

declare i64 @machfunc_dd_quotient(i8*, i8*, i8*, i64, i64*, i32)

declare i64 @machfunc_ii_pow(i8*, i8*, i8*, i64, i64*, i32)

declare i64 @machfunc_id_pow(i8*, i8*, i8*, i64, i64*, i32)

declare i64 @machfunc_ic_pow(i8*, i8*, i8*, i64, i64*, i32)

declare i64 @machfunc_di_pow(i8*, i8*, i8*, i64, i64*, i32)

declare i64 @machfunc_dd_pow(i8*, i8*, i8*, i64, i64*, i32)

declare i64 @machfunc_dc_pow(i8*, i8*, i8*, i64, i64*, i32)

declare i64 @machfunc_ci_pow(i8*, i8*, i8*, i64, i64*, i32)

declare i64 @machfunc_cd_pow(i8*, i8*, i8*, i64, i64*, i32)

declare i64 @machfunc_cc_pow(i8*, i8*, i8*, i64, i64*, i32)

declare i64 @_ZL15machfunc_id_logPvPKvS1_xPKxj(i8*, i8*, i8*, i64, i64*, i32)

declare i64 @_ZL15machfunc_ic_logPvPKvS1_xPKxj(i8*, i8*, i8*, i64, i64*, i32)

declare i64 @_ZL15machfunc_di_logPvPKvS1_xPKxj(i8*, i8*, i8*, i64, i64*, i32)

declare i64 @_ZL15machfunc_dd_logPvPKvS1_xPKxj(i8*, i8*, i8*, i64, i64*, i32)

declare i64 @_ZL15machfunc_dc_logPvPKvS1_xPKxj(i8*, i8*, i8*, i64, i64*, i32)

declare i64 @_ZL15machfunc_ci_logPvPKvS1_xPKxj(i8*, i8*, i8*, i64, i64*, i32)

declare i64 @_ZL15machfunc_cd_logPvPKvS1_xPKxj(i8*, i8*, i8*, i64, i64*, i32)

declare i64 @_ZL15machfunc_cc_logPvPKvS1_xPKxj(i8*, i8*, i8*, i64, i64*, i32)

declare i64 @_ZL17machfunc_id_atan2PvPKvS1_xPKxj(i8*, i8*, i8*, i64, i64*, i32)

declare i64 @_ZL17machfunc_ic_atan2PvPKvS1_xPKxj(i8*, i8*, i8*, i64, i64*, i32)

declare i64 @_ZL17machfunc_di_atan2PvPKvS1_xPKxj(i8*, i8*, i8*, i64, i64*, i32)

declare i64 @_ZL17machfunc_dd_atan2PvPKvS1_xPKxj(i8*, i8*, i8*, i64, i64*, i32)

declare i64 @_ZL17machfunc_dc_atan2PvPKvS1_xPKxj(i8*, i8*, i8*, i64, i64*, i32)

declare i64 @_ZL17machfunc_ci_atan2PvPKvS1_xPKxj(i8*, i8*, i8*, i64, i64*, i32)

declare i64 @_ZL17machfunc_cd_atan2PvPKvS1_xPKxj(i8*, i8*, i8*, i64, i64*, i32)

declare i64 @_ZL17machfunc_cc_atan2PvPKvS1_xPKxj(i8*, i8*, i8*, i64, i64*, i32)

declare i64 @machfunc_ii_bitand(i8*, i8*, i8*, i64, i64*, i32)

declare i64 @machfunc_ii_bitor(i8*, i8*, i8*, i64, i64*, i32)

declare i64 @machfunc_ii_bitxor(i8*, i8*, i8*, i64, i64*, i32)

declare i64 @_ZL16machfunc_dd_chopPvPKvS1_xPKxj(i8*, i8*, i8*, i64, i64*, i32)

declare i64 @_ZL16machfunc_cd_chopPvPKvS1_xPKxj(i8*, i8*, i8*, i64, i64*, i32)

declare i64 @machfunc_ii_abserr(i8*, i8*, i8*, i64, i64*, i32)

declare i64 @_ZL18machfunc_id_abserrPvPKvS1_xPKxj(i8*, i8*, i8*, i64, i64*, i32)

declare i64 @_ZL18machfunc_ic_abserrPvPKvS1_xPKxj(i8*, i8*, i8*, i64, i64*, i32)

declare i64 @_ZL18machfunc_di_abserrPvPKvS1_xPKxj(i8*, i8*, i8*, i64, i64*, i32)

declare i64 @machfunc_dd_abserr(i8*, i8*, i8*, i64, i64*, i32)

declare i64 @_ZL18machfunc_dc_abserrPvPKvS1_xPKxj(i8*, i8*, i8*, i64, i64*, i32)

declare i64 @_ZL18machfunc_ci_abserrPvPKvS1_xPKxj(i8*, i8*, i8*, i64, i64*, i32)

declare i64 @_ZL18machfunc_cd_abserrPvPKvS1_xPKxj(i8*, i8*, i8*, i64, i64*, i32)

declare i64 @machfunc_cc_abserr(i8*, i8*, i8*, i64, i64*, i32)

declare i64 @_ZL18machfunc_id_relerrPvPKvS1_xPKxj(i8*, i8*, i8*, i64, i64*, i32)

declare i64 @_ZL18machfunc_ic_relerrPvPKvS1_xPKxj(i8*, i8*, i8*, i64, i64*, i32)

declare i64 @_ZL18machfunc_di_relerrPvPKvS1_xPKxj(i8*, i8*, i8*, i64, i64*, i32)

declare i64 @machfunc_dd_relerr(i8*, i8*, i8*, i64, i64*, i32)

declare i64 @_ZL18machfunc_dc_relerrPvPKvS1_xPKxj(i8*, i8*, i8*, i64, i64*, i32)

declare i64 @_ZL18machfunc_ci_relerrPvPKvS1_xPKxj(i8*, i8*, i8*, i64, i64*, i32)

declare i64 @_ZL18machfunc_cd_relerrPvPKvS1_xPKxj(i8*, i8*, i8*, i64, i64*, i32)

declare i64 @machfunc_cc_relerr(i8*, i8*, i8*, i64, i64*, i32)

declare i64 @machfunc_ii_maxabs(i8*, i8*, i8*, i64, i64*, i32)

declare i64 @machfunc_dd_maxabs(i8*, i8*, i8*, i64, i64*, i32)

declare i64 @machfunc_cc_maxabs(i8*, i8*, i8*, i64, i64*, i32)

declare i64 @machfunc_ii_intexp(i8*, i8*, i8*, i64, i64*, i32)

declare i64 @machfunc_ii_intlen(i8*, i8*, i8*, i64, i64*, i32)

declare i64 @machfunc_ii_bitshiftleft(i8*, i8*, i8*, i64, i64*, i32)

declare i64 @machfunc_di_bitshiftleft(i8*, i8*, i8*, i64, i64*, i32)

declare i64 @machfunc_ci_bitshiftleft(i8*, i8*, i8*, i64, i64*, i32)

declare i64 @machfunc_ii_bitshiftright(i8*, i8*, i8*, i64, i64*, i32)

declare i64 @machfunc_di_bitshiftright(i8*, i8*, i8*, i64, i64*, i32)

declare i64 @machfunc_ci_bitshiftright(i8*, i8*, i8*, i64, i64*, i32)

declare i64 @_ZL19machfunc_ii_unitizePvPKvS1_xPKxj(i8*, i8*, i8*, i64, i64*, i32)

declare i64 @_ZL19machfunc_dd_unitizePvPKvS1_xPKxj(i8*, i8*, i8*, i64, i64*, i32)

declare i64 @_ZL19machfunc_cd_unitizePvPKvS1_xPKxj(i8*, i8*, i8*, i64, i64*, i32)

declare i64 @_ZN12vfun_unitizeIxNSt3__17complexIdEEdE7iterateILN3wrt13runtime_flagsE0ELS6_1EL15increment_class0EEExPxPKS2_PKdRKxPSD_(i64*, %"class.std::__1::complex"*, double*, i64*, i64*)

declare i64 @_ZN12vfun_unitizeIxNSt3__17complexIdEEdE7iterateILN3wrt13runtime_flagsE0ELS6_0EL15increment_class0EEExPxPKS2_PKdRKxPSD_(i64*, %"class.std::__1::complex"*, double*, i64*, i64*)

declare void @.omp_outlined..12.38(i32*, i32*, i64*, i64*, i64*, i64*, i64*, i64*, i64*, i64*, i64*, i64 (i64*, %"class.std::__1::complex"*, double*, i64*, i64*)**, i64**, %"class.std::__1::complex"**, double**, i64**)

declare i64 @_ZN3wrt9scalar_op6binaryL10unitize_opINSt3__17complexIdEEdLNS_13runtime_flagsE1EEENS3_9enable_ifIXntsr10is_complexIT0_EE5valueENS1_6detail7op_infoILNS9_2opE27EN7rt_typeIT_E4typeENSC_IS8_E4typeEE11result_typeEE4typeERKNSI_19first_argument_typeERKNSI_20second_argument_typeE(%"class.std::__1::complex"*, double*)

declare i64 @_ZN12vfun_unitizeIxNSt3__17complexIdEEdE7iterateILN3wrt13runtime_flagsE0ELS6_0EL15increment_class1EEExPxPKS2_PKdRKxPSD_(i64*, %"class.std::__1::complex"*, double*, i64*, i64*)

declare i64 @_ZN12vfun_unitizeIxNSt3__17complexIdEEdE7iterateILN3wrt13runtime_flagsE0ELS6_0EL15increment_class2EEExPxPKS2_PKdRKxPSD_(i64*, %"class.std::__1::complex"*, double*, i64*, i64*)

declare i64 @_ZN12vfun_unitizeIxNSt3__17complexIdEEdE7iterateILN3wrt13runtime_flagsE0ELS6_0EL15increment_class3EEExPxPKS2_PKdRKxPSD_(i64*, %"class.std::__1::complex"*, double*, i64*, i64*)

declare i64 @_ZN12vfun_unitizeIxNSt3__17complexIdEEdE7iterateILN3wrt13runtime_flagsE0ELS6_1EL15increment_class1EEExPxPKS2_PKdRKxPSD_(i64*, %"class.std::__1::complex"*, double*, i64*, i64*)

declare i64 @_ZN12vfun_unitizeIxNSt3__17complexIdEEdE7iterateILN3wrt13runtime_flagsE0ELS6_1EL15increment_class2EEExPxPKS2_PKdRKxPSD_(i64*, %"class.std::__1::complex"*, double*, i64*, i64*)

declare i64 @_ZN12vfun_unitizeIxNSt3__17complexIdEEdE7iterateILN3wrt13runtime_flagsE0ELS6_1EL15increment_class3EEExPxPKS2_PKdRKxPSD_(i64*, %"class.std::__1::complex"*, double*, i64*, i64*)

declare i64 @_ZN12vfun_unitizeIxddE7iterateILN3wrt13runtime_flagsE0ELS3_1EL15increment_class0EEExPxPKdS7_RKxPS8_(i64*, double*, double*, i64*, i64*)

declare i64 @_ZN12vfun_unitizeIxddE7iterateILN3wrt13runtime_flagsE0ELS3_0EL15increment_class0EEExPxPKdS7_RKxPS8_(i64*, double*, double*, i64*, i64*)

declare void @.omp_outlined..36(i32*, i32*, i64*, i64*, i64*, i64*, i64*, i64*, i64*, i64*, i64*, i64 (i64*, double*, double*, i64*, i64*)**, i64**, double**, double**, i64**)

declare i64 @_ZN3wrt9scalar_op6binaryL10unitize_opIddLNS_13runtime_flagsE1EEENSt3__19enable_ifIXntsr10is_complexIT0_EE5valueENS1_6detail7op_infoILNS7_2opE27EN7rt_typeIT_E4typeENSA_IS6_E4typeEE11result_typeEE4typeERKNSG_19first_argument_typeERKNSG_20second_argument_typeE(double*, double*)

declare i64 @_ZN12vfun_unitizeIxddE7iterateILN3wrt13runtime_flagsE0ELS3_0EL15increment_class1EEExPxPKdS7_RKxPS8_(i64*, double*, double*, i64*, i64*)

declare i64 @_ZN12vfun_unitizeIxddE7iterateILN3wrt13runtime_flagsE0ELS3_0EL15increment_class2EEExPxPKdS7_RKxPS8_(i64*, double*, double*, i64*, i64*)

declare i64 @_ZN12vfun_unitizeIxddE7iterateILN3wrt13runtime_flagsE0ELS3_0EL15increment_class3EEExPxPKdS7_RKxPS8_(i64*, double*, double*, i64*, i64*)

declare i64 @_ZN12vfun_unitizeIxddE7iterateILN3wrt13runtime_flagsE0ELS3_1EL15increment_class1EEExPxPKdS7_RKxPS8_(i64*, double*, double*, i64*, i64*)

declare i64 @_ZN12vfun_unitizeIxddE7iterateILN3wrt13runtime_flagsE0ELS3_1EL15increment_class2EEExPxPKdS7_RKxPS8_(i64*, double*, double*, i64*, i64*)

declare i64 @_ZN12vfun_unitizeIxddE7iterateILN3wrt13runtime_flagsE0ELS3_1EL15increment_class3EEExPxPKdS7_RKxPS8_(i64*, double*, double*, i64*, i64*)

declare i64 @_ZN12vfun_unitizeIxxxE7iterateILN3wrt13runtime_flagsE0ELS3_1EL15increment_class0EEExPxPKxS7_RS6_S7_(i64*, i64*, i64*, i64*, i64*)

declare i64 @_ZN12vfun_unitizeIxxxE7iterateILN3wrt13runtime_flagsE0ELS3_0EL15increment_class0EEExPxPKxS7_RS6_S7_(i64*, i64*, i64*, i64*, i64*)

declare void @.omp_outlined..14.42(i32*, i32*, i64*, i64*, i64*, i64*, i64*, i64*, i64*, i64*, i64*, i64 (i64*, i64*, i64*, i64*, i64*)**, i64**, i64**, i64**, i64**)

declare i64 @_ZN12vfun_unitizeIxxxE7iterateILN3wrt13runtime_flagsE0ELS3_0EL15increment_class1EEExPxPKxS7_RS6_S7_(i64*, i64*, i64*, i64*, i64*)

declare i64 @_ZN12vfun_unitizeIxxxE7iterateILN3wrt13runtime_flagsE0ELS3_0EL15increment_class2EEExPxPKxS7_RS6_S7_(i64*, i64*, i64*, i64*, i64*)

declare i64 @_ZN12vfun_unitizeIxxxE7iterateILN3wrt13runtime_flagsE0ELS3_0EL15increment_class3EEExPxPKxS7_RS6_S7_(i64*, i64*, i64*, i64*, i64*)

declare i64 @_ZN12vfun_unitizeIxxxE7iterateILN3wrt13runtime_flagsE0ELS3_1EL15increment_class1EEExPxPKxS7_RS6_S7_(i64*, i64*, i64*, i64*, i64*)

declare i64 @_ZN12vfun_unitizeIxxxE7iterateILN3wrt13runtime_flagsE0ELS3_1EL15increment_class2EEExPxPKxS7_RS6_S7_(i64*, i64*, i64*, i64*, i64*)

declare i64 @_ZN12vfun_unitizeIxxxE7iterateILN3wrt13runtime_flagsE0ELS3_1EL15increment_class3EEExPxPKxS7_RS6_S7_(i64*, i64*, i64*, i64*, i64*)

declare i64 @_ZN19vfun_bit_shiftrightINSt3__17complexIdEES2_xE7iterateILN3wrt13runtime_flagsE1ELS6_0EL15increment_class0EEExPS2_PKS2_PKxRSB_SC_(%"class.std::__1::complex"*, %"class.std::__1::complex"*, i64*, i64*, i64*)

declare i64 @_ZN19vfun_bit_shiftrightINSt3__17complexIdEES2_xE7iterateILN3wrt13runtime_flagsE0ELS6_1EL15increment_class0EEExPS2_PKS2_PKxRSB_SC_(%"class.std::__1::complex"*, %"class.std::__1::complex"*, i64*, i64*, i64*)

declare i64 @_ZN19vfun_bit_shiftrightINSt3__17complexIdEES2_xE7iterateILN3wrt13runtime_flagsE0ELS6_0EL15increment_class0EEExPS2_PKS2_PKxRSB_SC_(%"class.std::__1::complex"*, %"class.std::__1::complex"*, i64*, i64*, i64*)

declare void @.omp_outlined..24(i32*, i32*, i64*, i64*, i64*, i64*, i64*, i64*, i64*, i64*, i64*, i64 (%"class.std::__1::complex"*, %"class.std::__1::complex"*, i64*, i64*, i64*)**, %"class.std::__1::complex"**, %"class.std::__1::complex"**, i64**, i64**)

declare { double, double } @_ZN3wrt9scalar_op6binaryL17bit_shiftright_opINSt3__17complexIdEExLNS_13runtime_flagsE0EEENS3_9enable_ifIXaaoosr11is_integralIT_EE5valuesr28is_floating_point_or_complexIS8_EE5valuesr18is_signed_integralIT0_EE5valueENS1_6detail7op_infoILNSA_2opE6EN7rt_typeIS8_E4typeENSD_IS9_E4typeEE11result_typeEE4typeERKNSI_19first_argument_typeERKNSI_20second_argument_typeE(%"class.std::__1::complex"*, i64)

declare { double, double } @_ZN3wrt9scalar_op6binaryL17bit_shiftright_opINSt3__17complexIdEExLNS_13runtime_flagsE1EEENS3_9enable_ifIXaaoosr11is_integralIT_EE5valuesr28is_floating_point_or_complexIS8_EE5valuesr18is_signed_integralIT0_EE5valueENS1_6detail7op_infoILNSA_2opE6EN7rt_typeIS8_E4typeENSD_IS9_E4typeEE11result_typeEE4typeERKNSI_19first_argument_typeERKNSI_20second_argument_typeE(%"class.std::__1::complex"*, i64)

declare i64 @_ZN19vfun_bit_shiftrightINSt3__17complexIdEES2_xE7iterateILN3wrt13runtime_flagsE0ELS6_0EL15increment_class1EEExPS2_PKS2_PKxRSB_SC_(%"class.std::__1::complex"*, %"class.std::__1::complex"*, i64*, i64*, i64*)

declare i64 @_ZN19vfun_bit_shiftrightINSt3__17complexIdEES2_xE7iterateILN3wrt13runtime_flagsE0ELS6_0EL15increment_class2EEExPS2_PKS2_PKxRSB_SC_(%"class.std::__1::complex"*, %"class.std::__1::complex"*, i64*, i64*, i64*)

declare i64 @_ZN19vfun_bit_shiftrightINSt3__17complexIdEES2_xE7iterateILN3wrt13runtime_flagsE0ELS6_0EL15increment_class3EEExPS2_PKS2_PKxRSB_SC_(%"class.std::__1::complex"*, %"class.std::__1::complex"*, i64*, i64*, i64*)

declare i64 @_ZN19vfun_bit_shiftrightINSt3__17complexIdEES2_xE7iterateILN3wrt13runtime_flagsE0ELS6_1EL15increment_class1EEExPS2_PKS2_PKxRSB_SC_(%"class.std::__1::complex"*, %"class.std::__1::complex"*, i64*, i64*, i64*)

declare i64 @_ZN19vfun_bit_shiftrightINSt3__17complexIdEES2_xE7iterateILN3wrt13runtime_flagsE0ELS6_1EL15increment_class2EEExPS2_PKS2_PKxRSB_SC_(%"class.std::__1::complex"*, %"class.std::__1::complex"*, i64*, i64*, i64*)

declare i64 @_ZN19vfun_bit_shiftrightINSt3__17complexIdEES2_xE7iterateILN3wrt13runtime_flagsE0ELS6_1EL15increment_class3EEExPS2_PKS2_PKxRSB_SC_(%"class.std::__1::complex"*, %"class.std::__1::complex"*, i64*, i64*, i64*)

declare i64 @_ZN19vfun_bit_shiftrightINSt3__17complexIdEES2_xE7iterateILN3wrt13runtime_flagsE1ELS6_0EL15increment_class1EEExPS2_PKS2_PKxRSB_SC_(%"class.std::__1::complex"*, %"class.std::__1::complex"*, i64*, i64*, i64*)

declare i64 @_ZN19vfun_bit_shiftrightINSt3__17complexIdEES2_xE7iterateILN3wrt13runtime_flagsE1ELS6_0EL15increment_class2EEExPS2_PKS2_PKxRSB_SC_(%"class.std::__1::complex"*, %"class.std::__1::complex"*, i64*, i64*, i64*)

declare i64 @_ZN19vfun_bit_shiftrightINSt3__17complexIdEES2_xE7iterateILN3wrt13runtime_flagsE1ELS6_0EL15increment_class3EEExPS2_PKS2_PKxRSB_SC_(%"class.std::__1::complex"*, %"class.std::__1::complex"*, i64*, i64*, i64*)

declare i64 @_ZN19vfun_bit_shiftrightIddxE7iterateILN3wrt13runtime_flagsE1ELS3_0EL15increment_class0EEExPdPKdPKxRS8_S9_(double*, double*, i64*, i64*, i64*)

declare i64 @_ZN19vfun_bit_shiftrightIddxE7iterateILN3wrt13runtime_flagsE0ELS3_1EL15increment_class0EEExPdPKdPKxRS8_S9_(double*, double*, i64*, i64*, i64*)

declare i64 @_ZN19vfun_bit_shiftrightIddxE7iterateILN3wrt13runtime_flagsE0ELS3_0EL15increment_class0EEExPdPKdPKxRS8_S9_(double*, double*, i64*, i64*, i64*)

declare void @.omp_outlined..18(i32*, i32*, i64*, i64*, i64*, i64*, i64*, i64*, i64*, i64*, i64*, i64 (double*, double*, i64*, i64*, i64*)**, double**, double**, i64**, i64**)

declare i64 @_ZN19vfun_bit_shiftrightIddxE7iterateILN3wrt13runtime_flagsE0ELS3_0EL15increment_class1EEExPdPKdPKxRS8_S9_(double*, double*, i64*, i64*, i64*)

declare i64 @_ZN19vfun_bit_shiftrightIddxE7iterateILN3wrt13runtime_flagsE0ELS3_0EL15increment_class2EEExPdPKdPKxRS8_S9_(double*, double*, i64*, i64*, i64*)

declare i64 @_ZN19vfun_bit_shiftrightIddxE7iterateILN3wrt13runtime_flagsE0ELS3_0EL15increment_class3EEExPdPKdPKxRS8_S9_(double*, double*, i64*, i64*, i64*)

declare i64 @_ZN19vfun_bit_shiftrightIddxE7iterateILN3wrt13runtime_flagsE0ELS3_1EL15increment_class1EEExPdPKdPKxRS8_S9_(double*, double*, i64*, i64*, i64*)

declare i64 @_ZN19vfun_bit_shiftrightIddxE7iterateILN3wrt13runtime_flagsE0ELS3_1EL15increment_class2EEExPdPKdPKxRS8_S9_(double*, double*, i64*, i64*, i64*)

declare i64 @_ZN19vfun_bit_shiftrightIddxE7iterateILN3wrt13runtime_flagsE0ELS3_1EL15increment_class3EEExPdPKdPKxRS8_S9_(double*, double*, i64*, i64*, i64*)

declare i64 @_ZN19vfun_bit_shiftrightIddxE7iterateILN3wrt13runtime_flagsE1ELS3_0EL15increment_class1EEExPdPKdPKxRS8_S9_(double*, double*, i64*, i64*, i64*)

declare i64 @_ZN19vfun_bit_shiftrightIddxE7iterateILN3wrt13runtime_flagsE1ELS3_0EL15increment_class2EEExPdPKdPKxRS8_S9_(double*, double*, i64*, i64*, i64*)

declare i64 @_ZN19vfun_bit_shiftrightIddxE7iterateILN3wrt13runtime_flagsE1ELS3_0EL15increment_class3EEExPdPKdPKxRS8_S9_(double*, double*, i64*, i64*, i64*)

declare i64 @_ZN19vfun_bit_shiftrightIxxxE7iterateILN3wrt13runtime_flagsE0ELS3_1EL15increment_class0EEExPxPKxS7_RS6_S7_(i64*, i64*, i64*, i64*, i64*)

declare i64 @_ZN19vfun_bit_shiftrightIxxxE7iterateILN3wrt13runtime_flagsE0ELS3_0EL15increment_class0EEExPxPKxS7_RS6_S7_(i64*, i64*, i64*, i64*, i64*)

declare i64 @_ZN3wrt9scalar_op6binaryL17bit_shiftright_opIxxLNS_13runtime_flagsE1EEENSt3__19enable_ifIXaaoosr11is_integralIT_EE5valuesr28is_floating_point_or_complexIS6_EE5valuesr18is_signed_integralIT0_EE5valueENS1_6detail7op_infoILNS8_2opE6EN7rt_typeIS6_E4typeENSB_IS7_E4typeEE11result_typeEE4typeERKNSG_19first_argument_typeERKNSG_20second_argument_typeE(i64*, i64)

declare i64 @_ZN19vfun_bit_shiftrightIxxxE7iterateILN3wrt13runtime_flagsE0ELS3_0EL15increment_class1EEExPxPKxS7_RS6_S7_(i64*, i64*, i64*, i64*, i64*)

declare i64 @_ZN19vfun_bit_shiftrightIxxxE7iterateILN3wrt13runtime_flagsE0ELS3_0EL15increment_class2EEExPxPKxS7_RS6_S7_(i64*, i64*, i64*, i64*, i64*)

declare i64 @_ZN19vfun_bit_shiftrightIxxxE7iterateILN3wrt13runtime_flagsE0ELS3_0EL15increment_class3EEExPxPKxS7_RS6_S7_(i64*, i64*, i64*, i64*, i64*)

declare i64 @_ZN19vfun_bit_shiftrightIxxxE7iterateILN3wrt13runtime_flagsE0ELS3_1EL15increment_class1EEExPxPKxS7_RS6_S7_(i64*, i64*, i64*, i64*, i64*)

declare i64 @_ZN19vfun_bit_shiftrightIxxxE7iterateILN3wrt13runtime_flagsE0ELS3_1EL15increment_class2EEExPxPKxS7_RS6_S7_(i64*, i64*, i64*, i64*, i64*)

declare i64 @_ZN19vfun_bit_shiftrightIxxxE7iterateILN3wrt13runtime_flagsE0ELS3_1EL15increment_class3EEExPxPKxS7_RS6_S7_(i64*, i64*, i64*, i64*, i64*)

declare i64 @_ZN18vfun_bit_shiftleftINSt3__17complexIdEES2_xE7iterateILN3wrt13runtime_flagsE1ELS6_0EL15increment_class0EEExPS2_PKS2_PKxRSB_SC_(%"class.std::__1::complex"*, %"class.std::__1::complex"*, i64*, i64*, i64*)

declare i64 @_ZN18vfun_bit_shiftleftINSt3__17complexIdEES2_xE7iterateILN3wrt13runtime_flagsE0ELS6_1EL15increment_class0EEExPS2_PKS2_PKxRSB_SC_(%"class.std::__1::complex"*, %"class.std::__1::complex"*, i64*, i64*, i64*)

declare i64 @_ZN18vfun_bit_shiftleftINSt3__17complexIdEES2_xE7iterateILN3wrt13runtime_flagsE0ELS6_0EL15increment_class0EEExPS2_PKS2_PKxRSB_SC_(%"class.std::__1::complex"*, %"class.std::__1::complex"*, i64*, i64*, i64*)

declare i64 @_ZN18vfun_bit_shiftleftINSt3__17complexIdEES2_xE7iterateILN3wrt13runtime_flagsE0ELS6_0EL15increment_class1EEExPS2_PKS2_PKxRSB_SC_(%"class.std::__1::complex"*, %"class.std::__1::complex"*, i64*, i64*, i64*)

declare i64 @_ZN18vfun_bit_shiftleftINSt3__17complexIdEES2_xE7iterateILN3wrt13runtime_flagsE0ELS6_0EL15increment_class2EEExPS2_PKS2_PKxRSB_SC_(%"class.std::__1::complex"*, %"class.std::__1::complex"*, i64*, i64*, i64*)

declare i64 @_ZN18vfun_bit_shiftleftINSt3__17complexIdEES2_xE7iterateILN3wrt13runtime_flagsE0ELS6_0EL15increment_class3EEExPS2_PKS2_PKxRSB_SC_(%"class.std::__1::complex"*, %"class.std::__1::complex"*, i64*, i64*, i64*)

declare i64 @_ZN18vfun_bit_shiftleftINSt3__17complexIdEES2_xE7iterateILN3wrt13runtime_flagsE0ELS6_1EL15increment_class1EEExPS2_PKS2_PKxRSB_SC_(%"class.std::__1::complex"*, %"class.std::__1::complex"*, i64*, i64*, i64*)

declare i64 @_ZN18vfun_bit_shiftleftINSt3__17complexIdEES2_xE7iterateILN3wrt13runtime_flagsE0ELS6_1EL15increment_class2EEExPS2_PKS2_PKxRSB_SC_(%"class.std::__1::complex"*, %"class.std::__1::complex"*, i64*, i64*, i64*)

declare i64 @_ZN18vfun_bit_shiftleftINSt3__17complexIdEES2_xE7iterateILN3wrt13runtime_flagsE0ELS6_1EL15increment_class3EEExPS2_PKS2_PKxRSB_SC_(%"class.std::__1::complex"*, %"class.std::__1::complex"*, i64*, i64*, i64*)

declare i64 @_ZN18vfun_bit_shiftleftINSt3__17complexIdEES2_xE7iterateILN3wrt13runtime_flagsE1ELS6_0EL15increment_class1EEExPS2_PKS2_PKxRSB_SC_(%"class.std::__1::complex"*, %"class.std::__1::complex"*, i64*, i64*, i64*)

declare i64 @_ZN18vfun_bit_shiftleftINSt3__17complexIdEES2_xE7iterateILN3wrt13runtime_flagsE1ELS6_0EL15increment_class2EEExPS2_PKS2_PKxRSB_SC_(%"class.std::__1::complex"*, %"class.std::__1::complex"*, i64*, i64*, i64*)

declare i64 @_ZN18vfun_bit_shiftleftINSt3__17complexIdEES2_xE7iterateILN3wrt13runtime_flagsE1ELS6_0EL15increment_class3EEExPS2_PKS2_PKxRSB_SC_(%"class.std::__1::complex"*, %"class.std::__1::complex"*, i64*, i64*, i64*)

declare i64 @_ZN18vfun_bit_shiftleftIddxE7iterateILN3wrt13runtime_flagsE1ELS3_0EL15increment_class0EEExPdPKdPKxRS8_S9_(double*, double*, i64*, i64*, i64*)

declare i64 @_ZN18vfun_bit_shiftleftIddxE7iterateILN3wrt13runtime_flagsE0ELS3_1EL15increment_class0EEExPdPKdPKxRS8_S9_(double*, double*, i64*, i64*, i64*)

declare i64 @_ZN18vfun_bit_shiftleftIddxE7iterateILN3wrt13runtime_flagsE0ELS3_0EL15increment_class0EEExPdPKdPKxRS8_S9_(double*, double*, i64*, i64*, i64*)

declare i64 @_ZN18vfun_bit_shiftleftIddxE7iterateILN3wrt13runtime_flagsE0ELS3_0EL15increment_class1EEExPdPKdPKxRS8_S9_(double*, double*, i64*, i64*, i64*)

declare i64 @_ZN18vfun_bit_shiftleftIddxE7iterateILN3wrt13runtime_flagsE0ELS3_0EL15increment_class2EEExPdPKdPKxRS8_S9_(double*, double*, i64*, i64*, i64*)

declare i64 @_ZN18vfun_bit_shiftleftIddxE7iterateILN3wrt13runtime_flagsE0ELS3_0EL15increment_class3EEExPdPKdPKxRS8_S9_(double*, double*, i64*, i64*, i64*)

declare i64 @_ZN18vfun_bit_shiftleftIddxE7iterateILN3wrt13runtime_flagsE0ELS3_1EL15increment_class1EEExPdPKdPKxRS8_S9_(double*, double*, i64*, i64*, i64*)

declare i64 @_ZN18vfun_bit_shiftleftIddxE7iterateILN3wrt13runtime_flagsE0ELS3_1EL15increment_class2EEExPdPKdPKxRS8_S9_(double*, double*, i64*, i64*, i64*)

declare i64 @_ZN18vfun_bit_shiftleftIddxE7iterateILN3wrt13runtime_flagsE0ELS3_1EL15increment_class3EEExPdPKdPKxRS8_S9_(double*, double*, i64*, i64*, i64*)

declare i64 @_ZN18vfun_bit_shiftleftIddxE7iterateILN3wrt13runtime_flagsE1ELS3_0EL15increment_class1EEExPdPKdPKxRS8_S9_(double*, double*, i64*, i64*, i64*)

declare i64 @_ZN18vfun_bit_shiftleftIddxE7iterateILN3wrt13runtime_flagsE1ELS3_0EL15increment_class2EEExPdPKdPKxRS8_S9_(double*, double*, i64*, i64*, i64*)

declare i64 @_ZN18vfun_bit_shiftleftIddxE7iterateILN3wrt13runtime_flagsE1ELS3_0EL15increment_class3EEExPdPKdPKxRS8_S9_(double*, double*, i64*, i64*, i64*)

declare i64 @_ZN18vfun_bit_shiftleftIxxxE7iterateILN3wrt13runtime_flagsE0ELS3_1EL15increment_class0EEExPxPKxS7_RS6_S7_(i64*, i64*, i64*, i64*, i64*)

declare i64 @_ZN18vfun_bit_shiftleftIxxxE7iterateILN3wrt13runtime_flagsE0ELS3_0EL15increment_class0EEExPxPKxS7_RS6_S7_(i64*, i64*, i64*, i64*, i64*)

declare i64 @_ZN18vfun_bit_shiftleftIxxxE7iterateILN3wrt13runtime_flagsE0ELS3_0EL15increment_class1EEExPxPKxS7_RS6_S7_(i64*, i64*, i64*, i64*, i64*)

declare i64 @_ZN18vfun_bit_shiftleftIxxxE7iterateILN3wrt13runtime_flagsE0ELS3_0EL15increment_class2EEExPxPKxS7_RS6_S7_(i64*, i64*, i64*, i64*, i64*)

declare i64 @_ZN18vfun_bit_shiftleftIxxxE7iterateILN3wrt13runtime_flagsE0ELS3_0EL15increment_class3EEExPxPKxS7_RS6_S7_(i64*, i64*, i64*, i64*, i64*)

declare i64 @_ZN18vfun_bit_shiftleftIxxxE7iterateILN3wrt13runtime_flagsE0ELS3_1EL15increment_class1EEExPxPKxS7_RS6_S7_(i64*, i64*, i64*, i64*, i64*)

declare i64 @_ZN18vfun_bit_shiftleftIxxxE7iterateILN3wrt13runtime_flagsE0ELS3_1EL15increment_class2EEExPxPKxS7_RS6_S7_(i64*, i64*, i64*, i64*, i64*)

declare i64 @_ZN18vfun_bit_shiftleftIxxxE7iterateILN3wrt13runtime_flagsE0ELS3_1EL15increment_class3EEExPxPKxS7_RS6_S7_(i64*, i64*, i64*, i64*, i64*)

declare i64 @_ZN11vfun_intlenIxxxE7iterateILN3wrt13runtime_flagsE0ELS3_1EL15increment_class0EEExPxPKxS7_RS6_S7_(i64*, i64*, i64*, i64*, i64*)

declare i64 @_ZN11vfun_intlenIxxxE7iterateILN3wrt13runtime_flagsE0ELS3_0EL15increment_class0EEExPxPKxS7_RS6_S7_(i64*, i64*, i64*, i64*, i64*)

declare i64 @_ZN11vfun_intlenIxxxE7iterateILN3wrt13runtime_flagsE0ELS3_0EL15increment_class1EEExPxPKxS7_RS6_S7_(i64*, i64*, i64*, i64*, i64*)

declare i64 @_ZN11vfun_intlenIxxxE7iterateILN3wrt13runtime_flagsE0ELS3_0EL15increment_class2EEExPxPKxS7_RS6_S7_(i64*, i64*, i64*, i64*, i64*)

declare i64 @_ZN11vfun_intlenIxxxE7iterateILN3wrt13runtime_flagsE0ELS3_0EL15increment_class3EEExPxPKxS7_RS6_S7_(i64*, i64*, i64*, i64*, i64*)

declare i64 @_ZN11vfun_intlenIxxxE7iterateILN3wrt13runtime_flagsE0ELS3_1EL15increment_class1EEExPxPKxS7_RS6_S7_(i64*, i64*, i64*, i64*, i64*)

declare i64 @_ZN11vfun_intlenIxxxE7iterateILN3wrt13runtime_flagsE0ELS3_1EL15increment_class2EEExPxPKxS7_RS6_S7_(i64*, i64*, i64*, i64*, i64*)

declare i64 @_ZN11vfun_intlenIxxxE7iterateILN3wrt13runtime_flagsE0ELS3_1EL15increment_class3EEExPxPKxS7_RS6_S7_(i64*, i64*, i64*, i64*, i64*)

declare i64 @_ZN11vfun_intexpIxxxE7iterateILN3wrt13runtime_flagsE0ELS3_1EL15increment_class0EEExPxPKxS7_RS6_S7_(i64*, i64*, i64*, i64*, i64*)

declare i64 @_ZN11vfun_intexpIxxxE7iterateILN3wrt13runtime_flagsE0ELS3_0EL15increment_class0EEExPxPKxS7_RS6_S7_(i64*, i64*, i64*, i64*, i64*)

declare i64 @_ZN3wrt9scalar_op6binaryL9intexp_opIxxLNS_13runtime_flagsE1EEENSt3__19enable_ifIXaasr11is_integralIT_EE5valuesr11is_integralIT0_EE5valueENS1_6detail7op_infoILNS8_2opE11EN7rt_typeIS6_E4typeENSB_IS7_E4typeEE11result_typeEE4typeERKNSG_19first_argument_typeERKNSG_20second_argument_typeE(i64*, i64*)

declare i64 @_ZN11vfun_intexpIxxxE7iterateILN3wrt13runtime_flagsE0ELS3_0EL15increment_class1EEExPxPKxS7_RS6_S7_(i64*, i64*, i64*, i64*, i64*)

declare i64 @_ZN11vfun_intexpIxxxE7iterateILN3wrt13runtime_flagsE0ELS3_0EL15increment_class2EEExPxPKxS7_RS6_S7_(i64*, i64*, i64*, i64*, i64*)

declare i64 @_ZN11vfun_intexpIxxxE7iterateILN3wrt13runtime_flagsE0ELS3_0EL15increment_class3EEExPxPKxS7_RS6_S7_(i64*, i64*, i64*, i64*, i64*)

declare i64 @_ZN11vfun_intexpIxxxE7iterateILN3wrt13runtime_flagsE0ELS3_1EL15increment_class1EEExPxPKxS7_RS6_S7_(i64*, i64*, i64*, i64*, i64*)

declare i64 @_ZN11vfun_intexpIxxxE7iterateILN3wrt13runtime_flagsE0ELS3_1EL15increment_class2EEExPxPKxS7_RS6_S7_(i64*, i64*, i64*, i64*, i64*)

declare i64 @_ZN11vfun_intexpIxxxE7iterateILN3wrt13runtime_flagsE0ELS3_1EL15increment_class3EEExPxPKxS7_RS6_S7_(i64*, i64*, i64*, i64*, i64*)

declare i64 @_ZN11vfun_maxabsIdNSt3__17complexIdEES2_E7iterateILN3wrt13runtime_flagsE1ELS6_0EL15increment_class0EEExPdPKS2_SA_RKxPSB_(double*, %"class.std::__1::complex"*, %"class.std::__1::complex"*, i64*, i64*)

declare i64 @_ZN11vfun_maxabsIdNSt3__17complexIdEES2_E7iterateILN3wrt13runtime_flagsE0ELS6_0EL15increment_class0EEExPdPKS2_SA_RKxPSB_(double*, %"class.std::__1::complex"*, %"class.std::__1::complex"*, i64*, i64*)

declare void @.omp_outlined..32.43(i32*, i32*, i64*, i64*, i64*, i64*, i64*, i64*, i64*, i64*, i64*, i64 (double*, %"class.std::__1::complex"*, %"class.std::__1::complex"*, i64*, i64*)**, double**, %"class.std::__1::complex"**, %"class.std::__1::complex"**, i64**)

declare i64 @_ZN11vfun_maxabsIdNSt3__17complexIdEES2_E7iterateILN3wrt13runtime_flagsE0ELS6_0EL15increment_class1EEExPdPKS2_SA_RKxPSB_(double*, %"class.std::__1::complex"*, %"class.std::__1::complex"*, i64*, i64*)

declare i64 @_ZN11vfun_maxabsIdNSt3__17complexIdEES2_E7iterateILN3wrt13runtime_flagsE0ELS6_0EL15increment_class2EEExPdPKS2_SA_RKxPSB_(double*, %"class.std::__1::complex"*, %"class.std::__1::complex"*, i64*, i64*)

declare i64 @_ZN11vfun_maxabsIdNSt3__17complexIdEES2_E7iterateILN3wrt13runtime_flagsE0ELS6_0EL15increment_class3EEExPdPKS2_SA_RKxPSB_(double*, %"class.std::__1::complex"*, %"class.std::__1::complex"*, i64*, i64*)

declare i64 @_ZN11vfun_maxabsIdNSt3__17complexIdEES2_E7iterateILN3wrt13runtime_flagsE1ELS6_0EL15increment_class1EEExPdPKS2_SA_RKxPSB_(double*, %"class.std::__1::complex"*, %"class.std::__1::complex"*, i64*, i64*)

declare i64 @_ZN11vfun_maxabsIdNSt3__17complexIdEES2_E7iterateILN3wrt13runtime_flagsE1ELS6_0EL15increment_class2EEExPdPKS2_SA_RKxPSB_(double*, %"class.std::__1::complex"*, %"class.std::__1::complex"*, i64*, i64*)

declare i64 @_ZN11vfun_maxabsIdNSt3__17complexIdEES2_E7iterateILN3wrt13runtime_flagsE1ELS6_0EL15increment_class3EEExPdPKS2_SA_RKxPSB_(double*, %"class.std::__1::complex"*, %"class.std::__1::complex"*, i64*, i64*)

declare i64 @_ZN11vfun_maxabsIdddE7iterateILN3wrt13runtime_flagsE1ELS3_0EL15increment_class0EEExPdPKdS7_RKxPS8_(double*, double*, double*, i64*, i64*)

declare i64 @_ZN11vfun_maxabsIdddE7iterateILN3wrt13runtime_flagsE0ELS3_1EL15increment_class0EEExPdPKdS7_RKxPS8_(double*, double*, double*, i64*, i64*)

declare i64 @_ZN11vfun_maxabsIdddE7iterateILN3wrt13runtime_flagsE0ELS3_0EL15increment_class0EEExPdPKdS7_RKxPS8_(double*, double*, double*, i64*, i64*)

declare void @.omp_outlined..20(i32*, i32*, i64*, i64*, i64*, i64*, i64*, i64*, i64*, i64*, i64*, i64 (double*, double*, double*, i64*, i64*)**, double**, double**, double**, i64**)

declare i64 @_ZN11vfun_maxabsIdddE7iterateILN3wrt13runtime_flagsE0ELS3_0EL15increment_class1EEExPdPKdS7_RKxPS8_(double*, double*, double*, i64*, i64*)

declare i64 @_ZN11vfun_maxabsIdddE7iterateILN3wrt13runtime_flagsE0ELS3_0EL15increment_class2EEExPdPKdS7_RKxPS8_(double*, double*, double*, i64*, i64*)

declare i64 @_ZN11vfun_maxabsIdddE7iterateILN3wrt13runtime_flagsE0ELS3_0EL15increment_class3EEExPdPKdS7_RKxPS8_(double*, double*, double*, i64*, i64*)

declare i64 @_ZN11vfun_maxabsIdddE7iterateILN3wrt13runtime_flagsE0ELS3_1EL15increment_class1EEExPdPKdS7_RKxPS8_(double*, double*, double*, i64*, i64*)

declare i64 @_ZN11vfun_maxabsIdddE7iterateILN3wrt13runtime_flagsE0ELS3_1EL15increment_class2EEExPdPKdS7_RKxPS8_(double*, double*, double*, i64*, i64*)

declare i64 @_ZN11vfun_maxabsIdddE7iterateILN3wrt13runtime_flagsE0ELS3_1EL15increment_class3EEExPdPKdS7_RKxPS8_(double*, double*, double*, i64*, i64*)

declare i64 @_ZN11vfun_maxabsIdddE7iterateILN3wrt13runtime_flagsE1ELS3_0EL15increment_class1EEExPdPKdS7_RKxPS8_(double*, double*, double*, i64*, i64*)

declare i64 @_ZN11vfun_maxabsIdddE7iterateILN3wrt13runtime_flagsE1ELS3_0EL15increment_class2EEExPdPKdS7_RKxPS8_(double*, double*, double*, i64*, i64*)

declare i64 @_ZN11vfun_maxabsIdddE7iterateILN3wrt13runtime_flagsE1ELS3_0EL15increment_class3EEExPdPKdS7_RKxPS8_(double*, double*, double*, i64*, i64*)

declare i64 @_ZN11vfun_maxabsIxxxE7iterateILN3wrt13runtime_flagsE0ELS3_1EL15increment_class0EEExPxPKxS7_RS6_S7_(i64*, i64*, i64*, i64*, i64*)

declare i64 @_ZN11vfun_maxabsIxxxE7iterateILN3wrt13runtime_flagsE0ELS3_0EL15increment_class0EEExPxPKxS7_RS6_S7_(i64*, i64*, i64*, i64*, i64*)

declare i64 @_ZN11vfun_maxabsIxxxE7iterateILN3wrt13runtime_flagsE0ELS3_0EL15increment_class1EEExPxPKxS7_RS6_S7_(i64*, i64*, i64*, i64*, i64*)

declare i64 @_ZN11vfun_maxabsIxxxE7iterateILN3wrt13runtime_flagsE0ELS3_0EL15increment_class2EEExPxPKxS7_RS6_S7_(i64*, i64*, i64*, i64*, i64*)

declare i64 @_ZN11vfun_maxabsIxxxE7iterateILN3wrt13runtime_flagsE0ELS3_0EL15increment_class3EEExPxPKxS7_RS6_S7_(i64*, i64*, i64*, i64*, i64*)

declare i64 @_ZN11vfun_maxabsIxxxE7iterateILN3wrt13runtime_flagsE0ELS3_1EL15increment_class1EEExPxPKxS7_RS6_S7_(i64*, i64*, i64*, i64*, i64*)

declare i64 @_ZN11vfun_maxabsIxxxE7iterateILN3wrt13runtime_flagsE0ELS3_1EL15increment_class2EEExPxPKxS7_RS6_S7_(i64*, i64*, i64*, i64*, i64*)

declare i64 @_ZN11vfun_maxabsIxxxE7iterateILN3wrt13runtime_flagsE0ELS3_1EL15increment_class3EEExPxPKxS7_RS6_S7_(i64*, i64*, i64*, i64*, i64*)

declare i64 @_ZN11vfun_relerrIdNSt3__17complexIdEES2_E7iterateILN3wrt13runtime_flagsE1ELS6_0EL15increment_class0EEExPdPKS2_SA_RKxPSB_(double*, %"class.std::__1::complex"*, %"class.std::__1::complex"*, i64*, i64*)

declare i64 @_ZN11vfun_relerrIdNSt3__17complexIdEES2_E7iterateILN3wrt13runtime_flagsE0ELS6_0EL15increment_class0EEExPdPKS2_SA_RKxPSB_(double*, %"class.std::__1::complex"*, %"class.std::__1::complex"*, i64*, i64*)

declare i64 @_ZN11vfun_relerrIdNSt3__17complexIdEES2_E7iterateILN3wrt13runtime_flagsE0ELS6_0EL15increment_class1EEExPdPKS2_SA_RKxPSB_(double*, %"class.std::__1::complex"*, %"class.std::__1::complex"*, i64*, i64*)

declare i64 @_ZN11vfun_relerrIdNSt3__17complexIdEES2_E7iterateILN3wrt13runtime_flagsE0ELS6_0EL15increment_class2EEExPdPKS2_SA_RKxPSB_(double*, %"class.std::__1::complex"*, %"class.std::__1::complex"*, i64*, i64*)

declare i64 @_ZN11vfun_relerrIdNSt3__17complexIdEES2_E7iterateILN3wrt13runtime_flagsE0ELS6_0EL15increment_class3EEExPdPKS2_SA_RKxPSB_(double*, %"class.std::__1::complex"*, %"class.std::__1::complex"*, i64*, i64*)

declare i64 @_ZN11vfun_relerrIdNSt3__17complexIdEES2_E7iterateILN3wrt13runtime_flagsE1ELS6_0EL15increment_class1EEExPdPKS2_SA_RKxPSB_(double*, %"class.std::__1::complex"*, %"class.std::__1::complex"*, i64*, i64*)

declare i64 @_ZN11vfun_relerrIdNSt3__17complexIdEES2_E7iterateILN3wrt13runtime_flagsE1ELS6_0EL15increment_class2EEExPdPKS2_SA_RKxPSB_(double*, %"class.std::__1::complex"*, %"class.std::__1::complex"*, i64*, i64*)

declare i64 @_ZN11vfun_relerrIdNSt3__17complexIdEES2_E7iterateILN3wrt13runtime_flagsE1ELS6_0EL15increment_class3EEExPdPKS2_SA_RKxPSB_(double*, %"class.std::__1::complex"*, %"class.std::__1::complex"*, i64*, i64*)

declare i64 @_ZN11vfun_relerrIdNSt3__17complexIdEEdE7iterateILN3wrt13runtime_flagsE1ELS6_0EL15increment_class0EEExPdPKS2_PKdRKxPSD_(double*, %"class.std::__1::complex"*, double*, i64*, i64*)

declare i64 @_ZN11vfun_relerrIdNSt3__17complexIdEEdE7iterateILN3wrt13runtime_flagsE0ELS6_1EL15increment_class0EEExPdPKS2_PKdRKxPSD_(double*, %"class.std::__1::complex"*, double*, i64*, i64*)

declare i64 @_ZN11vfun_relerrIdNSt3__17complexIdEEdE7iterateILN3wrt13runtime_flagsE0ELS6_0EL15increment_class0EEExPdPKS2_PKdRKxPSD_(double*, %"class.std::__1::complex"*, double*, i64*, i64*)

declare void @.omp_outlined..10.44(i32*, i32*, i64*, i64*, i64*, i64*, i64*, i64*, i64*, i64*, i64*, i64 (double*, %"class.std::__1::complex"*, double*, i64*, i64*)**, double**, %"class.std::__1::complex"**, double**, i64**)

declare i64 @_ZN11vfun_relerrIdNSt3__17complexIdEEdE7iterateILN3wrt13runtime_flagsE0ELS6_0EL15increment_class1EEExPdPKS2_PKdRKxPSD_(double*, %"class.std::__1::complex"*, double*, i64*, i64*)

declare i64 @_ZN11vfun_relerrIdNSt3__17complexIdEEdE7iterateILN3wrt13runtime_flagsE0ELS6_0EL15increment_class2EEExPdPKS2_PKdRKxPSD_(double*, %"class.std::__1::complex"*, double*, i64*, i64*)

declare i64 @_ZN11vfun_relerrIdNSt3__17complexIdEEdE7iterateILN3wrt13runtime_flagsE0ELS6_0EL15increment_class3EEExPdPKS2_PKdRKxPSD_(double*, %"class.std::__1::complex"*, double*, i64*, i64*)

declare i64 @_ZN11vfun_relerrIdNSt3__17complexIdEEdE7iterateILN3wrt13runtime_flagsE0ELS6_1EL15increment_class1EEExPdPKS2_PKdRKxPSD_(double*, %"class.std::__1::complex"*, double*, i64*, i64*)

declare i64 @_ZN11vfun_relerrIdNSt3__17complexIdEEdE7iterateILN3wrt13runtime_flagsE0ELS6_1EL15increment_class2EEExPdPKS2_PKdRKxPSD_(double*, %"class.std::__1::complex"*, double*, i64*, i64*)

declare i64 @_ZN11vfun_relerrIdNSt3__17complexIdEEdE7iterateILN3wrt13runtime_flagsE0ELS6_1EL15increment_class3EEExPdPKS2_PKdRKxPSD_(double*, %"class.std::__1::complex"*, double*, i64*, i64*)

declare i64 @_ZN11vfun_relerrIdNSt3__17complexIdEEdE7iterateILN3wrt13runtime_flagsE1ELS6_0EL15increment_class1EEExPdPKS2_PKdRKxPSD_(double*, %"class.std::__1::complex"*, double*, i64*, i64*)

declare i64 @_ZN11vfun_relerrIdNSt3__17complexIdEEdE7iterateILN3wrt13runtime_flagsE1ELS6_0EL15increment_class2EEExPdPKS2_PKdRKxPSD_(double*, %"class.std::__1::complex"*, double*, i64*, i64*)

declare i64 @_ZN11vfun_relerrIdNSt3__17complexIdEEdE7iterateILN3wrt13runtime_flagsE1ELS6_0EL15increment_class3EEExPdPKS2_PKdRKxPSD_(double*, %"class.std::__1::complex"*, double*, i64*, i64*)

declare i64 @_ZN11vfun_relerrIdNSt3__17complexIdEExE7iterateILN3wrt13runtime_flagsE1ELS6_0EL15increment_class0EEExPdPKS2_PKxRSB_SC_(double*, %"class.std::__1::complex"*, i64*, i64*, i64*)

declare i64 @_ZN11vfun_relerrIdNSt3__17complexIdEExE7iterateILN3wrt13runtime_flagsE0ELS6_0EL15increment_class0EEExPdPKS2_PKxRSB_SC_(double*, %"class.std::__1::complex"*, i64*, i64*, i64*)

declare void @.omp_outlined..8.45(i32*, i32*, i64*, i64*, i64*, i64*, i64*, i64*, i64*, i64*, i64*, i64 (double*, %"class.std::__1::complex"*, i64*, i64*, i64*)**, double**, %"class.std::__1::complex"**, i64**, i64**)

declare i64 @_ZN11vfun_relerrIdNSt3__17complexIdEExE7iterateILN3wrt13runtime_flagsE0ELS6_0EL15increment_class1EEExPdPKS2_PKxRSB_SC_(double*, %"class.std::__1::complex"*, i64*, i64*, i64*)

declare i64 @_ZN11vfun_relerrIdNSt3__17complexIdEExE7iterateILN3wrt13runtime_flagsE0ELS6_0EL15increment_class2EEExPdPKS2_PKxRSB_SC_(double*, %"class.std::__1::complex"*, i64*, i64*, i64*)

declare i64 @_ZN11vfun_relerrIdNSt3__17complexIdEExE7iterateILN3wrt13runtime_flagsE0ELS6_0EL15increment_class3EEExPdPKS2_PKxRSB_SC_(double*, %"class.std::__1::complex"*, i64*, i64*, i64*)

declare i64 @_ZN11vfun_relerrIdNSt3__17complexIdEExE7iterateILN3wrt13runtime_flagsE1ELS6_0EL15increment_class1EEExPdPKS2_PKxRSB_SC_(double*, %"class.std::__1::complex"*, i64*, i64*, i64*)

declare i64 @_ZN11vfun_relerrIdNSt3__17complexIdEExE7iterateILN3wrt13runtime_flagsE1ELS6_0EL15increment_class2EEExPdPKS2_PKxRSB_SC_(double*, %"class.std::__1::complex"*, i64*, i64*, i64*)

declare i64 @_ZN11vfun_relerrIdNSt3__17complexIdEExE7iterateILN3wrt13runtime_flagsE1ELS6_0EL15increment_class3EEExPdPKS2_PKxRSB_SC_(double*, %"class.std::__1::complex"*, i64*, i64*, i64*)

declare i64 @_ZN11vfun_relerrIddNSt3__17complexIdEEE7iterateILN3wrt13runtime_flagsE1ELS6_0EL15increment_class0EEExPdPKdPKS2_RKxPSD_(double*, double*, %"class.std::__1::complex"*, i64*, i64*)

declare i64 @_ZN11vfun_relerrIddNSt3__17complexIdEEE7iterateILN3wrt13runtime_flagsE0ELS6_1EL15increment_class0EEExPdPKdPKS2_RKxPSD_(double*, double*, %"class.std::__1::complex"*, i64*, i64*)

declare i64 @_ZN11vfun_relerrIddNSt3__17complexIdEEE7iterateILN3wrt13runtime_flagsE0ELS6_0EL15increment_class0EEExPdPKdPKS2_RKxPSD_(double*, double*, %"class.std::__1::complex"*, i64*, i64*)

declare void @.omp_outlined..6.46(i32*, i32*, i64*, i64*, i64*, i64*, i64*, i64*, i64*, i64*, i64*, i64 (double*, double*, %"class.std::__1::complex"*, i64*, i64*)**, double**, double**, %"class.std::__1::complex"**, i64**)

declare i64 @_ZN11vfun_relerrIddNSt3__17complexIdEEE7iterateILN3wrt13runtime_flagsE0ELS6_0EL15increment_class1EEExPdPKdPKS2_RKxPSD_(double*, double*, %"class.std::__1::complex"*, i64*, i64*)

declare i64 @_ZN11vfun_relerrIddNSt3__17complexIdEEE7iterateILN3wrt13runtime_flagsE0ELS6_0EL15increment_class2EEExPdPKdPKS2_RKxPSD_(double*, double*, %"class.std::__1::complex"*, i64*, i64*)

declare i64 @_ZN11vfun_relerrIddNSt3__17complexIdEEE7iterateILN3wrt13runtime_flagsE0ELS6_0EL15increment_class3EEExPdPKdPKS2_RKxPSD_(double*, double*, %"class.std::__1::complex"*, i64*, i64*)

declare i64 @_ZN11vfun_relerrIddNSt3__17complexIdEEE7iterateILN3wrt13runtime_flagsE0ELS6_1EL15increment_class1EEExPdPKdPKS2_RKxPSD_(double*, double*, %"class.std::__1::complex"*, i64*, i64*)

declare i64 @_ZN11vfun_relerrIddNSt3__17complexIdEEE7iterateILN3wrt13runtime_flagsE0ELS6_1EL15increment_class2EEExPdPKdPKS2_RKxPSD_(double*, double*, %"class.std::__1::complex"*, i64*, i64*)

declare i64 @_ZN11vfun_relerrIddNSt3__17complexIdEEE7iterateILN3wrt13runtime_flagsE0ELS6_1EL15increment_class3EEExPdPKdPKS2_RKxPSD_(double*, double*, %"class.std::__1::complex"*, i64*, i64*)

declare i64 @_ZN11vfun_relerrIddNSt3__17complexIdEEE7iterateILN3wrt13runtime_flagsE1ELS6_0EL15increment_class1EEExPdPKdPKS2_RKxPSD_(double*, double*, %"class.std::__1::complex"*, i64*, i64*)

declare i64 @_ZN11vfun_relerrIddNSt3__17complexIdEEE7iterateILN3wrt13runtime_flagsE1ELS6_0EL15increment_class2EEExPdPKdPKS2_RKxPSD_(double*, double*, %"class.std::__1::complex"*, i64*, i64*)

declare i64 @_ZN11vfun_relerrIddNSt3__17complexIdEEE7iterateILN3wrt13runtime_flagsE1ELS6_0EL15increment_class3EEExPdPKdPKS2_RKxPSD_(double*, double*, %"class.std::__1::complex"*, i64*, i64*)

declare i64 @_ZN11vfun_relerrIdddE7iterateILN3wrt13runtime_flagsE1ELS3_0EL15increment_class0EEExPdPKdS7_RKxPS8_(double*, double*, double*, i64*, i64*)

declare i64 @_ZN11vfun_relerrIdddE7iterateILN3wrt13runtime_flagsE0ELS3_1EL15increment_class0EEExPdPKdS7_RKxPS8_(double*, double*, double*, i64*, i64*)

declare i64 @_ZN11vfun_relerrIdddE7iterateILN3wrt13runtime_flagsE0ELS3_0EL15increment_class0EEExPdPKdS7_RKxPS8_(double*, double*, double*, i64*, i64*)

declare i64 @_ZN11vfun_relerrIdddE7iterateILN3wrt13runtime_flagsE0ELS3_0EL15increment_class1EEExPdPKdS7_RKxPS8_(double*, double*, double*, i64*, i64*)

declare i64 @_ZN11vfun_relerrIdddE7iterateILN3wrt13runtime_flagsE0ELS3_0EL15increment_class2EEExPdPKdS7_RKxPS8_(double*, double*, double*, i64*, i64*)

declare i64 @_ZN11vfun_relerrIdddE7iterateILN3wrt13runtime_flagsE0ELS3_0EL15increment_class3EEExPdPKdS7_RKxPS8_(double*, double*, double*, i64*, i64*)

declare i64 @_ZN11vfun_relerrIdddE7iterateILN3wrt13runtime_flagsE0ELS3_1EL15increment_class1EEExPdPKdS7_RKxPS8_(double*, double*, double*, i64*, i64*)

declare i64 @_ZN11vfun_relerrIdddE7iterateILN3wrt13runtime_flagsE0ELS3_1EL15increment_class2EEExPdPKdS7_RKxPS8_(double*, double*, double*, i64*, i64*)

declare i64 @_ZN11vfun_relerrIdddE7iterateILN3wrt13runtime_flagsE0ELS3_1EL15increment_class3EEExPdPKdS7_RKxPS8_(double*, double*, double*, i64*, i64*)

declare i64 @_ZN11vfun_relerrIdddE7iterateILN3wrt13runtime_flagsE1ELS3_0EL15increment_class1EEExPdPKdS7_RKxPS8_(double*, double*, double*, i64*, i64*)

declare i64 @_ZN11vfun_relerrIdddE7iterateILN3wrt13runtime_flagsE1ELS3_0EL15increment_class2EEExPdPKdS7_RKxPS8_(double*, double*, double*, i64*, i64*)

declare i64 @_ZN11vfun_relerrIdddE7iterateILN3wrt13runtime_flagsE1ELS3_0EL15increment_class3EEExPdPKdS7_RKxPS8_(double*, double*, double*, i64*, i64*)

declare i64 @_ZN11vfun_relerrIddxE7iterateILN3wrt13runtime_flagsE1ELS3_0EL15increment_class0EEExPdPKdPKxRS8_S9_(double*, double*, i64*, i64*, i64*)

declare i64 @_ZN11vfun_relerrIddxE7iterateILN3wrt13runtime_flagsE0ELS3_1EL15increment_class0EEExPdPKdPKxRS8_S9_(double*, double*, i64*, i64*, i64*)

declare i64 @_ZN11vfun_relerrIddxE7iterateILN3wrt13runtime_flagsE0ELS3_0EL15increment_class0EEExPdPKdPKxRS8_S9_(double*, double*, i64*, i64*, i64*)

declare i64 @_ZN11vfun_relerrIddxE7iterateILN3wrt13runtime_flagsE0ELS3_0EL15increment_class1EEExPdPKdPKxRS8_S9_(double*, double*, i64*, i64*, i64*)

declare i64 @_ZN11vfun_relerrIddxE7iterateILN3wrt13runtime_flagsE0ELS3_0EL15increment_class2EEExPdPKdPKxRS8_S9_(double*, double*, i64*, i64*, i64*)

declare i64 @_ZN11vfun_relerrIddxE7iterateILN3wrt13runtime_flagsE0ELS3_0EL15increment_class3EEExPdPKdPKxRS8_S9_(double*, double*, i64*, i64*, i64*)

declare i64 @_ZN11vfun_relerrIddxE7iterateILN3wrt13runtime_flagsE0ELS3_1EL15increment_class1EEExPdPKdPKxRS8_S9_(double*, double*, i64*, i64*, i64*)

declare i64 @_ZN11vfun_relerrIddxE7iterateILN3wrt13runtime_flagsE0ELS3_1EL15increment_class2EEExPdPKdPKxRS8_S9_(double*, double*, i64*, i64*, i64*)

declare i64 @_ZN11vfun_relerrIddxE7iterateILN3wrt13runtime_flagsE0ELS3_1EL15increment_class3EEExPdPKdPKxRS8_S9_(double*, double*, i64*, i64*, i64*)

declare i64 @_ZN11vfun_relerrIddxE7iterateILN3wrt13runtime_flagsE1ELS3_0EL15increment_class1EEExPdPKdPKxRS8_S9_(double*, double*, i64*, i64*, i64*)

declare i64 @_ZN11vfun_relerrIddxE7iterateILN3wrt13runtime_flagsE1ELS3_0EL15increment_class2EEExPdPKdPKxRS8_S9_(double*, double*, i64*, i64*, i64*)

declare i64 @_ZN11vfun_relerrIddxE7iterateILN3wrt13runtime_flagsE1ELS3_0EL15increment_class3EEExPdPKdPKxRS8_S9_(double*, double*, i64*, i64*, i64*)

declare i64 @_ZN11vfun_relerrIdxNSt3__17complexIdEEE7iterateILN3wrt13runtime_flagsE1ELS6_0EL15increment_class0EEExPdPKxPKS2_RS9_SA_(double*, i64*, %"class.std::__1::complex"*, i64*, i64*)

declare i64 @_ZN11vfun_relerrIdxNSt3__17complexIdEEE7iterateILN3wrt13runtime_flagsE0ELS6_0EL15increment_class0EEExPdPKxPKS2_RS9_SA_(double*, i64*, %"class.std::__1::complex"*, i64*, i64*)

declare void @.omp_outlined..4.47(i32*, i32*, i64*, i64*, i64*, i64*, i64*, i64*, i64*, i64*, i64*, i64 (double*, i64*, %"class.std::__1::complex"*, i64*, i64*)**, double**, i64**, %"class.std::__1::complex"**, i64**)

declare i64 @_ZN11vfun_relerrIdxNSt3__17complexIdEEE7iterateILN3wrt13runtime_flagsE0ELS6_0EL15increment_class1EEExPdPKxPKS2_RS9_SA_(double*, i64*, %"class.std::__1::complex"*, i64*, i64*)

declare i64 @_ZN11vfun_relerrIdxNSt3__17complexIdEEE7iterateILN3wrt13runtime_flagsE0ELS6_0EL15increment_class2EEExPdPKxPKS2_RS9_SA_(double*, i64*, %"class.std::__1::complex"*, i64*, i64*)

declare i64 @_ZN11vfun_relerrIdxNSt3__17complexIdEEE7iterateILN3wrt13runtime_flagsE0ELS6_0EL15increment_class3EEExPdPKxPKS2_RS9_SA_(double*, i64*, %"class.std::__1::complex"*, i64*, i64*)

declare i64 @_ZN11vfun_relerrIdxNSt3__17complexIdEEE7iterateILN3wrt13runtime_flagsE1ELS6_0EL15increment_class1EEExPdPKxPKS2_RS9_SA_(double*, i64*, %"class.std::__1::complex"*, i64*, i64*)

declare i64 @_ZN11vfun_relerrIdxNSt3__17complexIdEEE7iterateILN3wrt13runtime_flagsE1ELS6_0EL15increment_class2EEExPdPKxPKS2_RS9_SA_(double*, i64*, %"class.std::__1::complex"*, i64*, i64*)

declare i64 @_ZN11vfun_relerrIdxNSt3__17complexIdEEE7iterateILN3wrt13runtime_flagsE1ELS6_0EL15increment_class3EEExPdPKxPKS2_RS9_SA_(double*, i64*, %"class.std::__1::complex"*, i64*, i64*)

declare i64 @_ZN11vfun_relerrIdxdE7iterateILN3wrt13runtime_flagsE1ELS3_0EL15increment_class0EEExPdPKxPKdRS6_S7_(double*, i64*, double*, i64*, i64*)

declare i64 @_ZN11vfun_relerrIdxdE7iterateILN3wrt13runtime_flagsE0ELS3_1EL15increment_class0EEExPdPKxPKdRS6_S7_(double*, i64*, double*, i64*, i64*)

declare i64 @_ZN11vfun_relerrIdxdE7iterateILN3wrt13runtime_flagsE0ELS3_0EL15increment_class0EEExPdPKxPKdRS6_S7_(double*, i64*, double*, i64*, i64*)

declare void @.omp_outlined..16(i32*, i32*, i64*, i64*, i64*, i64*, i64*, i64*, i64*, i64*, i64*, i64 (double*, i64*, double*, i64*, i64*)**, double**, i64**, double**, i64**)

declare i64 @_ZN11vfun_relerrIdxdE7iterateILN3wrt13runtime_flagsE0ELS3_0EL15increment_class1EEExPdPKxPKdRS6_S7_(double*, i64*, double*, i64*, i64*)

declare i64 @_ZN11vfun_relerrIdxdE7iterateILN3wrt13runtime_flagsE0ELS3_0EL15increment_class2EEExPdPKxPKdRS6_S7_(double*, i64*, double*, i64*, i64*)

declare i64 @_ZN11vfun_relerrIdxdE7iterateILN3wrt13runtime_flagsE0ELS3_0EL15increment_class3EEExPdPKxPKdRS6_S7_(double*, i64*, double*, i64*, i64*)

declare i64 @_ZN11vfun_relerrIdxdE7iterateILN3wrt13runtime_flagsE0ELS3_1EL15increment_class1EEExPdPKxPKdRS6_S7_(double*, i64*, double*, i64*, i64*)

declare i64 @_ZN11vfun_relerrIdxdE7iterateILN3wrt13runtime_flagsE0ELS3_1EL15increment_class2EEExPdPKxPKdRS6_S7_(double*, i64*, double*, i64*, i64*)

declare i64 @_ZN11vfun_relerrIdxdE7iterateILN3wrt13runtime_flagsE0ELS3_1EL15increment_class3EEExPdPKxPKdRS6_S7_(double*, i64*, double*, i64*, i64*)

declare i64 @_ZN11vfun_relerrIdxdE7iterateILN3wrt13runtime_flagsE1ELS3_0EL15increment_class1EEExPdPKxPKdRS6_S7_(double*, i64*, double*, i64*, i64*)

declare i64 @_ZN11vfun_relerrIdxdE7iterateILN3wrt13runtime_flagsE1ELS3_0EL15increment_class2EEExPdPKxPKdRS6_S7_(double*, i64*, double*, i64*, i64*)

declare i64 @_ZN11vfun_relerrIdxdE7iterateILN3wrt13runtime_flagsE1ELS3_0EL15increment_class3EEExPdPKxPKdRS6_S7_(double*, i64*, double*, i64*, i64*)

declare i64 @_ZN11vfun_abserrIdNSt3__17complexIdEES2_E7iterateILN3wrt13runtime_flagsE1ELS6_0EL15increment_class0EEExPdPKS2_SA_RKxPSB_(double*, %"class.std::__1::complex"*, %"class.std::__1::complex"*, i64*, i64*)

declare i64 @_ZN11vfun_abserrIdNSt3__17complexIdEES2_E7iterateILN3wrt13runtime_flagsE0ELS6_0EL15increment_class0EEExPdPKS2_SA_RKxPSB_(double*, %"class.std::__1::complex"*, %"class.std::__1::complex"*, i64*, i64*)

declare i64 @_ZN11vfun_abserrIdNSt3__17complexIdEES2_E7iterateILN3wrt13runtime_flagsE0ELS6_0EL15increment_class1EEExPdPKS2_SA_RKxPSB_(double*, %"class.std::__1::complex"*, %"class.std::__1::complex"*, i64*, i64*)

declare i64 @_ZN11vfun_abserrIdNSt3__17complexIdEES2_E7iterateILN3wrt13runtime_flagsE0ELS6_0EL15increment_class2EEExPdPKS2_SA_RKxPSB_(double*, %"class.std::__1::complex"*, %"class.std::__1::complex"*, i64*, i64*)

declare i64 @_ZN11vfun_abserrIdNSt3__17complexIdEES2_E7iterateILN3wrt13runtime_flagsE0ELS6_0EL15increment_class3EEExPdPKS2_SA_RKxPSB_(double*, %"class.std::__1::complex"*, %"class.std::__1::complex"*, i64*, i64*)

declare i64 @_ZN11vfun_abserrIdNSt3__17complexIdEES2_E7iterateILN3wrt13runtime_flagsE1ELS6_0EL15increment_class1EEExPdPKS2_SA_RKxPSB_(double*, %"class.std::__1::complex"*, %"class.std::__1::complex"*, i64*, i64*)

declare i64 @_ZN11vfun_abserrIdNSt3__17complexIdEES2_E7iterateILN3wrt13runtime_flagsE1ELS6_0EL15increment_class2EEExPdPKS2_SA_RKxPSB_(double*, %"class.std::__1::complex"*, %"class.std::__1::complex"*, i64*, i64*)

declare i64 @_ZN11vfun_abserrIdNSt3__17complexIdEES2_E7iterateILN3wrt13runtime_flagsE1ELS6_0EL15increment_class3EEExPdPKS2_SA_RKxPSB_(double*, %"class.std::__1::complex"*, %"class.std::__1::complex"*, i64*, i64*)

declare i64 @_ZN11vfun_abserrIdNSt3__17complexIdEEdE7iterateILN3wrt13runtime_flagsE1ELS6_0EL15increment_class0EEExPdPKS2_PKdRKxPSD_(double*, %"class.std::__1::complex"*, double*, i64*, i64*)

declare i64 @_ZN11vfun_abserrIdNSt3__17complexIdEEdE7iterateILN3wrt13runtime_flagsE0ELS6_1EL15increment_class0EEExPdPKS2_PKdRKxPSD_(double*, %"class.std::__1::complex"*, double*, i64*, i64*)

declare i64 @_ZN11vfun_abserrIdNSt3__17complexIdEEdE7iterateILN3wrt13runtime_flagsE0ELS6_0EL15increment_class0EEExPdPKS2_PKdRKxPSD_(double*, %"class.std::__1::complex"*, double*, i64*, i64*)

declare double @_ZN3wrt9scalar_op6binaryL9abserr_opINSt3__17complexIdEEdLNS_13runtime_flagsE1EEENS1_6detail7op_infoILNS7_2opE1EN7rt_typeIT_E4typeENSA_IT0_E4typeEE11result_typeERKNSH_19first_argument_typeERKNSH_20second_argument_typeE(double, double, double)

declare i64 @_ZN11vfun_abserrIdNSt3__17complexIdEEdE7iterateILN3wrt13runtime_flagsE0ELS6_0EL15increment_class1EEExPdPKS2_PKdRKxPSD_(double*, %"class.std::__1::complex"*, double*, i64*, i64*)

declare i64 @_ZN11vfun_abserrIdNSt3__17complexIdEEdE7iterateILN3wrt13runtime_flagsE0ELS6_0EL15increment_class2EEExPdPKS2_PKdRKxPSD_(double*, %"class.std::__1::complex"*, double*, i64*, i64*)

declare i64 @_ZN11vfun_abserrIdNSt3__17complexIdEEdE7iterateILN3wrt13runtime_flagsE0ELS6_0EL15increment_class3EEExPdPKS2_PKdRKxPSD_(double*, %"class.std::__1::complex"*, double*, i64*, i64*)

declare i64 @_ZN11vfun_abserrIdNSt3__17complexIdEEdE7iterateILN3wrt13runtime_flagsE0ELS6_1EL15increment_class1EEExPdPKS2_PKdRKxPSD_(double*, %"class.std::__1::complex"*, double*, i64*, i64*)

declare i64 @_ZN11vfun_abserrIdNSt3__17complexIdEEdE7iterateILN3wrt13runtime_flagsE0ELS6_1EL15increment_class2EEExPdPKS2_PKdRKxPSD_(double*, %"class.std::__1::complex"*, double*, i64*, i64*)

declare i64 @_ZN11vfun_abserrIdNSt3__17complexIdEEdE7iterateILN3wrt13runtime_flagsE0ELS6_1EL15increment_class3EEExPdPKS2_PKdRKxPSD_(double*, %"class.std::__1::complex"*, double*, i64*, i64*)

declare i64 @_ZN11vfun_abserrIdNSt3__17complexIdEEdE7iterateILN3wrt13runtime_flagsE1ELS6_0EL15increment_class1EEExPdPKS2_PKdRKxPSD_(double*, %"class.std::__1::complex"*, double*, i64*, i64*)

declare i64 @_ZN11vfun_abserrIdNSt3__17complexIdEEdE7iterateILN3wrt13runtime_flagsE1ELS6_0EL15increment_class2EEExPdPKS2_PKdRKxPSD_(double*, %"class.std::__1::complex"*, double*, i64*, i64*)

declare i64 @_ZN11vfun_abserrIdNSt3__17complexIdEEdE7iterateILN3wrt13runtime_flagsE1ELS6_0EL15increment_class3EEExPdPKS2_PKdRKxPSD_(double*, %"class.std::__1::complex"*, double*, i64*, i64*)

declare i64 @_ZN11vfun_abserrIdNSt3__17complexIdEExE7iterateILN3wrt13runtime_flagsE1ELS6_0EL15increment_class0EEExPdPKS2_PKxRSB_SC_(double*, %"class.std::__1::complex"*, i64*, i64*, i64*)

declare i64 @_ZN11vfun_abserrIdNSt3__17complexIdEExE7iterateILN3wrt13runtime_flagsE0ELS6_0EL15increment_class0EEExPdPKS2_PKxRSB_SC_(double*, %"class.std::__1::complex"*, i64*, i64*, i64*)

declare i64 @_ZN11vfun_abserrIdNSt3__17complexIdEExE7iterateILN3wrt13runtime_flagsE0ELS6_0EL15increment_class1EEExPdPKS2_PKxRSB_SC_(double*, %"class.std::__1::complex"*, i64*, i64*, i64*)

declare i64 @_ZN11vfun_abserrIdNSt3__17complexIdEExE7iterateILN3wrt13runtime_flagsE0ELS6_0EL15increment_class2EEExPdPKS2_PKxRSB_SC_(double*, %"class.std::__1::complex"*, i64*, i64*, i64*)

declare i64 @_ZN11vfun_abserrIdNSt3__17complexIdEExE7iterateILN3wrt13runtime_flagsE0ELS6_0EL15increment_class3EEExPdPKS2_PKxRSB_SC_(double*, %"class.std::__1::complex"*, i64*, i64*, i64*)

declare i64 @_ZN11vfun_abserrIdNSt3__17complexIdEExE7iterateILN3wrt13runtime_flagsE1ELS6_0EL15increment_class1EEExPdPKS2_PKxRSB_SC_(double*, %"class.std::__1::complex"*, i64*, i64*, i64*)

declare i64 @_ZN11vfun_abserrIdNSt3__17complexIdEExE7iterateILN3wrt13runtime_flagsE1ELS6_0EL15increment_class2EEExPdPKS2_PKxRSB_SC_(double*, %"class.std::__1::complex"*, i64*, i64*, i64*)

declare i64 @_ZN11vfun_abserrIdNSt3__17complexIdEExE7iterateILN3wrt13runtime_flagsE1ELS6_0EL15increment_class3EEExPdPKS2_PKxRSB_SC_(double*, %"class.std::__1::complex"*, i64*, i64*, i64*)

declare i64 @_ZN11vfun_abserrIddNSt3__17complexIdEEE7iterateILN3wrt13runtime_flagsE1ELS6_0EL15increment_class0EEExPdPKdPKS2_RKxPSD_(double*, double*, %"class.std::__1::complex"*, i64*, i64*)

declare i64 @_ZN11vfun_abserrIddNSt3__17complexIdEEE7iterateILN3wrt13runtime_flagsE0ELS6_1EL15increment_class0EEExPdPKdPKS2_RKxPSD_(double*, double*, %"class.std::__1::complex"*, i64*, i64*)

declare i64 @_ZN11vfun_abserrIddNSt3__17complexIdEEE7iterateILN3wrt13runtime_flagsE0ELS6_0EL15increment_class0EEExPdPKdPKS2_RKxPSD_(double*, double*, %"class.std::__1::complex"*, i64*, i64*)

declare double @_ZN3wrt9scalar_op6binaryL9abserr_opIdNSt3__17complexIdEELNS_13runtime_flagsE1EEENS1_6detail7op_infoILNS7_2opE1EN7rt_typeIT_E4typeENSA_IT0_E4typeEE11result_typeERKNSH_19first_argument_typeERKNSH_20second_argument_typeE(double, double, double)

declare i64 @_ZN11vfun_abserrIddNSt3__17complexIdEEE7iterateILN3wrt13runtime_flagsE0ELS6_0EL15increment_class1EEExPdPKdPKS2_RKxPSD_(double*, double*, %"class.std::__1::complex"*, i64*, i64*)

declare i64 @_ZN11vfun_abserrIddNSt3__17complexIdEEE7iterateILN3wrt13runtime_flagsE0ELS6_0EL15increment_class2EEExPdPKdPKS2_RKxPSD_(double*, double*, %"class.std::__1::complex"*, i64*, i64*)

declare i64 @_ZN11vfun_abserrIddNSt3__17complexIdEEE7iterateILN3wrt13runtime_flagsE0ELS6_0EL15increment_class3EEExPdPKdPKS2_RKxPSD_(double*, double*, %"class.std::__1::complex"*, i64*, i64*)

declare i64 @_ZN11vfun_abserrIddNSt3__17complexIdEEE7iterateILN3wrt13runtime_flagsE0ELS6_1EL15increment_class1EEExPdPKdPKS2_RKxPSD_(double*, double*, %"class.std::__1::complex"*, i64*, i64*)

declare i64 @_ZN11vfun_abserrIddNSt3__17complexIdEEE7iterateILN3wrt13runtime_flagsE0ELS6_1EL15increment_class2EEExPdPKdPKS2_RKxPSD_(double*, double*, %"class.std::__1::complex"*, i64*, i64*)

declare i64 @_ZN11vfun_abserrIddNSt3__17complexIdEEE7iterateILN3wrt13runtime_flagsE0ELS6_1EL15increment_class3EEExPdPKdPKS2_RKxPSD_(double*, double*, %"class.std::__1::complex"*, i64*, i64*)

declare i64 @_ZN11vfun_abserrIddNSt3__17complexIdEEE7iterateILN3wrt13runtime_flagsE1ELS6_0EL15increment_class1EEExPdPKdPKS2_RKxPSD_(double*, double*, %"class.std::__1::complex"*, i64*, i64*)

declare i64 @_ZN11vfun_abserrIddNSt3__17complexIdEEE7iterateILN3wrt13runtime_flagsE1ELS6_0EL15increment_class2EEExPdPKdPKS2_RKxPSD_(double*, double*, %"class.std::__1::complex"*, i64*, i64*)

declare i64 @_ZN11vfun_abserrIddNSt3__17complexIdEEE7iterateILN3wrt13runtime_flagsE1ELS6_0EL15increment_class3EEExPdPKdPKS2_RKxPSD_(double*, double*, %"class.std::__1::complex"*, i64*, i64*)

declare i64 @_ZN11vfun_abserrIdddE7iterateILN3wrt13runtime_flagsE1ELS3_0EL15increment_class0EEExPdPKdS7_RKxPS8_(double*, double*, double*, i64*, i64*)

declare i64 @_ZN11vfun_abserrIdddE7iterateILN3wrt13runtime_flagsE0ELS3_1EL15increment_class0EEExPdPKdS7_RKxPS8_(double*, double*, double*, i64*, i64*)

declare i64 @_ZN11vfun_abserrIdddE7iterateILN3wrt13runtime_flagsE0ELS3_0EL15increment_class0EEExPdPKdS7_RKxPS8_(double*, double*, double*, i64*, i64*)

declare i64 @_ZN11vfun_abserrIdddE7iterateILN3wrt13runtime_flagsE0ELS3_0EL15increment_class1EEExPdPKdS7_RKxPS8_(double*, double*, double*, i64*, i64*)

declare i64 @_ZN11vfun_abserrIdddE7iterateILN3wrt13runtime_flagsE0ELS3_0EL15increment_class2EEExPdPKdS7_RKxPS8_(double*, double*, double*, i64*, i64*)

declare i64 @_ZN11vfun_abserrIdddE7iterateILN3wrt13runtime_flagsE0ELS3_0EL15increment_class3EEExPdPKdS7_RKxPS8_(double*, double*, double*, i64*, i64*)

declare i64 @_ZN11vfun_abserrIdddE7iterateILN3wrt13runtime_flagsE0ELS3_1EL15increment_class1EEExPdPKdS7_RKxPS8_(double*, double*, double*, i64*, i64*)

declare i64 @_ZN11vfun_abserrIdddE7iterateILN3wrt13runtime_flagsE0ELS3_1EL15increment_class2EEExPdPKdS7_RKxPS8_(double*, double*, double*, i64*, i64*)

declare i64 @_ZN11vfun_abserrIdddE7iterateILN3wrt13runtime_flagsE0ELS3_1EL15increment_class3EEExPdPKdS7_RKxPS8_(double*, double*, double*, i64*, i64*)

declare i64 @_ZN11vfun_abserrIdddE7iterateILN3wrt13runtime_flagsE1ELS3_0EL15increment_class1EEExPdPKdS7_RKxPS8_(double*, double*, double*, i64*, i64*)

declare i64 @_ZN11vfun_abserrIdddE7iterateILN3wrt13runtime_flagsE1ELS3_0EL15increment_class2EEExPdPKdS7_RKxPS8_(double*, double*, double*, i64*, i64*)

declare i64 @_ZN11vfun_abserrIdddE7iterateILN3wrt13runtime_flagsE1ELS3_0EL15increment_class3EEExPdPKdS7_RKxPS8_(double*, double*, double*, i64*, i64*)

declare i64 @_ZN11vfun_abserrIddxE7iterateILN3wrt13runtime_flagsE1ELS3_0EL15increment_class0EEExPdPKdPKxRS8_S9_(double*, double*, i64*, i64*, i64*)

declare i64 @_ZN11vfun_abserrIddxE7iterateILN3wrt13runtime_flagsE0ELS3_1EL15increment_class0EEExPdPKdPKxRS8_S9_(double*, double*, i64*, i64*, i64*)

declare i64 @_ZN11vfun_abserrIddxE7iterateILN3wrt13runtime_flagsE0ELS3_0EL15increment_class0EEExPdPKdPKxRS8_S9_(double*, double*, i64*, i64*, i64*)

declare i64 @_ZN11vfun_abserrIddxE7iterateILN3wrt13runtime_flagsE0ELS3_0EL15increment_class1EEExPdPKdPKxRS8_S9_(double*, double*, i64*, i64*, i64*)

declare i64 @_ZN11vfun_abserrIddxE7iterateILN3wrt13runtime_flagsE0ELS3_0EL15increment_class2EEExPdPKdPKxRS8_S9_(double*, double*, i64*, i64*, i64*)

declare i64 @_ZN11vfun_abserrIddxE7iterateILN3wrt13runtime_flagsE0ELS3_0EL15increment_class3EEExPdPKdPKxRS8_S9_(double*, double*, i64*, i64*, i64*)

declare i64 @_ZN11vfun_abserrIddxE7iterateILN3wrt13runtime_flagsE0ELS3_1EL15increment_class1EEExPdPKdPKxRS8_S9_(double*, double*, i64*, i64*, i64*)

declare i64 @_ZN11vfun_abserrIddxE7iterateILN3wrt13runtime_flagsE0ELS3_1EL15increment_class2EEExPdPKdPKxRS8_S9_(double*, double*, i64*, i64*, i64*)

declare i64 @_ZN11vfun_abserrIddxE7iterateILN3wrt13runtime_flagsE0ELS3_1EL15increment_class3EEExPdPKdPKxRS8_S9_(double*, double*, i64*, i64*, i64*)

declare i64 @_ZN11vfun_abserrIddxE7iterateILN3wrt13runtime_flagsE1ELS3_0EL15increment_class1EEExPdPKdPKxRS8_S9_(double*, double*, i64*, i64*, i64*)

declare i64 @_ZN11vfun_abserrIddxE7iterateILN3wrt13runtime_flagsE1ELS3_0EL15increment_class2EEExPdPKdPKxRS8_S9_(double*, double*, i64*, i64*, i64*)

declare i64 @_ZN11vfun_abserrIddxE7iterateILN3wrt13runtime_flagsE1ELS3_0EL15increment_class3EEExPdPKdPKxRS8_S9_(double*, double*, i64*, i64*, i64*)

declare i64 @_ZN11vfun_abserrIdxNSt3__17complexIdEEE7iterateILN3wrt13runtime_flagsE1ELS6_0EL15increment_class0EEExPdPKxPKS2_RS9_SA_(double*, i64*, %"class.std::__1::complex"*, i64*, i64*)

declare i64 @_ZN11vfun_abserrIdxNSt3__17complexIdEEE7iterateILN3wrt13runtime_flagsE0ELS6_0EL15increment_class0EEExPdPKxPKS2_RS9_SA_(double*, i64*, %"class.std::__1::complex"*, i64*, i64*)

declare i64 @_ZN11vfun_abserrIdxNSt3__17complexIdEEE7iterateILN3wrt13runtime_flagsE0ELS6_0EL15increment_class1EEExPdPKxPKS2_RS9_SA_(double*, i64*, %"class.std::__1::complex"*, i64*, i64*)

declare i64 @_ZN11vfun_abserrIdxNSt3__17complexIdEEE7iterateILN3wrt13runtime_flagsE0ELS6_0EL15increment_class2EEExPdPKxPKS2_RS9_SA_(double*, i64*, %"class.std::__1::complex"*, i64*, i64*)

declare i64 @_ZN11vfun_abserrIdxNSt3__17complexIdEEE7iterateILN3wrt13runtime_flagsE0ELS6_0EL15increment_class3EEExPdPKxPKS2_RS9_SA_(double*, i64*, %"class.std::__1::complex"*, i64*, i64*)

declare i64 @_ZN11vfun_abserrIdxNSt3__17complexIdEEE7iterateILN3wrt13runtime_flagsE1ELS6_0EL15increment_class1EEExPdPKxPKS2_RS9_SA_(double*, i64*, %"class.std::__1::complex"*, i64*, i64*)

declare i64 @_ZN11vfun_abserrIdxNSt3__17complexIdEEE7iterateILN3wrt13runtime_flagsE1ELS6_0EL15increment_class2EEExPdPKxPKS2_RS9_SA_(double*, i64*, %"class.std::__1::complex"*, i64*, i64*)

declare i64 @_ZN11vfun_abserrIdxNSt3__17complexIdEEE7iterateILN3wrt13runtime_flagsE1ELS6_0EL15increment_class3EEExPdPKxPKS2_RS9_SA_(double*, i64*, %"class.std::__1::complex"*, i64*, i64*)

declare i64 @_ZN11vfun_abserrIdxdE7iterateILN3wrt13runtime_flagsE1ELS3_0EL15increment_class0EEExPdPKxPKdRS6_S7_(double*, i64*, double*, i64*, i64*)

declare i64 @_ZN11vfun_abserrIdxdE7iterateILN3wrt13runtime_flagsE0ELS3_1EL15increment_class0EEExPdPKxPKdRS6_S7_(double*, i64*, double*, i64*, i64*)

declare i64 @_ZN11vfun_abserrIdxdE7iterateILN3wrt13runtime_flagsE0ELS3_0EL15increment_class0EEExPdPKxPKdRS6_S7_(double*, i64*, double*, i64*, i64*)

declare i64 @_ZN11vfun_abserrIdxdE7iterateILN3wrt13runtime_flagsE0ELS3_0EL15increment_class1EEExPdPKxPKdRS6_S7_(double*, i64*, double*, i64*, i64*)

declare i64 @_ZN11vfun_abserrIdxdE7iterateILN3wrt13runtime_flagsE0ELS3_0EL15increment_class2EEExPdPKxPKdRS6_S7_(double*, i64*, double*, i64*, i64*)

declare i64 @_ZN11vfun_abserrIdxdE7iterateILN3wrt13runtime_flagsE0ELS3_0EL15increment_class3EEExPdPKxPKdRS6_S7_(double*, i64*, double*, i64*, i64*)

declare i64 @_ZN11vfun_abserrIdxdE7iterateILN3wrt13runtime_flagsE0ELS3_1EL15increment_class1EEExPdPKxPKdRS6_S7_(double*, i64*, double*, i64*, i64*)

declare i64 @_ZN11vfun_abserrIdxdE7iterateILN3wrt13runtime_flagsE0ELS3_1EL15increment_class2EEExPdPKxPKdRS6_S7_(double*, i64*, double*, i64*, i64*)

declare i64 @_ZN11vfun_abserrIdxdE7iterateILN3wrt13runtime_flagsE0ELS3_1EL15increment_class3EEExPdPKxPKdRS6_S7_(double*, i64*, double*, i64*, i64*)

declare i64 @_ZN11vfun_abserrIdxdE7iterateILN3wrt13runtime_flagsE1ELS3_0EL15increment_class1EEExPdPKxPKdRS6_S7_(double*, i64*, double*, i64*, i64*)

declare i64 @_ZN11vfun_abserrIdxdE7iterateILN3wrt13runtime_flagsE1ELS3_0EL15increment_class2EEExPdPKxPKdRS6_S7_(double*, i64*, double*, i64*, i64*)

declare i64 @_ZN11vfun_abserrIdxdE7iterateILN3wrt13runtime_flagsE1ELS3_0EL15increment_class3EEExPdPKxPKdRS6_S7_(double*, i64*, double*, i64*, i64*)

declare i64 @_ZN11vfun_abserrIxxxE7iterateILN3wrt13runtime_flagsE0ELS3_1EL15increment_class0EEExPxPKxS7_RS6_S7_(i64*, i64*, i64*, i64*, i64*)

declare i64 @_ZN11vfun_abserrIxxxE7iterateILN3wrt13runtime_flagsE0ELS3_0EL15increment_class0EEExPxPKxS7_RS6_S7_(i64*, i64*, i64*, i64*, i64*)

; Function Attrs: nounwind readnone speculatable
declare { i64, i1 } @llvm.ssub.with.overflow.i64(i64, i64) #0

declare i64 @_ZN11vfun_abserrIxxxE7iterateILN3wrt13runtime_flagsE0ELS3_0EL15increment_class1EEExPxPKxS7_RS6_S7_(i64*, i64*, i64*, i64*, i64*)

declare i64 @_ZN11vfun_abserrIxxxE7iterateILN3wrt13runtime_flagsE0ELS3_0EL15increment_class2EEExPxPKxS7_RS6_S7_(i64*, i64*, i64*, i64*, i64*)

declare i64 @_ZN11vfun_abserrIxxxE7iterateILN3wrt13runtime_flagsE0ELS3_0EL15increment_class3EEExPxPKxS7_RS6_S7_(i64*, i64*, i64*, i64*, i64*)

declare i64 @_ZN11vfun_abserrIxxxE7iterateILN3wrt13runtime_flagsE0ELS3_1EL15increment_class1EEExPxPKxS7_RS6_S7_(i64*, i64*, i64*, i64*, i64*)

declare i64 @_ZN11vfun_abserrIxxxE7iterateILN3wrt13runtime_flagsE0ELS3_1EL15increment_class2EEExPxPKxS7_RS6_S7_(i64*, i64*, i64*, i64*, i64*)

declare i64 @_ZN11vfun_abserrIxxxE7iterateILN3wrt13runtime_flagsE0ELS3_1EL15increment_class3EEExPxPKxS7_RS6_S7_(i64*, i64*, i64*, i64*, i64*)

declare i64 @_ZN9vfun_chopINSt3__17complexIdEES2_dE7iterateILN3wrt13runtime_flagsE1ELS6_0EL15increment_class0EEExPS2_PKS2_PKdRKxPSD_(%"class.std::__1::complex"*, %"class.std::__1::complex"*, double*, i64*, i64*)

declare i64 @_ZN9vfun_chopINSt3__17complexIdEES2_dE7iterateILN3wrt13runtime_flagsE0ELS6_1EL15increment_class0EEExPS2_PKS2_PKdRKxPSD_(%"class.std::__1::complex"*, %"class.std::__1::complex"*, double*, i64*, i64*)

declare i64 @_ZN9vfun_chopINSt3__17complexIdEES2_dE7iterateILN3wrt13runtime_flagsE0ELS6_0EL15increment_class0EEExPS2_PKS2_PKdRKxPSD_(%"class.std::__1::complex"*, %"class.std::__1::complex"*, double*, i64*, i64*)

declare void @.omp_outlined..28.48(i32*, i32*, i64*, i64*, i64*, i64*, i64*, i64*, i64*, i64*, i64*, i64 (%"class.std::__1::complex"*, %"class.std::__1::complex"*, double*, i64*, i64*)**, %"class.std::__1::complex"**, %"class.std::__1::complex"**, double**, i64**)

declare { double, double } @_ZN3wrt9scalar_op6binaryL7chop_opINSt3__17complexIdEEdLNS_13runtime_flagsE1EEENS3_9enable_ifIXaasr10is_complexIT_EE5valuesr17is_floating_pointIT0_EE5valueENS1_6detail7op_infoILNSA_2opE8EN7rt_typeIS8_E4typeENSD_IS9_E4typeEE11result_typeEE4typeERKNSI_19first_argument_typeERKNSI_20second_argument_typeE(%"class.std::__1::complex"*, double*)

declare i64 @_ZN9vfun_chopINSt3__17complexIdEES2_dE7iterateILN3wrt13runtime_flagsE0ELS6_0EL15increment_class1EEExPS2_PKS2_PKdRKxPSD_(%"class.std::__1::complex"*, %"class.std::__1::complex"*, double*, i64*, i64*)

declare i64 @_ZN9vfun_chopINSt3__17complexIdEES2_dE7iterateILN3wrt13runtime_flagsE0ELS6_0EL15increment_class2EEExPS2_PKS2_PKdRKxPSD_(%"class.std::__1::complex"*, %"class.std::__1::complex"*, double*, i64*, i64*)

declare i64 @_ZN9vfun_chopINSt3__17complexIdEES2_dE7iterateILN3wrt13runtime_flagsE0ELS6_0EL15increment_class3EEExPS2_PKS2_PKdRKxPSD_(%"class.std::__1::complex"*, %"class.std::__1::complex"*, double*, i64*, i64*)

declare i64 @_ZN9vfun_chopINSt3__17complexIdEES2_dE7iterateILN3wrt13runtime_flagsE0ELS6_1EL15increment_class1EEExPS2_PKS2_PKdRKxPSD_(%"class.std::__1::complex"*, %"class.std::__1::complex"*, double*, i64*, i64*)

declare i64 @_ZN9vfun_chopINSt3__17complexIdEES2_dE7iterateILN3wrt13runtime_flagsE0ELS6_1EL15increment_class2EEExPS2_PKS2_PKdRKxPSD_(%"class.std::__1::complex"*, %"class.std::__1::complex"*, double*, i64*, i64*)

declare i64 @_ZN9vfun_chopINSt3__17complexIdEES2_dE7iterateILN3wrt13runtime_flagsE0ELS6_1EL15increment_class3EEExPS2_PKS2_PKdRKxPSD_(%"class.std::__1::complex"*, %"class.std::__1::complex"*, double*, i64*, i64*)

declare i64 @_ZN9vfun_chopINSt3__17complexIdEES2_dE7iterateILN3wrt13runtime_flagsE1ELS6_0EL15increment_class1EEExPS2_PKS2_PKdRKxPSD_(%"class.std::__1::complex"*, %"class.std::__1::complex"*, double*, i64*, i64*)

declare i64 @_ZN9vfun_chopINSt3__17complexIdEES2_dE7iterateILN3wrt13runtime_flagsE1ELS6_0EL15increment_class2EEExPS2_PKS2_PKdRKxPSD_(%"class.std::__1::complex"*, %"class.std::__1::complex"*, double*, i64*, i64*)

declare i64 @_ZN9vfun_chopINSt3__17complexIdEES2_dE7iterateILN3wrt13runtime_flagsE1ELS6_0EL15increment_class3EEExPS2_PKS2_PKdRKxPSD_(%"class.std::__1::complex"*, %"class.std::__1::complex"*, double*, i64*, i64*)

declare i64 @_ZN9vfun_chopIdddE7iterateILN3wrt13runtime_flagsE1ELS3_0EL15increment_class0EEExPdPKdS7_RKxPS8_(double*, double*, double*, i64*, i64*)

declare i64 @_ZN9vfun_chopIdddE7iterateILN3wrt13runtime_flagsE0ELS3_1EL15increment_class0EEExPdPKdS7_RKxPS8_(double*, double*, double*, i64*, i64*)

declare i64 @_ZN9vfun_chopIdddE7iterateILN3wrt13runtime_flagsE0ELS3_0EL15increment_class0EEExPdPKdS7_RKxPS8_(double*, double*, double*, i64*, i64*)

declare i64 @_ZN9vfun_chopIdddE7iterateILN3wrt13runtime_flagsE0ELS3_0EL15increment_class1EEExPdPKdS7_RKxPS8_(double*, double*, double*, i64*, i64*)

declare i64 @_ZN9vfun_chopIdddE7iterateILN3wrt13runtime_flagsE0ELS3_0EL15increment_class2EEExPdPKdS7_RKxPS8_(double*, double*, double*, i64*, i64*)

declare i64 @_ZN9vfun_chopIdddE7iterateILN3wrt13runtime_flagsE0ELS3_0EL15increment_class3EEExPdPKdS7_RKxPS8_(double*, double*, double*, i64*, i64*)

declare i64 @_ZN9vfun_chopIdddE7iterateILN3wrt13runtime_flagsE0ELS3_1EL15increment_class1EEExPdPKdS7_RKxPS8_(double*, double*, double*, i64*, i64*)

declare i64 @_ZN9vfun_chopIdddE7iterateILN3wrt13runtime_flagsE0ELS3_1EL15increment_class2EEExPdPKdS7_RKxPS8_(double*, double*, double*, i64*, i64*)

declare i64 @_ZN9vfun_chopIdddE7iterateILN3wrt13runtime_flagsE0ELS3_1EL15increment_class3EEExPdPKdS7_RKxPS8_(double*, double*, double*, i64*, i64*)

declare i64 @_ZN9vfun_chopIdddE7iterateILN3wrt13runtime_flagsE1ELS3_0EL15increment_class1EEExPdPKdS7_RKxPS8_(double*, double*, double*, i64*, i64*)

declare i64 @_ZN9vfun_chopIdddE7iterateILN3wrt13runtime_flagsE1ELS3_0EL15increment_class2EEExPdPKdS7_RKxPS8_(double*, double*, double*, i64*, i64*)

declare i64 @_ZN9vfun_chopIdddE7iterateILN3wrt13runtime_flagsE1ELS3_0EL15increment_class3EEExPdPKdS7_RKxPS8_(double*, double*, double*, i64*, i64*)

declare i64 @_ZN12vfun_bit_xorIxxxE7iterateILN3wrt13runtime_flagsE0ELS3_1EL15increment_class0EEExPxPKxS7_RS6_S7_(i64*, i64*, i64*, i64*, i64*)

declare i64 @_ZN12vfun_bit_xorIxxxE7iterateILN3wrt13runtime_flagsE0ELS3_0EL15increment_class0EEExPxPKxS7_RS6_S7_(i64*, i64*, i64*, i64*, i64*)

declare i64 @_ZN12vfun_bit_xorIxxxE7iterateILN3wrt13runtime_flagsE0ELS3_0EL15increment_class1EEExPxPKxS7_RS6_S7_(i64*, i64*, i64*, i64*, i64*)

declare i64 @_ZN12vfun_bit_xorIxxxE7iterateILN3wrt13runtime_flagsE0ELS3_0EL15increment_class2EEExPxPKxS7_RS6_S7_(i64*, i64*, i64*, i64*, i64*)

declare i64 @_ZN12vfun_bit_xorIxxxE7iterateILN3wrt13runtime_flagsE0ELS3_0EL15increment_class3EEExPxPKxS7_RS6_S7_(i64*, i64*, i64*, i64*, i64*)

declare i64 @_ZN12vfun_bit_xorIxxxE7iterateILN3wrt13runtime_flagsE0ELS3_1EL15increment_class1EEExPxPKxS7_RS6_S7_(i64*, i64*, i64*, i64*, i64*)

declare i64 @_ZN12vfun_bit_xorIxxxE7iterateILN3wrt13runtime_flagsE0ELS3_1EL15increment_class2EEExPxPKxS7_RS6_S7_(i64*, i64*, i64*, i64*, i64*)

declare i64 @_ZN12vfun_bit_xorIxxxE7iterateILN3wrt13runtime_flagsE0ELS3_1EL15increment_class3EEExPxPKxS7_RS6_S7_(i64*, i64*, i64*, i64*, i64*)

declare i64 @_ZN11vfun_bit_orIxxxE7iterateILN3wrt13runtime_flagsE0ELS3_1EL15increment_class0EEExPxPKxS7_RS6_S7_(i64*, i64*, i64*, i64*, i64*)

declare i64 @_ZN11vfun_bit_orIxxxE7iterateILN3wrt13runtime_flagsE0ELS3_0EL15increment_class0EEExPxPKxS7_RS6_S7_(i64*, i64*, i64*, i64*, i64*)

declare i64 @_ZN11vfun_bit_orIxxxE7iterateILN3wrt13runtime_flagsE0ELS3_0EL15increment_class1EEExPxPKxS7_RS6_S7_(i64*, i64*, i64*, i64*, i64*)

declare i64 @_ZN11vfun_bit_orIxxxE7iterateILN3wrt13runtime_flagsE0ELS3_0EL15increment_class2EEExPxPKxS7_RS6_S7_(i64*, i64*, i64*, i64*, i64*)

declare i64 @_ZN11vfun_bit_orIxxxE7iterateILN3wrt13runtime_flagsE0ELS3_0EL15increment_class3EEExPxPKxS7_RS6_S7_(i64*, i64*, i64*, i64*, i64*)

declare i64 @_ZN11vfun_bit_orIxxxE7iterateILN3wrt13runtime_flagsE0ELS3_1EL15increment_class1EEExPxPKxS7_RS6_S7_(i64*, i64*, i64*, i64*, i64*)

declare i64 @_ZN11vfun_bit_orIxxxE7iterateILN3wrt13runtime_flagsE0ELS3_1EL15increment_class2EEExPxPKxS7_RS6_S7_(i64*, i64*, i64*, i64*, i64*)

declare i64 @_ZN11vfun_bit_orIxxxE7iterateILN3wrt13runtime_flagsE0ELS3_1EL15increment_class3EEExPxPKxS7_RS6_S7_(i64*, i64*, i64*, i64*, i64*)

declare i64 @_ZN12vfun_bit_andIxxxE7iterateILN3wrt13runtime_flagsE0ELS3_1EL15increment_class0EEExPxPKxS7_RS6_S7_(i64*, i64*, i64*, i64*, i64*)

declare i64 @_ZN12vfun_bit_andIxxxE7iterateILN3wrt13runtime_flagsE0ELS3_0EL15increment_class0EEExPxPKxS7_RS6_S7_(i64*, i64*, i64*, i64*, i64*)

declare i64 @_ZN12vfun_bit_andIxxxE7iterateILN3wrt13runtime_flagsE0ELS3_0EL15increment_class1EEExPxPKxS7_RS6_S7_(i64*, i64*, i64*, i64*, i64*)

declare i64 @_ZN12vfun_bit_andIxxxE7iterateILN3wrt13runtime_flagsE0ELS3_0EL15increment_class2EEExPxPKxS7_RS6_S7_(i64*, i64*, i64*, i64*, i64*)

declare i64 @_ZN12vfun_bit_andIxxxE7iterateILN3wrt13runtime_flagsE0ELS3_0EL15increment_class3EEExPxPKxS7_RS6_S7_(i64*, i64*, i64*, i64*, i64*)

declare i64 @_ZN12vfun_bit_andIxxxE7iterateILN3wrt13runtime_flagsE0ELS3_1EL15increment_class1EEExPxPKxS7_RS6_S7_(i64*, i64*, i64*, i64*, i64*)

declare i64 @_ZN12vfun_bit_andIxxxE7iterateILN3wrt13runtime_flagsE0ELS3_1EL15increment_class2EEExPxPKxS7_RS6_S7_(i64*, i64*, i64*, i64*, i64*)

declare i64 @_ZN12vfun_bit_andIxxxE7iterateILN3wrt13runtime_flagsE0ELS3_1EL15increment_class3EEExPxPKxS7_RS6_S7_(i64*, i64*, i64*, i64*, i64*)

declare i64 @_ZN10vfun_atan2INSt3__17complexIdEES2_S2_E7iterateILN3wrt13runtime_flagsE1ELS6_0EL15increment_class0EEExPS2_PKS2_SA_RKxPSB_(%"class.std::__1::complex"*, %"class.std::__1::complex"*, %"class.std::__1::complex"*, i64*, i64*)

declare i64 @_ZN10vfun_atan2INSt3__17complexIdEES2_S2_E7iterateILN3wrt13runtime_flagsE0ELS6_1EL15increment_class0EEExPS2_PKS2_SA_RKxPSB_(%"class.std::__1::complex"*, %"class.std::__1::complex"*, %"class.std::__1::complex"*, i64*, i64*)

declare i64 @_ZN10vfun_atan2INSt3__17complexIdEES2_S2_E7iterateILN3wrt13runtime_flagsE0ELS6_0EL15increment_class0EEExPS2_PKS2_SA_RKxPSB_(%"class.std::__1::complex"*, %"class.std::__1::complex"*, %"class.std::__1::complex"*, i64*, i64*)

declare void @.omp_outlined..30(i32*, i32*, i64*, i64*, i64*, i64*, i64*, i64*, i64*, i64*, i64*, i64 (%"class.std::__1::complex"*, %"class.std::__1::complex"*, %"class.std::__1::complex"*, i64*, i64*)**, %"class.std::__1::complex"**, %"class.std::__1::complex"**, %"class.std::__1::complex"**, i64**)

declare { double, double } @_ZN3wrt9scalar_op6binaryL8atan2_opINSt3__17complexIdEES5_LNS_13runtime_flagsE0EEENS3_9enable_ifIXoosr10is_complexIT_EE5valuesr10is_complexIT0_EE5valueENS1_6detail7op_infoILNSA_2opE2EN7rt_typeIS8_E4typeENSD_IS9_E4typeEE11result_typeEE4typeERKNSI_19first_argument_typeERKNSI_20second_argument_typeE(double, double, double, double)

declare { double, double } @_ZN3wrt9scalar_op6binaryL8atan2_opINSt3__17complexIdEES5_LNS_13runtime_flagsE1EEENS3_9enable_ifIXoosr10is_complexIT_EE5valuesr10is_complexIT0_EE5valueENS1_6detail7op_infoILNSA_2opE2EN7rt_typeIS8_E4typeENSD_IS9_E4typeEE11result_typeEE4typeERKNSI_19first_argument_typeERKNSI_20second_argument_typeE(double, double, double, double)

declare i64 @_ZN10vfun_atan2INSt3__17complexIdEES2_S2_E7iterateILN3wrt13runtime_flagsE0ELS6_0EL15increment_class1EEExPS2_PKS2_SA_RKxPSB_(%"class.std::__1::complex"*, %"class.std::__1::complex"*, %"class.std::__1::complex"*, i64*, i64*)

declare i64 @_ZN10vfun_atan2INSt3__17complexIdEES2_S2_E7iterateILN3wrt13runtime_flagsE0ELS6_0EL15increment_class2EEExPS2_PKS2_SA_RKxPSB_(%"class.std::__1::complex"*, %"class.std::__1::complex"*, %"class.std::__1::complex"*, i64*, i64*)

declare i64 @_ZN10vfun_atan2INSt3__17complexIdEES2_S2_E7iterateILN3wrt13runtime_flagsE0ELS6_0EL15increment_class3EEExPS2_PKS2_SA_RKxPSB_(%"class.std::__1::complex"*, %"class.std::__1::complex"*, %"class.std::__1::complex"*, i64*, i64*)

declare i64 @_ZN10vfun_atan2INSt3__17complexIdEES2_S2_E7iterateILN3wrt13runtime_flagsE0ELS6_1EL15increment_class1EEExPS2_PKS2_SA_RKxPSB_(%"class.std::__1::complex"*, %"class.std::__1::complex"*, %"class.std::__1::complex"*, i64*, i64*)

declare i64 @_ZN10vfun_atan2INSt3__17complexIdEES2_S2_E7iterateILN3wrt13runtime_flagsE0ELS6_1EL15increment_class2EEExPS2_PKS2_SA_RKxPSB_(%"class.std::__1::complex"*, %"class.std::__1::complex"*, %"class.std::__1::complex"*, i64*, i64*)

declare i64 @_ZN10vfun_atan2INSt3__17complexIdEES2_S2_E7iterateILN3wrt13runtime_flagsE0ELS6_1EL15increment_class3EEExPS2_PKS2_SA_RKxPSB_(%"class.std::__1::complex"*, %"class.std::__1::complex"*, %"class.std::__1::complex"*, i64*, i64*)

declare i64 @_ZN10vfun_atan2INSt3__17complexIdEES2_S2_E7iterateILN3wrt13runtime_flagsE1ELS6_0EL15increment_class1EEExPS2_PKS2_SA_RKxPSB_(%"class.std::__1::complex"*, %"class.std::__1::complex"*, %"class.std::__1::complex"*, i64*, i64*)

declare i64 @_ZN10vfun_atan2INSt3__17complexIdEES2_S2_E7iterateILN3wrt13runtime_flagsE1ELS6_0EL15increment_class2EEExPS2_PKS2_SA_RKxPSB_(%"class.std::__1::complex"*, %"class.std::__1::complex"*, %"class.std::__1::complex"*, i64*, i64*)

declare i64 @_ZN10vfun_atan2INSt3__17complexIdEES2_S2_E7iterateILN3wrt13runtime_flagsE1ELS6_0EL15increment_class3EEExPS2_PKS2_SA_RKxPSB_(%"class.std::__1::complex"*, %"class.std::__1::complex"*, %"class.std::__1::complex"*, i64*, i64*)

declare i64 @_ZN10vfun_atan2INSt3__17complexIdEES2_dE7iterateILN3wrt13runtime_flagsE1ELS6_0EL15increment_class0EEExPS2_PKS2_PKdRKxPSD_(%"class.std::__1::complex"*, %"class.std::__1::complex"*, double*, i64*, i64*)

declare i64 @_ZN10vfun_atan2INSt3__17complexIdEES2_dE7iterateILN3wrt13runtime_flagsE0ELS6_1EL15increment_class0EEExPS2_PKS2_PKdRKxPSD_(%"class.std::__1::complex"*, %"class.std::__1::complex"*, double*, i64*, i64*)

declare i64 @_ZN10vfun_atan2INSt3__17complexIdEES2_dE7iterateILN3wrt13runtime_flagsE0ELS6_0EL15increment_class0EEExPS2_PKS2_PKdRKxPSD_(%"class.std::__1::complex"*, %"class.std::__1::complex"*, double*, i64*, i64*)

declare { double, double } @_ZN3wrt9scalar_op6binaryL8atan2_opINSt3__17complexIdEEdLNS_13runtime_flagsE0EEENS3_9enable_ifIXoosr10is_complexIT_EE5valuesr10is_complexIT0_EE5valueENS1_6detail7op_infoILNSA_2opE2EN7rt_typeIS8_E4typeENSD_IS9_E4typeEE11result_typeEE4typeERKNSI_19first_argument_typeERKNSI_20second_argument_typeE(double, double, double)

declare { double, double } @_ZN3wrt9scalar_op6binaryL8atan2_opINSt3__17complexIdEEdLNS_13runtime_flagsE1EEENS3_9enable_ifIXoosr10is_complexIT_EE5valuesr10is_complexIT0_EE5valueENS1_6detail7op_infoILNSA_2opE2EN7rt_typeIS8_E4typeENSD_IS9_E4typeEE11result_typeEE4typeERKNSI_19first_argument_typeERKNSI_20second_argument_typeE(double, double, double)

declare i64 @_ZN10vfun_atan2INSt3__17complexIdEES2_dE7iterateILN3wrt13runtime_flagsE0ELS6_0EL15increment_class1EEExPS2_PKS2_PKdRKxPSD_(%"class.std::__1::complex"*, %"class.std::__1::complex"*, double*, i64*, i64*)

declare i64 @_ZN10vfun_atan2INSt3__17complexIdEES2_dE7iterateILN3wrt13runtime_flagsE0ELS6_0EL15increment_class2EEExPS2_PKS2_PKdRKxPSD_(%"class.std::__1::complex"*, %"class.std::__1::complex"*, double*, i64*, i64*)

declare i64 @_ZN10vfun_atan2INSt3__17complexIdEES2_dE7iterateILN3wrt13runtime_flagsE0ELS6_0EL15increment_class3EEExPS2_PKS2_PKdRKxPSD_(%"class.std::__1::complex"*, %"class.std::__1::complex"*, double*, i64*, i64*)

declare i64 @_ZN10vfun_atan2INSt3__17complexIdEES2_dE7iterateILN3wrt13runtime_flagsE0ELS6_1EL15increment_class1EEExPS2_PKS2_PKdRKxPSD_(%"class.std::__1::complex"*, %"class.std::__1::complex"*, double*, i64*, i64*)

declare i64 @_ZN10vfun_atan2INSt3__17complexIdEES2_dE7iterateILN3wrt13runtime_flagsE0ELS6_1EL15increment_class2EEExPS2_PKS2_PKdRKxPSD_(%"class.std::__1::complex"*, %"class.std::__1::complex"*, double*, i64*, i64*)

declare i64 @_ZN10vfun_atan2INSt3__17complexIdEES2_dE7iterateILN3wrt13runtime_flagsE0ELS6_1EL15increment_class3EEExPS2_PKS2_PKdRKxPSD_(%"class.std::__1::complex"*, %"class.std::__1::complex"*, double*, i64*, i64*)

declare i64 @_ZN10vfun_atan2INSt3__17complexIdEES2_dE7iterateILN3wrt13runtime_flagsE1ELS6_0EL15increment_class1EEExPS2_PKS2_PKdRKxPSD_(%"class.std::__1::complex"*, %"class.std::__1::complex"*, double*, i64*, i64*)

declare i64 @_ZN10vfun_atan2INSt3__17complexIdEES2_dE7iterateILN3wrt13runtime_flagsE1ELS6_0EL15increment_class2EEExPS2_PKS2_PKdRKxPSD_(%"class.std::__1::complex"*, %"class.std::__1::complex"*, double*, i64*, i64*)

declare i64 @_ZN10vfun_atan2INSt3__17complexIdEES2_dE7iterateILN3wrt13runtime_flagsE1ELS6_0EL15increment_class3EEExPS2_PKS2_PKdRKxPSD_(%"class.std::__1::complex"*, %"class.std::__1::complex"*, double*, i64*, i64*)

declare i64 @_ZN10vfun_atan2INSt3__17complexIdEES2_xE7iterateILN3wrt13runtime_flagsE1ELS6_0EL15increment_class0EEExPS2_PKS2_PKxRSB_SC_(%"class.std::__1::complex"*, %"class.std::__1::complex"*, i64*, i64*, i64*)

declare i64 @_ZN10vfun_atan2INSt3__17complexIdEES2_xE7iterateILN3wrt13runtime_flagsE0ELS6_1EL15increment_class0EEExPS2_PKS2_PKxRSB_SC_(%"class.std::__1::complex"*, %"class.std::__1::complex"*, i64*, i64*, i64*)

declare i64 @_ZN10vfun_atan2INSt3__17complexIdEES2_xE7iterateILN3wrt13runtime_flagsE0ELS6_0EL15increment_class0EEExPS2_PKS2_PKxRSB_SC_(%"class.std::__1::complex"*, %"class.std::__1::complex"*, i64*, i64*, i64*)

declare { double, double } @_ZN3wrt9scalar_op6binaryL8atan2_opINSt3__17complexIdEExLNS_13runtime_flagsE0EEENS3_9enable_ifIXoosr10is_complexIT_EE5valuesr10is_complexIT0_EE5valueENS1_6detail7op_infoILNSA_2opE2EN7rt_typeIS8_E4typeENSD_IS9_E4typeEE11result_typeEE4typeERKNSI_19first_argument_typeERKNSI_20second_argument_typeE(double, double, i64)

declare { double, double } @_ZN3wrt9scalar_op6binaryL8atan2_opINSt3__17complexIdEExLNS_13runtime_flagsE1EEENS3_9enable_ifIXoosr10is_complexIT_EE5valuesr10is_complexIT0_EE5valueENS1_6detail7op_infoILNSA_2opE2EN7rt_typeIS8_E4typeENSD_IS9_E4typeEE11result_typeEE4typeERKNSI_19first_argument_typeERKNSI_20second_argument_typeE(double, double, i64)

declare i64 @_ZN10vfun_atan2INSt3__17complexIdEES2_xE7iterateILN3wrt13runtime_flagsE0ELS6_0EL15increment_class1EEExPS2_PKS2_PKxRSB_SC_(%"class.std::__1::complex"*, %"class.std::__1::complex"*, i64*, i64*, i64*)

declare i64 @_ZN10vfun_atan2INSt3__17complexIdEES2_xE7iterateILN3wrt13runtime_flagsE0ELS6_0EL15increment_class2EEExPS2_PKS2_PKxRSB_SC_(%"class.std::__1::complex"*, %"class.std::__1::complex"*, i64*, i64*, i64*)

declare i64 @_ZN10vfun_atan2INSt3__17complexIdEES2_xE7iterateILN3wrt13runtime_flagsE0ELS6_0EL15increment_class3EEExPS2_PKS2_PKxRSB_SC_(%"class.std::__1::complex"*, %"class.std::__1::complex"*, i64*, i64*, i64*)

declare i64 @_ZN10vfun_atan2INSt3__17complexIdEES2_xE7iterateILN3wrt13runtime_flagsE0ELS6_1EL15increment_class1EEExPS2_PKS2_PKxRSB_SC_(%"class.std::__1::complex"*, %"class.std::__1::complex"*, i64*, i64*, i64*)

declare i64 @_ZN10vfun_atan2INSt3__17complexIdEES2_xE7iterateILN3wrt13runtime_flagsE0ELS6_1EL15increment_class2EEExPS2_PKS2_PKxRSB_SC_(%"class.std::__1::complex"*, %"class.std::__1::complex"*, i64*, i64*, i64*)

declare i64 @_ZN10vfun_atan2INSt3__17complexIdEES2_xE7iterateILN3wrt13runtime_flagsE0ELS6_1EL15increment_class3EEExPS2_PKS2_PKxRSB_SC_(%"class.std::__1::complex"*, %"class.std::__1::complex"*, i64*, i64*, i64*)

declare i64 @_ZN10vfun_atan2INSt3__17complexIdEES2_xE7iterateILN3wrt13runtime_flagsE1ELS6_0EL15increment_class1EEExPS2_PKS2_PKxRSB_SC_(%"class.std::__1::complex"*, %"class.std::__1::complex"*, i64*, i64*, i64*)

declare i64 @_ZN10vfun_atan2INSt3__17complexIdEES2_xE7iterateILN3wrt13runtime_flagsE1ELS6_0EL15increment_class2EEExPS2_PKS2_PKxRSB_SC_(%"class.std::__1::complex"*, %"class.std::__1::complex"*, i64*, i64*, i64*)

declare i64 @_ZN10vfun_atan2INSt3__17complexIdEES2_xE7iterateILN3wrt13runtime_flagsE1ELS6_0EL15increment_class3EEExPS2_PKS2_PKxRSB_SC_(%"class.std::__1::complex"*, %"class.std::__1::complex"*, i64*, i64*, i64*)

declare i64 @_ZN10vfun_atan2INSt3__17complexIdEEdS2_E7iterateILN3wrt13runtime_flagsE1ELS6_0EL15increment_class0EEExPS2_PKdPKS2_RKxPSD_(%"class.std::__1::complex"*, double*, %"class.std::__1::complex"*, i64*, i64*)

declare i64 @_ZN10vfun_atan2INSt3__17complexIdEEdS2_E7iterateILN3wrt13runtime_flagsE0ELS6_1EL15increment_class0EEExPS2_PKdPKS2_RKxPSD_(%"class.std::__1::complex"*, double*, %"class.std::__1::complex"*, i64*, i64*)

declare i64 @_ZN10vfun_atan2INSt3__17complexIdEEdS2_E7iterateILN3wrt13runtime_flagsE0ELS6_0EL15increment_class0EEExPS2_PKdPKS2_RKxPSD_(%"class.std::__1::complex"*, double*, %"class.std::__1::complex"*, i64*, i64*)

declare void @.omp_outlined..26(i32*, i32*, i64*, i64*, i64*, i64*, i64*, i64*, i64*, i64*, i64*, i64 (%"class.std::__1::complex"*, double*, %"class.std::__1::complex"*, i64*, i64*)**, %"class.std::__1::complex"**, double**, %"class.std::__1::complex"**, i64**)

declare { double, double } @_ZN3wrt9scalar_op6binaryL8atan2_opIdNSt3__17complexIdEELNS_13runtime_flagsE0EEENS3_9enable_ifIXoosr10is_complexIT_EE5valuesr10is_complexIT0_EE5valueENS1_6detail7op_infoILNSA_2opE2EN7rt_typeIS8_E4typeENSD_IS9_E4typeEE11result_typeEE4typeERKNSI_19first_argument_typeERKNSI_20second_argument_typeE(double, double, double)

declare { double, double } @_ZN3wrt9scalar_op6binaryL8atan2_opIdNSt3__17complexIdEELNS_13runtime_flagsE1EEENS3_9enable_ifIXoosr10is_complexIT_EE5valuesr10is_complexIT0_EE5valueENS1_6detail7op_infoILNSA_2opE2EN7rt_typeIS8_E4typeENSD_IS9_E4typeEE11result_typeEE4typeERKNSI_19first_argument_typeERKNSI_20second_argument_typeE(double, double, double)

declare i64 @_ZN10vfun_atan2INSt3__17complexIdEEdS2_E7iterateILN3wrt13runtime_flagsE0ELS6_0EL15increment_class1EEExPS2_PKdPKS2_RKxPSD_(%"class.std::__1::complex"*, double*, %"class.std::__1::complex"*, i64*, i64*)

declare i64 @_ZN10vfun_atan2INSt3__17complexIdEEdS2_E7iterateILN3wrt13runtime_flagsE0ELS6_0EL15increment_class2EEExPS2_PKdPKS2_RKxPSD_(%"class.std::__1::complex"*, double*, %"class.std::__1::complex"*, i64*, i64*)

declare i64 @_ZN10vfun_atan2INSt3__17complexIdEEdS2_E7iterateILN3wrt13runtime_flagsE0ELS6_0EL15increment_class3EEExPS2_PKdPKS2_RKxPSD_(%"class.std::__1::complex"*, double*, %"class.std::__1::complex"*, i64*, i64*)

declare i64 @_ZN10vfun_atan2INSt3__17complexIdEEdS2_E7iterateILN3wrt13runtime_flagsE0ELS6_1EL15increment_class1EEExPS2_PKdPKS2_RKxPSD_(%"class.std::__1::complex"*, double*, %"class.std::__1::complex"*, i64*, i64*)

declare i64 @_ZN10vfun_atan2INSt3__17complexIdEEdS2_E7iterateILN3wrt13runtime_flagsE0ELS6_1EL15increment_class2EEExPS2_PKdPKS2_RKxPSD_(%"class.std::__1::complex"*, double*, %"class.std::__1::complex"*, i64*, i64*)

declare i64 @_ZN10vfun_atan2INSt3__17complexIdEEdS2_E7iterateILN3wrt13runtime_flagsE0ELS6_1EL15increment_class3EEExPS2_PKdPKS2_RKxPSD_(%"class.std::__1::complex"*, double*, %"class.std::__1::complex"*, i64*, i64*)

declare i64 @_ZN10vfun_atan2INSt3__17complexIdEEdS2_E7iterateILN3wrt13runtime_flagsE1ELS6_0EL15increment_class1EEExPS2_PKdPKS2_RKxPSD_(%"class.std::__1::complex"*, double*, %"class.std::__1::complex"*, i64*, i64*)

declare i64 @_ZN10vfun_atan2INSt3__17complexIdEEdS2_E7iterateILN3wrt13runtime_flagsE1ELS6_0EL15increment_class2EEExPS2_PKdPKS2_RKxPSD_(%"class.std::__1::complex"*, double*, %"class.std::__1::complex"*, i64*, i64*)

declare i64 @_ZN10vfun_atan2INSt3__17complexIdEEdS2_E7iterateILN3wrt13runtime_flagsE1ELS6_0EL15increment_class3EEExPS2_PKdPKS2_RKxPSD_(%"class.std::__1::complex"*, double*, %"class.std::__1::complex"*, i64*, i64*)

declare i64 @_ZN10vfun_atan2IdddE7iterateILN3wrt13runtime_flagsE1ELS3_0EL15increment_class0EEExPdPKdS7_RKxPS8_(double*, double*, double*, i64*, i64*)

declare i64 @_ZN10vfun_atan2IdddE7iterateILN3wrt13runtime_flagsE0ELS3_1EL15increment_class0EEExPdPKdS7_RKxPS8_(double*, double*, double*, i64*, i64*)

declare i64 @_ZN10vfun_atan2IdddE7iterateILN3wrt13runtime_flagsE0ELS3_0EL15increment_class0EEExPdPKdS7_RKxPS8_(double*, double*, double*, i64*, i64*)

declare i64 @_ZN10vfun_atan2IdddE7iterateILN3wrt13runtime_flagsE0ELS3_0EL15increment_class1EEExPdPKdS7_RKxPS8_(double*, double*, double*, i64*, i64*)

declare i64 @_ZN10vfun_atan2IdddE7iterateILN3wrt13runtime_flagsE0ELS3_0EL15increment_class2EEExPdPKdS7_RKxPS8_(double*, double*, double*, i64*, i64*)

declare i64 @_ZN10vfun_atan2IdddE7iterateILN3wrt13runtime_flagsE0ELS3_0EL15increment_class3EEExPdPKdS7_RKxPS8_(double*, double*, double*, i64*, i64*)

declare void @vdAtan2(i64, double*, double*, double*)

declare i64 @_ZN10vfun_atan2IdddE7iterateILN3wrt13runtime_flagsE0ELS3_1EL15increment_class1EEExPdPKdS7_RKxPS8_(double*, double*, double*, i64*, i64*)

declare i64 @_ZN10vfun_atan2IdddE7iterateILN3wrt13runtime_flagsE0ELS3_1EL15increment_class2EEExPdPKdS7_RKxPS8_(double*, double*, double*, i64*, i64*)

declare i64 @_ZN10vfun_atan2IdddE7iterateILN3wrt13runtime_flagsE0ELS3_1EL15increment_class3EEExPdPKdS7_RKxPS8_(double*, double*, double*, i64*, i64*)

declare i64 @_ZN10vfun_atan2IdddE7iterateILN3wrt13runtime_flagsE1ELS3_0EL15increment_class1EEExPdPKdS7_RKxPS8_(double*, double*, double*, i64*, i64*)

declare i64 @_ZN10vfun_atan2IdddE7iterateILN3wrt13runtime_flagsE1ELS3_0EL15increment_class2EEExPdPKdS7_RKxPS8_(double*, double*, double*, i64*, i64*)

declare i64 @_ZN10vfun_atan2IdddE7iterateILN3wrt13runtime_flagsE1ELS3_0EL15increment_class3EEExPdPKdS7_RKxPS8_(double*, double*, double*, i64*, i64*)

declare i64 @_ZN10vfun_atan2IddxE7iterateILN3wrt13runtime_flagsE1ELS3_0EL15increment_class0EEExPdPKdPKxRS8_S9_(double*, double*, i64*, i64*, i64*)

declare i64 @_ZN10vfun_atan2IddxE7iterateILN3wrt13runtime_flagsE0ELS3_1EL15increment_class0EEExPdPKdPKxRS8_S9_(double*, double*, i64*, i64*, i64*)

declare i64 @_ZN10vfun_atan2IddxE7iterateILN3wrt13runtime_flagsE0ELS3_0EL15increment_class0EEExPdPKdPKxRS8_S9_(double*, double*, i64*, i64*, i64*)

declare i64 @_ZN10vfun_atan2IddxE7iterateILN3wrt13runtime_flagsE0ELS3_0EL15increment_class1EEExPdPKdPKxRS8_S9_(double*, double*, i64*, i64*, i64*)

declare i64 @_ZN10vfun_atan2IddxE7iterateILN3wrt13runtime_flagsE0ELS3_0EL15increment_class2EEExPdPKdPKxRS8_S9_(double*, double*, i64*, i64*, i64*)

declare i64 @_ZN10vfun_atan2IddxE7iterateILN3wrt13runtime_flagsE0ELS3_0EL15increment_class3EEExPdPKdPKxRS8_S9_(double*, double*, i64*, i64*, i64*)

declare i64 @_ZN10vfun_atan2IddxE7iterateILN3wrt13runtime_flagsE0ELS3_1EL15increment_class1EEExPdPKdPKxRS8_S9_(double*, double*, i64*, i64*, i64*)

declare i64 @_ZN10vfun_atan2IddxE7iterateILN3wrt13runtime_flagsE0ELS3_1EL15increment_class2EEExPdPKdPKxRS8_S9_(double*, double*, i64*, i64*, i64*)

declare i64 @_ZN10vfun_atan2IddxE7iterateILN3wrt13runtime_flagsE0ELS3_1EL15increment_class3EEExPdPKdPKxRS8_S9_(double*, double*, i64*, i64*, i64*)

declare i64 @_ZN10vfun_atan2IddxE7iterateILN3wrt13runtime_flagsE1ELS3_0EL15increment_class1EEExPdPKdPKxRS8_S9_(double*, double*, i64*, i64*, i64*)

declare i64 @_ZN10vfun_atan2IddxE7iterateILN3wrt13runtime_flagsE1ELS3_0EL15increment_class2EEExPdPKdPKxRS8_S9_(double*, double*, i64*, i64*, i64*)

declare i64 @_ZN10vfun_atan2IddxE7iterateILN3wrt13runtime_flagsE1ELS3_0EL15increment_class3EEExPdPKdPKxRS8_S9_(double*, double*, i64*, i64*, i64*)

declare i64 @_ZN10vfun_atan2INSt3__17complexIdEExS2_E7iterateILN3wrt13runtime_flagsE1ELS6_0EL15increment_class0EEExPS2_PKxPKS2_RS9_SA_(%"class.std::__1::complex"*, i64*, %"class.std::__1::complex"*, i64*, i64*)

declare i64 @_ZN10vfun_atan2INSt3__17complexIdEExS2_E7iterateILN3wrt13runtime_flagsE0ELS6_1EL15increment_class0EEExPS2_PKxPKS2_RS9_SA_(%"class.std::__1::complex"*, i64*, %"class.std::__1::complex"*, i64*, i64*)

declare i64 @_ZN10vfun_atan2INSt3__17complexIdEExS2_E7iterateILN3wrt13runtime_flagsE0ELS6_0EL15increment_class0EEExPS2_PKxPKS2_RS9_SA_(%"class.std::__1::complex"*, i64*, %"class.std::__1::complex"*, i64*, i64*)

declare void @.omp_outlined..22(i32*, i32*, i64*, i64*, i64*, i64*, i64*, i64*, i64*, i64*, i64*, i64 (%"class.std::__1::complex"*, i64*, %"class.std::__1::complex"*, i64*, i64*)**, %"class.std::__1::complex"**, i64**, %"class.std::__1::complex"**, i64**)

declare { double, double } @_ZN3wrt9scalar_op6binaryL8atan2_opIxNSt3__17complexIdEELNS_13runtime_flagsE0EEENS3_9enable_ifIXoosr10is_complexIT_EE5valuesr10is_complexIT0_EE5valueENS1_6detail7op_infoILNSA_2opE2EN7rt_typeIS8_E4typeENSD_IS9_E4typeEE11result_typeEE4typeERKNSI_19first_argument_typeERKNSI_20second_argument_typeE(i64, double, double)

declare { double, double } @_ZN3wrt9scalar_op6binaryL8atan2_opIxNSt3__17complexIdEELNS_13runtime_flagsE1EEENS3_9enable_ifIXoosr10is_complexIT_EE5valuesr10is_complexIT0_EE5valueENS1_6detail7op_infoILNSA_2opE2EN7rt_typeIS8_E4typeENSD_IS9_E4typeEE11result_typeEE4typeERKNSI_19first_argument_typeERKNSI_20second_argument_typeE(i64, double, double)

declare i64 @_ZN10vfun_atan2INSt3__17complexIdEExS2_E7iterateILN3wrt13runtime_flagsE0ELS6_0EL15increment_class1EEExPS2_PKxPKS2_RS9_SA_(%"class.std::__1::complex"*, i64*, %"class.std::__1::complex"*, i64*, i64*)

declare i64 @_ZN10vfun_atan2INSt3__17complexIdEExS2_E7iterateILN3wrt13runtime_flagsE0ELS6_0EL15increment_class2EEExPS2_PKxPKS2_RS9_SA_(%"class.std::__1::complex"*, i64*, %"class.std::__1::complex"*, i64*, i64*)

declare i64 @_ZN10vfun_atan2INSt3__17complexIdEExS2_E7iterateILN3wrt13runtime_flagsE0ELS6_0EL15increment_class3EEExPS2_PKxPKS2_RS9_SA_(%"class.std::__1::complex"*, i64*, %"class.std::__1::complex"*, i64*, i64*)

declare i64 @_ZN10vfun_atan2INSt3__17complexIdEExS2_E7iterateILN3wrt13runtime_flagsE0ELS6_1EL15increment_class1EEExPS2_PKxPKS2_RS9_SA_(%"class.std::__1::complex"*, i64*, %"class.std::__1::complex"*, i64*, i64*)

declare i64 @_ZN10vfun_atan2INSt3__17complexIdEExS2_E7iterateILN3wrt13runtime_flagsE0ELS6_1EL15increment_class2EEExPS2_PKxPKS2_RS9_SA_(%"class.std::__1::complex"*, i64*, %"class.std::__1::complex"*, i64*, i64*)

declare i64 @_ZN10vfun_atan2INSt3__17complexIdEExS2_E7iterateILN3wrt13runtime_flagsE0ELS6_1EL15increment_class3EEExPS2_PKxPKS2_RS9_SA_(%"class.std::__1::complex"*, i64*, %"class.std::__1::complex"*, i64*, i64*)

declare i64 @_ZN10vfun_atan2INSt3__17complexIdEExS2_E7iterateILN3wrt13runtime_flagsE1ELS6_0EL15increment_class1EEExPS2_PKxPKS2_RS9_SA_(%"class.std::__1::complex"*, i64*, %"class.std::__1::complex"*, i64*, i64*)

declare i64 @_ZN10vfun_atan2INSt3__17complexIdEExS2_E7iterateILN3wrt13runtime_flagsE1ELS6_0EL15increment_class2EEExPS2_PKxPKS2_RS9_SA_(%"class.std::__1::complex"*, i64*, %"class.std::__1::complex"*, i64*, i64*)

declare i64 @_ZN10vfun_atan2INSt3__17complexIdEExS2_E7iterateILN3wrt13runtime_flagsE1ELS6_0EL15increment_class3EEExPS2_PKxPKS2_RS9_SA_(%"class.std::__1::complex"*, i64*, %"class.std::__1::complex"*, i64*, i64*)

declare i64 @_ZN10vfun_atan2IdxdE7iterateILN3wrt13runtime_flagsE1ELS3_0EL15increment_class0EEExPdPKxPKdRS6_S7_(double*, i64*, double*, i64*, i64*)

declare i64 @_ZN10vfun_atan2IdxdE7iterateILN3wrt13runtime_flagsE0ELS3_1EL15increment_class0EEExPdPKxPKdRS6_S7_(double*, i64*, double*, i64*, i64*)

declare i64 @_ZN10vfun_atan2IdxdE7iterateILN3wrt13runtime_flagsE0ELS3_0EL15increment_class0EEExPdPKxPKdRS6_S7_(double*, i64*, double*, i64*, i64*)

declare i64 @_ZN10vfun_atan2IdxdE7iterateILN3wrt13runtime_flagsE0ELS3_0EL15increment_class1EEExPdPKxPKdRS6_S7_(double*, i64*, double*, i64*, i64*)

declare i64 @_ZN10vfun_atan2IdxdE7iterateILN3wrt13runtime_flagsE0ELS3_0EL15increment_class2EEExPdPKxPKdRS6_S7_(double*, i64*, double*, i64*, i64*)

declare i64 @_ZN10vfun_atan2IdxdE7iterateILN3wrt13runtime_flagsE0ELS3_0EL15increment_class3EEExPdPKxPKdRS6_S7_(double*, i64*, double*, i64*, i64*)

declare i64 @_ZN10vfun_atan2IdxdE7iterateILN3wrt13runtime_flagsE0ELS3_1EL15increment_class1EEExPdPKxPKdRS6_S7_(double*, i64*, double*, i64*, i64*)

declare i64 @_ZN10vfun_atan2IdxdE7iterateILN3wrt13runtime_flagsE0ELS3_1EL15increment_class2EEExPdPKxPKdRS6_S7_(double*, i64*, double*, i64*, i64*)

declare i64 @_ZN10vfun_atan2IdxdE7iterateILN3wrt13runtime_flagsE0ELS3_1EL15increment_class3EEExPdPKxPKdRS6_S7_(double*, i64*, double*, i64*, i64*)

declare i64 @_ZN10vfun_atan2IdxdE7iterateILN3wrt13runtime_flagsE1ELS3_0EL15increment_class1EEExPdPKxPKdRS6_S7_(double*, i64*, double*, i64*, i64*)

declare i64 @_ZN10vfun_atan2IdxdE7iterateILN3wrt13runtime_flagsE1ELS3_0EL15increment_class2EEExPdPKxPKdRS6_S7_(double*, i64*, double*, i64*, i64*)

declare i64 @_ZN10vfun_atan2IdxdE7iterateILN3wrt13runtime_flagsE1ELS3_0EL15increment_class3EEExPdPKxPKdRS6_S7_(double*, i64*, double*, i64*, i64*)

declare i64 @_ZN8vfun_logINSt3__17complexIdEES2_S2_E7iterateILN3wrt13runtime_flagsE1ELS6_0EL15increment_class0EEExPS2_PKS2_SA_RKxPSB_(%"class.std::__1::complex"*, %"class.std::__1::complex"*, %"class.std::__1::complex"*, i64*, i64*)

declare i64 @_ZN8vfun_logINSt3__17complexIdEES2_S2_E7iterateILN3wrt13runtime_flagsE0ELS6_1EL15increment_class0EEExPS2_PKS2_SA_RKxPSB_(%"class.std::__1::complex"*, %"class.std::__1::complex"*, %"class.std::__1::complex"*, i64*, i64*)

declare i64 @_ZN8vfun_logINSt3__17complexIdEES2_S2_E7iterateILN3wrt13runtime_flagsE0ELS6_0EL15increment_class0EEExPS2_PKS2_SA_RKxPSB_(%"class.std::__1::complex"*, %"class.std::__1::complex"*, %"class.std::__1::complex"*, i64*, i64*)

declare { double, double } @_ZN3wrt9scalar_op6binaryL6log_opINSt3__17complexIdEES5_LNS_13runtime_flagsE0EEENS3_9enable_ifIXoosr28is_floating_point_or_complexIT_EE5valuesr28is_floating_point_or_complexIT0_EE5valueENS1_6detail7op_infoILNSA_2opE13EN7rt_typeIS8_E4typeENSD_IS9_E4typeEE11result_typeEE4typeERKNSI_19first_argument_typeERKNSI_20second_argument_typeE(double, double, double, double)

declare { double, double } @_ZN3wrt9scalar_op6binaryL6log_opINSt3__17complexIdEES5_LNS_13runtime_flagsE1EEENS3_9enable_ifIXoosr28is_floating_point_or_complexIT_EE5valuesr28is_floating_point_or_complexIT0_EE5valueENS1_6detail7op_infoILNSA_2opE13EN7rt_typeIS8_E4typeENSD_IS9_E4typeEE11result_typeEE4typeERKNSI_19first_argument_typeERKNSI_20second_argument_typeE(double, double, double, double)

declare { double, double } @_ZN3wrt9scalar_op6binaryL9divide_opINSt3__17complexIdEES5_LNS_13runtime_flagsE1EEENS3_9enable_ifIXoosr28is_floating_point_or_complexIT_EE5valuesr28is_floating_point_or_complexIT0_EE5valueENS1_6detail7op_infoILNSA_2opE9EN7rt_typeIS8_E4typeENSD_IS9_E4typeEE11result_typeEE4typeERKNSI_19first_argument_typeERKNSI_20second_argument_typeE.50(%"class.std::__1::complex"*, %"class.std::__1::complex"*)

declare i64 @_ZN8vfun_logINSt3__17complexIdEES2_S2_E7iterateILN3wrt13runtime_flagsE0ELS6_0EL15increment_class1EEExPS2_PKS2_SA_RKxPSB_(%"class.std::__1::complex"*, %"class.std::__1::complex"*, %"class.std::__1::complex"*, i64*, i64*)

declare i64 @_ZN8vfun_logINSt3__17complexIdEES2_S2_E7iterateILN3wrt13runtime_flagsE0ELS6_0EL15increment_class2EEExPS2_PKS2_SA_RKxPSB_(%"class.std::__1::complex"*, %"class.std::__1::complex"*, %"class.std::__1::complex"*, i64*, i64*)

declare i64 @_ZN8vfun_logINSt3__17complexIdEES2_S2_E7iterateILN3wrt13runtime_flagsE0ELS6_0EL15increment_class3EEExPS2_PKS2_SA_RKxPSB_(%"class.std::__1::complex"*, %"class.std::__1::complex"*, %"class.std::__1::complex"*, i64*, i64*)

declare i64 @_ZN8vfun_logINSt3__17complexIdEES2_S2_E7iterateILN3wrt13runtime_flagsE0ELS6_1EL15increment_class1EEExPS2_PKS2_SA_RKxPSB_(%"class.std::__1::complex"*, %"class.std::__1::complex"*, %"class.std::__1::complex"*, i64*, i64*)

declare i64 @_ZN8vfun_logINSt3__17complexIdEES2_S2_E7iterateILN3wrt13runtime_flagsE0ELS6_1EL15increment_class2EEExPS2_PKS2_SA_RKxPSB_(%"class.std::__1::complex"*, %"class.std::__1::complex"*, %"class.std::__1::complex"*, i64*, i64*)

declare i64 @_ZN8vfun_logINSt3__17complexIdEES2_S2_E7iterateILN3wrt13runtime_flagsE0ELS6_1EL15increment_class3EEExPS2_PKS2_SA_RKxPSB_(%"class.std::__1::complex"*, %"class.std::__1::complex"*, %"class.std::__1::complex"*, i64*, i64*)

declare i64 @_ZN8vfun_logINSt3__17complexIdEES2_S2_E7iterateILN3wrt13runtime_flagsE1ELS6_0EL15increment_class1EEExPS2_PKS2_SA_RKxPSB_(%"class.std::__1::complex"*, %"class.std::__1::complex"*, %"class.std::__1::complex"*, i64*, i64*)

declare i64 @_ZN8vfun_logINSt3__17complexIdEES2_S2_E7iterateILN3wrt13runtime_flagsE1ELS6_0EL15increment_class2EEExPS2_PKS2_SA_RKxPSB_(%"class.std::__1::complex"*, %"class.std::__1::complex"*, %"class.std::__1::complex"*, i64*, i64*)

declare i64 @_ZN8vfun_logINSt3__17complexIdEES2_S2_E7iterateILN3wrt13runtime_flagsE1ELS6_0EL15increment_class3EEExPS2_PKS2_SA_RKxPSB_(%"class.std::__1::complex"*, %"class.std::__1::complex"*, %"class.std::__1::complex"*, i64*, i64*)

declare i64 @_ZN8vfun_logINSt3__17complexIdEES2_dE7iterateILN3wrt13runtime_flagsE1ELS6_0EL15increment_class0EEExPS2_PKS2_PKdRKxPSD_(%"class.std::__1::complex"*, %"class.std::__1::complex"*, double*, i64*, i64*)

declare i64 @_ZN8vfun_logINSt3__17complexIdEES2_dE7iterateILN3wrt13runtime_flagsE0ELS6_1EL15increment_class0EEExPS2_PKS2_PKdRKxPSD_(%"class.std::__1::complex"*, %"class.std::__1::complex"*, double*, i64*, i64*)

declare i64 @_ZN8vfun_logINSt3__17complexIdEES2_dE7iterateILN3wrt13runtime_flagsE0ELS6_0EL15increment_class0EEExPS2_PKS2_PKdRKxPSD_(%"class.std::__1::complex"*, %"class.std::__1::complex"*, double*, i64*, i64*)

declare { double, double } @_ZN3wrt9scalar_op6binaryL6log_opINSt3__17complexIdEEdLNS_13runtime_flagsE0EEENS3_9enable_ifIXoosr28is_floating_point_or_complexIT_EE5valuesr28is_floating_point_or_complexIT0_EE5valueENS1_6detail7op_infoILNSA_2opE13EN7rt_typeIS8_E4typeENSD_IS9_E4typeEE11result_typeEE4typeERKNSI_19first_argument_typeERKNSI_20second_argument_typeE(double, double, double)

declare { double, double } @_ZN3wrt9scalar_op6binaryL6log_opINSt3__17complexIdEEdLNS_13runtime_flagsE1EEENS3_9enable_ifIXoosr28is_floating_point_or_complexIT_EE5valuesr28is_floating_point_or_complexIT0_EE5valueENS1_6detail7op_infoILNSA_2opE13EN7rt_typeIS8_E4typeENSD_IS9_E4typeEE11result_typeEE4typeERKNSI_19first_argument_typeERKNSI_20second_argument_typeE(double, double, double)

declare i64 @_ZN8vfun_logINSt3__17complexIdEES2_dE7iterateILN3wrt13runtime_flagsE0ELS6_0EL15increment_class1EEExPS2_PKS2_PKdRKxPSD_(%"class.std::__1::complex"*, %"class.std::__1::complex"*, double*, i64*, i64*)

declare i64 @_ZN8vfun_logINSt3__17complexIdEES2_dE7iterateILN3wrt13runtime_flagsE0ELS6_0EL15increment_class2EEExPS2_PKS2_PKdRKxPSD_(%"class.std::__1::complex"*, %"class.std::__1::complex"*, double*, i64*, i64*)

declare i64 @_ZN8vfun_logINSt3__17complexIdEES2_dE7iterateILN3wrt13runtime_flagsE0ELS6_0EL15increment_class3EEExPS2_PKS2_PKdRKxPSD_(%"class.std::__1::complex"*, %"class.std::__1::complex"*, double*, i64*, i64*)

declare i64 @_ZN8vfun_logINSt3__17complexIdEES2_dE7iterateILN3wrt13runtime_flagsE0ELS6_1EL15increment_class1EEExPS2_PKS2_PKdRKxPSD_(%"class.std::__1::complex"*, %"class.std::__1::complex"*, double*, i64*, i64*)

declare i64 @_ZN8vfun_logINSt3__17complexIdEES2_dE7iterateILN3wrt13runtime_flagsE0ELS6_1EL15increment_class2EEExPS2_PKS2_PKdRKxPSD_(%"class.std::__1::complex"*, %"class.std::__1::complex"*, double*, i64*, i64*)

declare i64 @_ZN8vfun_logINSt3__17complexIdEES2_dE7iterateILN3wrt13runtime_flagsE0ELS6_1EL15increment_class3EEExPS2_PKS2_PKdRKxPSD_(%"class.std::__1::complex"*, %"class.std::__1::complex"*, double*, i64*, i64*)

declare i64 @_ZN8vfun_logINSt3__17complexIdEES2_dE7iterateILN3wrt13runtime_flagsE1ELS6_0EL15increment_class1EEExPS2_PKS2_PKdRKxPSD_(%"class.std::__1::complex"*, %"class.std::__1::complex"*, double*, i64*, i64*)

declare i64 @_ZN8vfun_logINSt3__17complexIdEES2_dE7iterateILN3wrt13runtime_flagsE1ELS6_0EL15increment_class2EEExPS2_PKS2_PKdRKxPSD_(%"class.std::__1::complex"*, %"class.std::__1::complex"*, double*, i64*, i64*)

declare i64 @_ZN8vfun_logINSt3__17complexIdEES2_dE7iterateILN3wrt13runtime_flagsE1ELS6_0EL15increment_class3EEExPS2_PKS2_PKdRKxPSD_(%"class.std::__1::complex"*, %"class.std::__1::complex"*, double*, i64*, i64*)

declare i64 @_ZN8vfun_logINSt3__17complexIdEES2_xE7iterateILN3wrt13runtime_flagsE1ELS6_0EL15increment_class0EEExPS2_PKS2_PKxRSB_SC_(%"class.std::__1::complex"*, %"class.std::__1::complex"*, i64*, i64*, i64*)

declare i64 @_ZN8vfun_logINSt3__17complexIdEES2_xE7iterateILN3wrt13runtime_flagsE0ELS6_1EL15increment_class0EEExPS2_PKS2_PKxRSB_SC_(%"class.std::__1::complex"*, %"class.std::__1::complex"*, i64*, i64*, i64*)

declare i64 @_ZN8vfun_logINSt3__17complexIdEES2_xE7iterateILN3wrt13runtime_flagsE0ELS6_0EL15increment_class0EEExPS2_PKS2_PKxRSB_SC_(%"class.std::__1::complex"*, %"class.std::__1::complex"*, i64*, i64*, i64*)

declare { double, double } @_ZN3wrt9scalar_op6binaryL6log_opINSt3__17complexIdEExLNS_13runtime_flagsE0EEENS3_9enable_ifIXoosr28is_floating_point_or_complexIT_EE5valuesr28is_floating_point_or_complexIT0_EE5valueENS1_6detail7op_infoILNSA_2opE13EN7rt_typeIS8_E4typeENSD_IS9_E4typeEE11result_typeEE4typeERKNSI_19first_argument_typeERKNSI_20second_argument_typeE(double, double, i64)

declare { double, double } @_ZN3wrt9scalar_op6binaryL6log_opINSt3__17complexIdEExLNS_13runtime_flagsE1EEENS3_9enable_ifIXoosr28is_floating_point_or_complexIT_EE5valuesr28is_floating_point_or_complexIT0_EE5valueENS1_6detail7op_infoILNSA_2opE13EN7rt_typeIS8_E4typeENSD_IS9_E4typeEE11result_typeEE4typeERKNSI_19first_argument_typeERKNSI_20second_argument_typeE(double, double, i64)

declare i64 @_ZN8vfun_logINSt3__17complexIdEES2_xE7iterateILN3wrt13runtime_flagsE0ELS6_0EL15increment_class1EEExPS2_PKS2_PKxRSB_SC_(%"class.std::__1::complex"*, %"class.std::__1::complex"*, i64*, i64*, i64*)

declare i64 @_ZN8vfun_logINSt3__17complexIdEES2_xE7iterateILN3wrt13runtime_flagsE0ELS6_0EL15increment_class2EEExPS2_PKS2_PKxRSB_SC_(%"class.std::__1::complex"*, %"class.std::__1::complex"*, i64*, i64*, i64*)

declare i64 @_ZN8vfun_logINSt3__17complexIdEES2_xE7iterateILN3wrt13runtime_flagsE0ELS6_0EL15increment_class3EEExPS2_PKS2_PKxRSB_SC_(%"class.std::__1::complex"*, %"class.std::__1::complex"*, i64*, i64*, i64*)

declare i64 @_ZN8vfun_logINSt3__17complexIdEES2_xE7iterateILN3wrt13runtime_flagsE0ELS6_1EL15increment_class1EEExPS2_PKS2_PKxRSB_SC_(%"class.std::__1::complex"*, %"class.std::__1::complex"*, i64*, i64*, i64*)

declare i64 @_ZN8vfun_logINSt3__17complexIdEES2_xE7iterateILN3wrt13runtime_flagsE0ELS6_1EL15increment_class2EEExPS2_PKS2_PKxRSB_SC_(%"class.std::__1::complex"*, %"class.std::__1::complex"*, i64*, i64*, i64*)

declare i64 @_ZN8vfun_logINSt3__17complexIdEES2_xE7iterateILN3wrt13runtime_flagsE0ELS6_1EL15increment_class3EEExPS2_PKS2_PKxRSB_SC_(%"class.std::__1::complex"*, %"class.std::__1::complex"*, i64*, i64*, i64*)

declare i64 @_ZN8vfun_logINSt3__17complexIdEES2_xE7iterateILN3wrt13runtime_flagsE1ELS6_0EL15increment_class1EEExPS2_PKS2_PKxRSB_SC_(%"class.std::__1::complex"*, %"class.std::__1::complex"*, i64*, i64*, i64*)

declare i64 @_ZN8vfun_logINSt3__17complexIdEES2_xE7iterateILN3wrt13runtime_flagsE1ELS6_0EL15increment_class2EEExPS2_PKS2_PKxRSB_SC_(%"class.std::__1::complex"*, %"class.std::__1::complex"*, i64*, i64*, i64*)

declare i64 @_ZN8vfun_logINSt3__17complexIdEES2_xE7iterateILN3wrt13runtime_flagsE1ELS6_0EL15increment_class3EEExPS2_PKS2_PKxRSB_SC_(%"class.std::__1::complex"*, %"class.std::__1::complex"*, i64*, i64*, i64*)

declare i64 @_ZN8vfun_logINSt3__17complexIdEEdS2_E7iterateILN3wrt13runtime_flagsE1ELS6_0EL15increment_class0EEExPS2_PKdPKS2_RKxPSD_(%"class.std::__1::complex"*, double*, %"class.std::__1::complex"*, i64*, i64*)

declare i64 @_ZN8vfun_logINSt3__17complexIdEEdS2_E7iterateILN3wrt13runtime_flagsE0ELS6_1EL15increment_class0EEExPS2_PKdPKS2_RKxPSD_(%"class.std::__1::complex"*, double*, %"class.std::__1::complex"*, i64*, i64*)

declare i64 @_ZN8vfun_logINSt3__17complexIdEEdS2_E7iterateILN3wrt13runtime_flagsE0ELS6_0EL15increment_class0EEExPS2_PKdPKS2_RKxPSD_(%"class.std::__1::complex"*, double*, %"class.std::__1::complex"*, i64*, i64*)

declare { double, double } @_ZN3wrt9scalar_op6binaryL6log_opIdNSt3__17complexIdEELNS_13runtime_flagsE0EEENS3_9enable_ifIXoosr28is_floating_point_or_complexIT_EE5valuesr28is_floating_point_or_complexIT0_EE5valueENS1_6detail7op_infoILNSA_2opE13EN7rt_typeIS8_E4typeENSD_IS9_E4typeEE11result_typeEE4typeERKNSI_19first_argument_typeERKNSI_20second_argument_typeE(double, double, double)

declare { double, double } @_ZN3wrt9scalar_op6binaryL6log_opIdNSt3__17complexIdEELNS_13runtime_flagsE1EEENS3_9enable_ifIXoosr28is_floating_point_or_complexIT_EE5valuesr28is_floating_point_or_complexIT0_EE5valueENS1_6detail7op_infoILNSA_2opE13EN7rt_typeIS8_E4typeENSD_IS9_E4typeEE11result_typeEE4typeERKNSI_19first_argument_typeERKNSI_20second_argument_typeE(double, double, double)

declare i64 @_ZN8vfun_logINSt3__17complexIdEEdS2_E7iterateILN3wrt13runtime_flagsE0ELS6_0EL15increment_class1EEExPS2_PKdPKS2_RKxPSD_(%"class.std::__1::complex"*, double*, %"class.std::__1::complex"*, i64*, i64*)

declare i64 @_ZN8vfun_logINSt3__17complexIdEEdS2_E7iterateILN3wrt13runtime_flagsE0ELS6_0EL15increment_class2EEExPS2_PKdPKS2_RKxPSD_(%"class.std::__1::complex"*, double*, %"class.std::__1::complex"*, i64*, i64*)

declare i64 @_ZN8vfun_logINSt3__17complexIdEEdS2_E7iterateILN3wrt13runtime_flagsE0ELS6_0EL15increment_class3EEExPS2_PKdPKS2_RKxPSD_(%"class.std::__1::complex"*, double*, %"class.std::__1::complex"*, i64*, i64*)

declare i64 @_ZN8vfun_logINSt3__17complexIdEEdS2_E7iterateILN3wrt13runtime_flagsE0ELS6_1EL15increment_class1EEExPS2_PKdPKS2_RKxPSD_(%"class.std::__1::complex"*, double*, %"class.std::__1::complex"*, i64*, i64*)

declare i64 @_ZN8vfun_logINSt3__17complexIdEEdS2_E7iterateILN3wrt13runtime_flagsE0ELS6_1EL15increment_class2EEExPS2_PKdPKS2_RKxPSD_(%"class.std::__1::complex"*, double*, %"class.std::__1::complex"*, i64*, i64*)

declare i64 @_ZN8vfun_logINSt3__17complexIdEEdS2_E7iterateILN3wrt13runtime_flagsE0ELS6_1EL15increment_class3EEExPS2_PKdPKS2_RKxPSD_(%"class.std::__1::complex"*, double*, %"class.std::__1::complex"*, i64*, i64*)

declare i64 @_ZN8vfun_logINSt3__17complexIdEEdS2_E7iterateILN3wrt13runtime_flagsE1ELS6_0EL15increment_class1EEExPS2_PKdPKS2_RKxPSD_(%"class.std::__1::complex"*, double*, %"class.std::__1::complex"*, i64*, i64*)

declare i64 @_ZN8vfun_logINSt3__17complexIdEEdS2_E7iterateILN3wrt13runtime_flagsE1ELS6_0EL15increment_class2EEExPS2_PKdPKS2_RKxPSD_(%"class.std::__1::complex"*, double*, %"class.std::__1::complex"*, i64*, i64*)

declare i64 @_ZN8vfun_logINSt3__17complexIdEEdS2_E7iterateILN3wrt13runtime_flagsE1ELS6_0EL15increment_class3EEExPS2_PKdPKS2_RKxPSD_(%"class.std::__1::complex"*, double*, %"class.std::__1::complex"*, i64*, i64*)

declare i64 @_ZN8vfun_logIdddE7iterateILN3wrt13runtime_flagsE1ELS3_0EL15increment_class0EEExPdPKdS7_RKxPS8_(double*, double*, double*, i64*, i64*)

declare i64 @_ZN8vfun_logIdddE7iterateILN3wrt13runtime_flagsE0ELS3_1EL15increment_class0EEExPdPKdS7_RKxPS8_(double*, double*, double*, i64*, i64*)

declare i64 @_ZN8vfun_logIdddE7iterateILN3wrt13runtime_flagsE0ELS3_0EL15increment_class0EEExPdPKdS7_RKxPS8_(double*, double*, double*, i64*, i64*)

declare double @_ZN3wrt9scalar_op6binaryL6log_opIddLNS_13runtime_flagsE1EEENSt3__19enable_ifIXoosr28is_floating_point_or_complexIT_EE5valuesr28is_floating_point_or_complexIT0_EE5valueENS1_6detail7op_infoILNS8_2opE13EN7rt_typeIS6_E4typeENSB_IS7_E4typeEE11result_typeEE4typeERKNSG_19first_argument_typeERKNSG_20second_argument_typeE(double, double*)

declare i64 @_ZN8vfun_logIdddE7iterateILN3wrt13runtime_flagsE0ELS3_0EL15increment_class1EEExPdPKdS7_RKxPS8_(double*, double*, double*, i64*, i64*)

declare i64 @_ZN8vfun_logIdddE7iterateILN3wrt13runtime_flagsE0ELS3_0EL15increment_class2EEExPdPKdS7_RKxPS8_(double*, double*, double*, i64*, i64*)

declare i64 @_ZN8vfun_logIdddE7iterateILN3wrt13runtime_flagsE0ELS3_0EL15increment_class3EEExPdPKdS7_RKxPS8_(double*, double*, double*, i64*, i64*)

declare i64 @_ZN8vfun_logIdddE7iterateILN3wrt13runtime_flagsE0ELS3_1EL15increment_class1EEExPdPKdS7_RKxPS8_(double*, double*, double*, i64*, i64*)

declare i64 @_ZN8vfun_logIdddE7iterateILN3wrt13runtime_flagsE0ELS3_1EL15increment_class2EEExPdPKdS7_RKxPS8_(double*, double*, double*, i64*, i64*)

declare i64 @_ZN8vfun_logIdddE7iterateILN3wrt13runtime_flagsE0ELS3_1EL15increment_class3EEExPdPKdS7_RKxPS8_(double*, double*, double*, i64*, i64*)

declare i64 @_ZN8vfun_logIdddE7iterateILN3wrt13runtime_flagsE1ELS3_0EL15increment_class1EEExPdPKdS7_RKxPS8_(double*, double*, double*, i64*, i64*)

declare i64 @_ZN8vfun_logIdddE7iterateILN3wrt13runtime_flagsE1ELS3_0EL15increment_class2EEExPdPKdS7_RKxPS8_(double*, double*, double*, i64*, i64*)

declare i64 @_ZN8vfun_logIdddE7iterateILN3wrt13runtime_flagsE1ELS3_0EL15increment_class3EEExPdPKdS7_RKxPS8_(double*, double*, double*, i64*, i64*)

declare i64 @_ZN8vfun_logIddxE7iterateILN3wrt13runtime_flagsE1ELS3_0EL15increment_class0EEExPdPKdPKxRS8_S9_(double*, double*, i64*, i64*, i64*)

declare i64 @_ZN8vfun_logIddxE7iterateILN3wrt13runtime_flagsE0ELS3_1EL15increment_class0EEExPdPKdPKxRS8_S9_(double*, double*, i64*, i64*, i64*)

declare i64 @_ZN8vfun_logIddxE7iterateILN3wrt13runtime_flagsE0ELS3_0EL15increment_class0EEExPdPKdPKxRS8_S9_(double*, double*, i64*, i64*, i64*)

declare i64 @_ZN8vfun_logIddxE7iterateILN3wrt13runtime_flagsE0ELS3_0EL15increment_class1EEExPdPKdPKxRS8_S9_(double*, double*, i64*, i64*, i64*)

declare i64 @_ZN8vfun_logIddxE7iterateILN3wrt13runtime_flagsE0ELS3_0EL15increment_class2EEExPdPKdPKxRS8_S9_(double*, double*, i64*, i64*, i64*)

declare i64 @_ZN8vfun_logIddxE7iterateILN3wrt13runtime_flagsE0ELS3_0EL15increment_class3EEExPdPKdPKxRS8_S9_(double*, double*, i64*, i64*, i64*)

declare i64 @_ZN8vfun_logIddxE7iterateILN3wrt13runtime_flagsE0ELS3_1EL15increment_class1EEExPdPKdPKxRS8_S9_(double*, double*, i64*, i64*, i64*)

declare i64 @_ZN8vfun_logIddxE7iterateILN3wrt13runtime_flagsE0ELS3_1EL15increment_class2EEExPdPKdPKxRS8_S9_(double*, double*, i64*, i64*, i64*)

declare i64 @_ZN8vfun_logIddxE7iterateILN3wrt13runtime_flagsE0ELS3_1EL15increment_class3EEExPdPKdPKxRS8_S9_(double*, double*, i64*, i64*, i64*)

declare i64 @_ZN8vfun_logIddxE7iterateILN3wrt13runtime_flagsE1ELS3_0EL15increment_class1EEExPdPKdPKxRS8_S9_(double*, double*, i64*, i64*, i64*)

declare i64 @_ZN8vfun_logIddxE7iterateILN3wrt13runtime_flagsE1ELS3_0EL15increment_class2EEExPdPKdPKxRS8_S9_(double*, double*, i64*, i64*, i64*)

declare i64 @_ZN8vfun_logIddxE7iterateILN3wrt13runtime_flagsE1ELS3_0EL15increment_class3EEExPdPKdPKxRS8_S9_(double*, double*, i64*, i64*, i64*)

declare i64 @_ZN8vfun_logINSt3__17complexIdEExS2_E7iterateILN3wrt13runtime_flagsE1ELS6_0EL15increment_class0EEExPS2_PKxPKS2_RS9_SA_(%"class.std::__1::complex"*, i64*, %"class.std::__1::complex"*, i64*, i64*)

declare i64 @_ZN8vfun_logINSt3__17complexIdEExS2_E7iterateILN3wrt13runtime_flagsE0ELS6_1EL15increment_class0EEExPS2_PKxPKS2_RS9_SA_(%"class.std::__1::complex"*, i64*, %"class.std::__1::complex"*, i64*, i64*)

declare i64 @_ZN8vfun_logINSt3__17complexIdEExS2_E7iterateILN3wrt13runtime_flagsE0ELS6_0EL15increment_class0EEExPS2_PKxPKS2_RS9_SA_(%"class.std::__1::complex"*, i64*, %"class.std::__1::complex"*, i64*, i64*)

declare { double, double } @_ZN3wrt9scalar_op6binaryL6log_opIxNSt3__17complexIdEELNS_13runtime_flagsE0EEENS3_9enable_ifIXoosr28is_floating_point_or_complexIT_EE5valuesr28is_floating_point_or_complexIT0_EE5valueENS1_6detail7op_infoILNSA_2opE13EN7rt_typeIS8_E4typeENSD_IS9_E4typeEE11result_typeEE4typeERKNSI_19first_argument_typeERKNSI_20second_argument_typeE(i64, double, double)

declare { double, double } @_ZN3wrt9scalar_op6binaryL6log_opIxNSt3__17complexIdEELNS_13runtime_flagsE1EEENS3_9enable_ifIXoosr28is_floating_point_or_complexIT_EE5valuesr28is_floating_point_or_complexIT0_EE5valueENS1_6detail7op_infoILNSA_2opE13EN7rt_typeIS8_E4typeENSD_IS9_E4typeEE11result_typeEE4typeERKNSI_19first_argument_typeERKNSI_20second_argument_typeE(i64, double, double)

declare i64 @_ZN8vfun_logINSt3__17complexIdEExS2_E7iterateILN3wrt13runtime_flagsE0ELS6_0EL15increment_class1EEExPS2_PKxPKS2_RS9_SA_(%"class.std::__1::complex"*, i64*, %"class.std::__1::complex"*, i64*, i64*)

declare i64 @_ZN8vfun_logINSt3__17complexIdEExS2_E7iterateILN3wrt13runtime_flagsE0ELS6_0EL15increment_class2EEExPS2_PKxPKS2_RS9_SA_(%"class.std::__1::complex"*, i64*, %"class.std::__1::complex"*, i64*, i64*)

declare i64 @_ZN8vfun_logINSt3__17complexIdEExS2_E7iterateILN3wrt13runtime_flagsE0ELS6_0EL15increment_class3EEExPS2_PKxPKS2_RS9_SA_(%"class.std::__1::complex"*, i64*, %"class.std::__1::complex"*, i64*, i64*)

declare i64 @_ZN8vfun_logINSt3__17complexIdEExS2_E7iterateILN3wrt13runtime_flagsE0ELS6_1EL15increment_class1EEExPS2_PKxPKS2_RS9_SA_(%"class.std::__1::complex"*, i64*, %"class.std::__1::complex"*, i64*, i64*)

declare i64 @_ZN8vfun_logINSt3__17complexIdEExS2_E7iterateILN3wrt13runtime_flagsE0ELS6_1EL15increment_class2EEExPS2_PKxPKS2_RS9_SA_(%"class.std::__1::complex"*, i64*, %"class.std::__1::complex"*, i64*, i64*)

declare i64 @_ZN8vfun_logINSt3__17complexIdEExS2_E7iterateILN3wrt13runtime_flagsE0ELS6_1EL15increment_class3EEExPS2_PKxPKS2_RS9_SA_(%"class.std::__1::complex"*, i64*, %"class.std::__1::complex"*, i64*, i64*)

declare i64 @_ZN8vfun_logINSt3__17complexIdEExS2_E7iterateILN3wrt13runtime_flagsE1ELS6_0EL15increment_class1EEExPS2_PKxPKS2_RS9_SA_(%"class.std::__1::complex"*, i64*, %"class.std::__1::complex"*, i64*, i64*)

declare i64 @_ZN8vfun_logINSt3__17complexIdEExS2_E7iterateILN3wrt13runtime_flagsE1ELS6_0EL15increment_class2EEExPS2_PKxPKS2_RS9_SA_(%"class.std::__1::complex"*, i64*, %"class.std::__1::complex"*, i64*, i64*)

declare i64 @_ZN8vfun_logINSt3__17complexIdEExS2_E7iterateILN3wrt13runtime_flagsE1ELS6_0EL15increment_class3EEExPS2_PKxPKS2_RS9_SA_(%"class.std::__1::complex"*, i64*, %"class.std::__1::complex"*, i64*, i64*)

declare i64 @_ZN8vfun_logIdxdE7iterateILN3wrt13runtime_flagsE1ELS3_0EL15increment_class0EEExPdPKxPKdRS6_S7_(double*, i64*, double*, i64*, i64*)

declare i64 @_ZN8vfun_logIdxdE7iterateILN3wrt13runtime_flagsE0ELS3_1EL15increment_class0EEExPdPKxPKdRS6_S7_(double*, i64*, double*, i64*, i64*)

declare i64 @_ZN8vfun_logIdxdE7iterateILN3wrt13runtime_flagsE0ELS3_0EL15increment_class0EEExPdPKxPKdRS6_S7_(double*, i64*, double*, i64*, i64*)

declare i64 @_ZN8vfun_logIdxdE7iterateILN3wrt13runtime_flagsE0ELS3_0EL15increment_class1EEExPdPKxPKdRS6_S7_(double*, i64*, double*, i64*, i64*)

declare i64 @_ZN8vfun_logIdxdE7iterateILN3wrt13runtime_flagsE0ELS3_0EL15increment_class2EEExPdPKxPKdRS6_S7_(double*, i64*, double*, i64*, i64*)

declare i64 @_ZN8vfun_logIdxdE7iterateILN3wrt13runtime_flagsE0ELS3_0EL15increment_class3EEExPdPKxPKdRS6_S7_(double*, i64*, double*, i64*, i64*)

declare i64 @_ZN8vfun_logIdxdE7iterateILN3wrt13runtime_flagsE0ELS3_1EL15increment_class1EEExPdPKxPKdRS6_S7_(double*, i64*, double*, i64*, i64*)

declare i64 @_ZN8vfun_logIdxdE7iterateILN3wrt13runtime_flagsE0ELS3_1EL15increment_class2EEExPdPKxPKdRS6_S7_(double*, i64*, double*, i64*, i64*)

declare i64 @_ZN8vfun_logIdxdE7iterateILN3wrt13runtime_flagsE0ELS3_1EL15increment_class3EEExPdPKxPKdRS6_S7_(double*, i64*, double*, i64*, i64*)

declare i64 @_ZN8vfun_logIdxdE7iterateILN3wrt13runtime_flagsE1ELS3_0EL15increment_class1EEExPdPKxPKdRS6_S7_(double*, i64*, double*, i64*, i64*)

declare i64 @_ZN8vfun_logIdxdE7iterateILN3wrt13runtime_flagsE1ELS3_0EL15increment_class2EEExPdPKxPKdRS6_S7_(double*, i64*, double*, i64*, i64*)

declare i64 @_ZN8vfun_logIdxdE7iterateILN3wrt13runtime_flagsE1ELS3_0EL15increment_class3EEExPdPKxPKdRS6_S7_(double*, i64*, double*, i64*, i64*)

declare i64 @_ZN8vfun_powINSt3__17complexIdEES2_S2_E7iterateILN3wrt13runtime_flagsE1ELS6_0EL15increment_class0EEExPS2_PKS2_SA_RKxPSB_(%"class.std::__1::complex"*, %"class.std::__1::complex"*, %"class.std::__1::complex"*, i64*, i64*)

declare i64 @_ZN8vfun_powINSt3__17complexIdEES2_S2_E7iterateILN3wrt13runtime_flagsE0ELS6_1EL15increment_class0EEExPS2_PKS2_SA_RKxPSB_(%"class.std::__1::complex"*, %"class.std::__1::complex"*, %"class.std::__1::complex"*, i64*, i64*)

declare i64 @_ZN8vfun_powINSt3__17complexIdEES2_S2_E7iterateILN3wrt13runtime_flagsE0ELS6_0EL15increment_class0EEExPS2_PKS2_SA_RKxPSB_(%"class.std::__1::complex"*, %"class.std::__1::complex"*, %"class.std::__1::complex"*, i64*, i64*)

declare { double, double } @_ZN3wrt9scalar_op6binaryL6pow_opINSt3__17complexIdEES5_LNS_13runtime_flagsE1EEENS3_9enable_ifIXaasr10is_complexIT_EE5valuesr10is_complexIT0_EE5valueENS1_6detail7op_infoILNSA_2opE20EN7rt_typeIS8_E4typeENSD_IS9_E4typeEE11result_typeEE4typeERKNSI_19first_argument_typeERKNSI_20second_argument_typeE(double, double, %"class.std::__1::complex"*)

declare i64 @_ZN8vfun_powINSt3__17complexIdEES2_S2_E7iterateILN3wrt13runtime_flagsE0ELS6_0EL15increment_class1EEExPS2_PKS2_SA_RKxPSB_(%"class.std::__1::complex"*, %"class.std::__1::complex"*, %"class.std::__1::complex"*, i64*, i64*)

declare i64 @_ZN8vfun_powINSt3__17complexIdEES2_S2_E7iterateILN3wrt13runtime_flagsE0ELS6_0EL15increment_class2EEExPS2_PKS2_SA_RKxPSB_(%"class.std::__1::complex"*, %"class.std::__1::complex"*, %"class.std::__1::complex"*, i64*, i64*)

declare i64 @_ZN8vfun_powINSt3__17complexIdEES2_S2_E7iterateILN3wrt13runtime_flagsE0ELS6_0EL15increment_class3EEExPS2_PKS2_SA_RKxPSB_(%"class.std::__1::complex"*, %"class.std::__1::complex"*, %"class.std::__1::complex"*, i64*, i64*)

declare i64 @_ZN8vfun_powINSt3__17complexIdEES2_S2_E7iterateILN3wrt13runtime_flagsE0ELS6_1EL15increment_class1EEExPS2_PKS2_SA_RKxPSB_(%"class.std::__1::complex"*, %"class.std::__1::complex"*, %"class.std::__1::complex"*, i64*, i64*)

declare i64 @_ZN8vfun_powINSt3__17complexIdEES2_S2_E7iterateILN3wrt13runtime_flagsE0ELS6_1EL15increment_class2EEExPS2_PKS2_SA_RKxPSB_(%"class.std::__1::complex"*, %"class.std::__1::complex"*, %"class.std::__1::complex"*, i64*, i64*)

declare i64 @_ZN8vfun_powINSt3__17complexIdEES2_S2_E7iterateILN3wrt13runtime_flagsE0ELS6_1EL15increment_class3EEExPS2_PKS2_SA_RKxPSB_(%"class.std::__1::complex"*, %"class.std::__1::complex"*, %"class.std::__1::complex"*, i64*, i64*)

declare i64 @_ZN8vfun_powINSt3__17complexIdEES2_S2_E7iterateILN3wrt13runtime_flagsE1ELS6_0EL15increment_class1EEExPS2_PKS2_SA_RKxPSB_(%"class.std::__1::complex"*, %"class.std::__1::complex"*, %"class.std::__1::complex"*, i64*, i64*)

declare i64 @_ZN8vfun_powINSt3__17complexIdEES2_S2_E7iterateILN3wrt13runtime_flagsE1ELS6_0EL15increment_class2EEExPS2_PKS2_SA_RKxPSB_(%"class.std::__1::complex"*, %"class.std::__1::complex"*, %"class.std::__1::complex"*, i64*, i64*)

declare i64 @_ZN8vfun_powINSt3__17complexIdEES2_S2_E7iterateILN3wrt13runtime_flagsE1ELS6_0EL15increment_class3EEExPS2_PKS2_SA_RKxPSB_(%"class.std::__1::complex"*, %"class.std::__1::complex"*, %"class.std::__1::complex"*, i64*, i64*)

declare i64 @_ZN8vfun_powINSt3__17complexIdEES2_dE7iterateILN3wrt13runtime_flagsE1ELS6_0EL15increment_class0EEExPS2_PKS2_PKdRKxPSD_(%"class.std::__1::complex"*, %"class.std::__1::complex"*, double*, i64*, i64*)

declare i64 @_ZN8vfun_powINSt3__17complexIdEES2_dE7iterateILN3wrt13runtime_flagsE0ELS6_1EL15increment_class0EEExPS2_PKS2_PKdRKxPSD_(%"class.std::__1::complex"*, %"class.std::__1::complex"*, double*, i64*, i64*)

declare i64 @_ZN8vfun_powINSt3__17complexIdEES2_dE7iterateILN3wrt13runtime_flagsE0ELS6_0EL15increment_class0EEExPS2_PKS2_PKdRKxPSD_(%"class.std::__1::complex"*, %"class.std::__1::complex"*, double*, i64*, i64*)

declare { double, double } @_ZN3wrt9scalar_op6binaryL6pow_opINSt3__17complexIdEEdLNS_13runtime_flagsE0EEENS3_9enable_ifIXaasr10is_complexIT_EE5valuesr17is_floating_pointIT0_EE5valueENS1_6detail7op_infoILNSA_2opE20EN7rt_typeIS8_E4typeENSD_IS9_E4typeEE11result_typeEE4typeERKNSI_19first_argument_typeERKNSI_20second_argument_typeE(double, double, double*)

declare { double, double } @_ZN3wrt9scalar_op6binaryL6pow_opINSt3__17complexIdEEdLNS_13runtime_flagsE1EEENS3_9enable_ifIXaasr10is_complexIT_EE5valuesr17is_floating_pointIT0_EE5valueENS1_6detail7op_infoILNSA_2opE20EN7rt_typeIS8_E4typeENSD_IS9_E4typeEE11result_typeEE4typeERKNSI_19first_argument_typeERKNSI_20second_argument_typeE(double, double, double*)

declare i64 @_ZN8vfun_powINSt3__17complexIdEES2_dE7iterateILN3wrt13runtime_flagsE0ELS6_0EL15increment_class1EEExPS2_PKS2_PKdRKxPSD_(%"class.std::__1::complex"*, %"class.std::__1::complex"*, double*, i64*, i64*)

declare i64 @_ZN8vfun_powINSt3__17complexIdEES2_dE7iterateILN3wrt13runtime_flagsE0ELS6_0EL15increment_class2EEExPS2_PKS2_PKdRKxPSD_(%"class.std::__1::complex"*, %"class.std::__1::complex"*, double*, i64*, i64*)

declare i64 @_ZN8vfun_powINSt3__17complexIdEES2_dE7iterateILN3wrt13runtime_flagsE0ELS6_0EL15increment_class3EEExPS2_PKS2_PKdRKxPSD_(%"class.std::__1::complex"*, %"class.std::__1::complex"*, double*, i64*, i64*)

declare i64 @_ZN8vfun_powINSt3__17complexIdEES2_dE7iterateILN3wrt13runtime_flagsE0ELS6_1EL15increment_class1EEExPS2_PKS2_PKdRKxPSD_(%"class.std::__1::complex"*, %"class.std::__1::complex"*, double*, i64*, i64*)

declare i64 @_ZN8vfun_powINSt3__17complexIdEES2_dE7iterateILN3wrt13runtime_flagsE0ELS6_1EL15increment_class2EEExPS2_PKS2_PKdRKxPSD_(%"class.std::__1::complex"*, %"class.std::__1::complex"*, double*, i64*, i64*)

declare i64 @_ZN8vfun_powINSt3__17complexIdEES2_dE7iterateILN3wrt13runtime_flagsE0ELS6_1EL15increment_class3EEExPS2_PKS2_PKdRKxPSD_(%"class.std::__1::complex"*, %"class.std::__1::complex"*, double*, i64*, i64*)

declare i64 @_ZN8vfun_powINSt3__17complexIdEES2_dE7iterateILN3wrt13runtime_flagsE1ELS6_0EL15increment_class1EEExPS2_PKS2_PKdRKxPSD_(%"class.std::__1::complex"*, %"class.std::__1::complex"*, double*, i64*, i64*)

declare i64 @_ZN8vfun_powINSt3__17complexIdEES2_dE7iterateILN3wrt13runtime_flagsE1ELS6_0EL15increment_class2EEExPS2_PKS2_PKdRKxPSD_(%"class.std::__1::complex"*, %"class.std::__1::complex"*, double*, i64*, i64*)

declare i64 @_ZN8vfun_powINSt3__17complexIdEES2_dE7iterateILN3wrt13runtime_flagsE1ELS6_0EL15increment_class3EEExPS2_PKS2_PKdRKxPSD_(%"class.std::__1::complex"*, %"class.std::__1::complex"*, double*, i64*, i64*)

declare i64 @_ZN8vfun_powINSt3__17complexIdEES2_xE7iterateILN3wrt13runtime_flagsE1ELS6_0EL15increment_class0EEExPS2_PKS2_PKxRSB_SC_(%"class.std::__1::complex"*, %"class.std::__1::complex"*, i64*, i64*, i64*)

declare i64 @_ZN8vfun_powINSt3__17complexIdEES2_xE7iterateILN3wrt13runtime_flagsE0ELS6_1EL15increment_class0EEExPS2_PKS2_PKxRSB_SC_(%"class.std::__1::complex"*, %"class.std::__1::complex"*, i64*, i64*, i64*)

declare i64 @_ZN8vfun_powINSt3__17complexIdEES2_xE7iterateILN3wrt13runtime_flagsE0ELS6_0EL15increment_class0EEExPS2_PKS2_PKxRSB_SC_(%"class.std::__1::complex"*, %"class.std::__1::complex"*, i64*, i64*, i64*)

declare { double, double } @_ZN3wrt9scalar_op6binaryL6pow_opINSt3__17complexIdEExLNS_13runtime_flagsE0EEENS3_9enable_ifIXaasr10is_complexIT_EE5valuesr11is_integralIT0_EE5valueENS1_6detail7op_infoILNSA_2opE20EN7rt_typeIS8_E4typeENSD_IS9_E4typeEE11result_typeEE4typeERKNSI_19first_argument_typeERKNSI_20second_argument_typeE(%"class.std::__1::complex"*, i64)

declare double @_ZN3wrt9scalar_op6binaryL9pow_xi_opIdxLNS_13runtime_flagsE0EEENSt3__19enable_ifIXsr11is_integralIT0_EE5valueET_E4typeERKS7_RKS6_(double, i64)

declare { double, double } @_ZN3wrt9scalar_op6binaryL9pow_xi_opINSt3__17complexIdEExLNS_13runtime_flagsE0EEENS3_9enable_ifIXsr11is_integralIT0_EE5valueET_E4typeERKS9_RKS8_(%"class.std::__1::complex"*, i64)

declare { double, double } @_ZN3wrt9scalar_op6binaryL6pow_opINSt3__17complexIdEExLNS_13runtime_flagsE1EEENS3_9enable_ifIXaasr10is_complexIT_EE5valuesr11is_integralIT0_EE5valueENS1_6detail7op_infoILNSA_2opE20EN7rt_typeIS8_E4typeENSD_IS9_E4typeEE11result_typeEE4typeERKNSI_19first_argument_typeERKNSI_20second_argument_typeE(%"class.std::__1::complex"*, i64*)

declare double @_ZN3wrt9scalar_op6binaryL6pow_opIdxLNS_13runtime_flagsE1EEENSt3__19enable_ifIXaasr17is_floating_pointIT_EE5valuesr11is_integralIT0_EE5valueENS1_6detail7op_infoILNS8_2opE20EN7rt_typeIS6_E4typeENSB_IS7_E4typeEE11result_typeEE4typeERKNSG_19first_argument_typeERKNSG_20second_argument_typeE(double*, i64)

declare i64 @_ZN8vfun_powINSt3__17complexIdEES2_xE7iterateILN3wrt13runtime_flagsE0ELS6_0EL15increment_class1EEExPS2_PKS2_PKxRSB_SC_(%"class.std::__1::complex"*, %"class.std::__1::complex"*, i64*, i64*, i64*)

declare i64 @_ZN8vfun_powINSt3__17complexIdEES2_xE7iterateILN3wrt13runtime_flagsE0ELS6_0EL15increment_class2EEExPS2_PKS2_PKxRSB_SC_(%"class.std::__1::complex"*, %"class.std::__1::complex"*, i64*, i64*, i64*)

declare i64 @_ZN8vfun_powINSt3__17complexIdEES2_xE7iterateILN3wrt13runtime_flagsE0ELS6_0EL15increment_class3EEExPS2_PKS2_PKxRSB_SC_(%"class.std::__1::complex"*, %"class.std::__1::complex"*, i64*, i64*, i64*)

declare i64 @_ZN8vfun_powINSt3__17complexIdEES2_xE7iterateILN3wrt13runtime_flagsE0ELS6_1EL15increment_class1EEExPS2_PKS2_PKxRSB_SC_(%"class.std::__1::complex"*, %"class.std::__1::complex"*, i64*, i64*, i64*)

declare i64 @_ZN8vfun_powINSt3__17complexIdEES2_xE7iterateILN3wrt13runtime_flagsE0ELS6_1EL15increment_class2EEExPS2_PKS2_PKxRSB_SC_(%"class.std::__1::complex"*, %"class.std::__1::complex"*, i64*, i64*, i64*)

declare i64 @_ZN8vfun_powINSt3__17complexIdEES2_xE7iterateILN3wrt13runtime_flagsE0ELS6_1EL15increment_class3EEExPS2_PKS2_PKxRSB_SC_(%"class.std::__1::complex"*, %"class.std::__1::complex"*, i64*, i64*, i64*)

declare i64 @_ZN8vfun_powINSt3__17complexIdEES2_xE7iterateILN3wrt13runtime_flagsE1ELS6_0EL15increment_class1EEExPS2_PKS2_PKxRSB_SC_(%"class.std::__1::complex"*, %"class.std::__1::complex"*, i64*, i64*, i64*)

declare i64 @_ZN8vfun_powINSt3__17complexIdEES2_xE7iterateILN3wrt13runtime_flagsE1ELS6_0EL15increment_class2EEExPS2_PKS2_PKxRSB_SC_(%"class.std::__1::complex"*, %"class.std::__1::complex"*, i64*, i64*, i64*)

declare i64 @_ZN8vfun_powINSt3__17complexIdEES2_xE7iterateILN3wrt13runtime_flagsE1ELS6_0EL15increment_class3EEExPS2_PKS2_PKxRSB_SC_(%"class.std::__1::complex"*, %"class.std::__1::complex"*, i64*, i64*, i64*)

declare i64 @_ZN8vfun_powINSt3__17complexIdEEdS2_E7iterateILN3wrt13runtime_flagsE1ELS6_0EL15increment_class0EEExPS2_PKdPKS2_RKxPSD_(%"class.std::__1::complex"*, double*, %"class.std::__1::complex"*, i64*, i64*)

declare i64 @_ZN8vfun_powINSt3__17complexIdEEdS2_E7iterateILN3wrt13runtime_flagsE0ELS6_1EL15increment_class0EEExPS2_PKdPKS2_RKxPSD_(%"class.std::__1::complex"*, double*, %"class.std::__1::complex"*, i64*, i64*)

declare i64 @_ZN8vfun_powINSt3__17complexIdEEdS2_E7iterateILN3wrt13runtime_flagsE0ELS6_0EL15increment_class0EEExPS2_PKdPKS2_RKxPSD_(%"class.std::__1::complex"*, double*, %"class.std::__1::complex"*, i64*, i64*)

declare { double, double } @_ZN3wrt9scalar_op6binaryL6pow_opIdNSt3__17complexIdEELNS_13runtime_flagsE0EEENS3_9enable_ifIXaaoosr11is_integralIT_EE5valuesr17is_floating_pointIS8_EE5valuesr10is_complexIT0_EE5valueENS1_6detail7op_infoILNSA_2opE20EN7rt_typeIS8_E4typeENSD_IS9_E4typeEE11result_typeEE4typeERKNSI_19first_argument_typeERKNSI_20second_argument_typeE(double, %"class.std::__1::complex"*)

declare { double, double } @_ZN3wrt9scalar_op6binaryL6pow_opIdNSt3__17complexIdEELNS_13runtime_flagsE1EEENS3_9enable_ifIXaaoosr11is_integralIT_EE5valuesr17is_floating_pointIS8_EE5valuesr10is_complexIT0_EE5valueENS1_6detail7op_infoILNSA_2opE20EN7rt_typeIS8_E4typeENSD_IS9_E4typeEE11result_typeEE4typeERKNSI_19first_argument_typeERKNSI_20second_argument_typeE(double, %"class.std::__1::complex"*)

declare i64 @_ZN8vfun_powINSt3__17complexIdEEdS2_E7iterateILN3wrt13runtime_flagsE0ELS6_0EL15increment_class1EEExPS2_PKdPKS2_RKxPSD_(%"class.std::__1::complex"*, double*, %"class.std::__1::complex"*, i64*, i64*)

declare i64 @_ZN8vfun_powINSt3__17complexIdEEdS2_E7iterateILN3wrt13runtime_flagsE0ELS6_0EL15increment_class2EEExPS2_PKdPKS2_RKxPSD_(%"class.std::__1::complex"*, double*, %"class.std::__1::complex"*, i64*, i64*)

declare i64 @_ZN8vfun_powINSt3__17complexIdEEdS2_E7iterateILN3wrt13runtime_flagsE0ELS6_0EL15increment_class3EEExPS2_PKdPKS2_RKxPSD_(%"class.std::__1::complex"*, double*, %"class.std::__1::complex"*, i64*, i64*)

declare i64 @_ZN8vfun_powINSt3__17complexIdEEdS2_E7iterateILN3wrt13runtime_flagsE0ELS6_1EL15increment_class1EEExPS2_PKdPKS2_RKxPSD_(%"class.std::__1::complex"*, double*, %"class.std::__1::complex"*, i64*, i64*)

declare i64 @_ZN8vfun_powINSt3__17complexIdEEdS2_E7iterateILN3wrt13runtime_flagsE0ELS6_1EL15increment_class2EEExPS2_PKdPKS2_RKxPSD_(%"class.std::__1::complex"*, double*, %"class.std::__1::complex"*, i64*, i64*)

declare i64 @_ZN8vfun_powINSt3__17complexIdEEdS2_E7iterateILN3wrt13runtime_flagsE0ELS6_1EL15increment_class3EEExPS2_PKdPKS2_RKxPSD_(%"class.std::__1::complex"*, double*, %"class.std::__1::complex"*, i64*, i64*)

declare i64 @_ZN8vfun_powINSt3__17complexIdEEdS2_E7iterateILN3wrt13runtime_flagsE1ELS6_0EL15increment_class1EEExPS2_PKdPKS2_RKxPSD_(%"class.std::__1::complex"*, double*, %"class.std::__1::complex"*, i64*, i64*)

declare i64 @_ZN8vfun_powINSt3__17complexIdEEdS2_E7iterateILN3wrt13runtime_flagsE1ELS6_0EL15increment_class2EEExPS2_PKdPKS2_RKxPSD_(%"class.std::__1::complex"*, double*, %"class.std::__1::complex"*, i64*, i64*)

declare i64 @_ZN8vfun_powINSt3__17complexIdEEdS2_E7iterateILN3wrt13runtime_flagsE1ELS6_0EL15increment_class3EEExPS2_PKdPKS2_RKxPSD_(%"class.std::__1::complex"*, double*, %"class.std::__1::complex"*, i64*, i64*)

declare i64 @_ZN8vfun_powIdddE7iterateILN3wrt13runtime_flagsE1ELS3_0EL15increment_class0EEExPdPKdS7_RKxPS8_(double*, double*, double*, i64*, i64*)

declare i64 @_ZN8vfun_powIdddE7iterateILN3wrt13runtime_flagsE0ELS3_1EL15increment_class0EEExPdPKdS7_RKxPS8_(double*, double*, double*, i64*, i64*)

declare i64 @_ZN8vfun_powIdddE7iterateILN3wrt13runtime_flagsE0ELS3_0EL15increment_class0EEExPdPKdS7_RKxPS8_(double*, double*, double*, i64*, i64*)

declare i64 @_ZN8vfun_powIdddE7iterateILN3wrt13runtime_flagsE0ELS3_0EL15increment_class1EEExPdPKdS7_RKxPS8_(double*, double*, double*, i64*, i64*)

declare i64 @_ZN8vfun_powIdddE7iterateILN3wrt13runtime_flagsE0ELS3_0EL15increment_class2EEExPdPKdS7_RKxPS8_(double*, double*, double*, i64*, i64*)

declare i64 @_ZN8vfun_powIdddE7iterateILN3wrt13runtime_flagsE0ELS3_0EL15increment_class3EEExPdPKdS7_RKxPS8_(double*, double*, double*, i64*, i64*)

declare i64 @_ZN8vfun_powIdddE7iterateILN3wrt13runtime_flagsE0ELS3_1EL15increment_class1EEExPdPKdS7_RKxPS8_(double*, double*, double*, i64*, i64*)

declare i64 @_ZN8vfun_powIdddE7iterateILN3wrt13runtime_flagsE0ELS3_1EL15increment_class2EEExPdPKdS7_RKxPS8_(double*, double*, double*, i64*, i64*)

declare i64 @_ZN8vfun_powIdddE7iterateILN3wrt13runtime_flagsE0ELS3_1EL15increment_class3EEExPdPKdS7_RKxPS8_(double*, double*, double*, i64*, i64*)

declare i64 @_ZN8vfun_powIdddE7iterateILN3wrt13runtime_flagsE1ELS3_0EL15increment_class1EEExPdPKdS7_RKxPS8_(double*, double*, double*, i64*, i64*)

declare i64 @_ZN8vfun_powIdddE7iterateILN3wrt13runtime_flagsE1ELS3_0EL15increment_class2EEExPdPKdS7_RKxPS8_(double*, double*, double*, i64*, i64*)

declare i64 @_ZN8vfun_powIdddE7iterateILN3wrt13runtime_flagsE1ELS3_0EL15increment_class3EEExPdPKdS7_RKxPS8_(double*, double*, double*, i64*, i64*)

declare i64 @_ZN8vfun_powIddxE7iterateILN3wrt13runtime_flagsE1ELS3_0EL15increment_class0EEExPdPKdPKxRS8_S9_(double*, double*, i64*, i64*, i64*)

declare i64 @_ZN8vfun_powIddxE7iterateILN3wrt13runtime_flagsE0ELS3_1EL15increment_class0EEExPdPKdPKxRS8_S9_(double*, double*, i64*, i64*, i64*)

declare i64 @_ZN8vfun_powIddxE7iterateILN3wrt13runtime_flagsE0ELS3_0EL15increment_class0EEExPdPKdPKxRS8_S9_(double*, double*, i64*, i64*, i64*)

declare i64 @_ZN8vfun_powIddxE7iterateILN3wrt13runtime_flagsE0ELS3_0EL15increment_class1EEExPdPKdPKxRS8_S9_(double*, double*, i64*, i64*, i64*)

declare i64 @_ZN8vfun_powIddxE7iterateILN3wrt13runtime_flagsE0ELS3_0EL15increment_class2EEExPdPKdPKxRS8_S9_(double*, double*, i64*, i64*, i64*)

declare i64 @_ZN8vfun_powIddxE7iterateILN3wrt13runtime_flagsE0ELS3_0EL15increment_class3EEExPdPKdPKxRS8_S9_(double*, double*, i64*, i64*, i64*)

declare i64 @_ZN8vfun_powIddxE7iterateILN3wrt13runtime_flagsE0ELS3_1EL15increment_class1EEExPdPKdPKxRS8_S9_(double*, double*, i64*, i64*, i64*)

declare i64 @_ZN8vfun_powIddxE7iterateILN3wrt13runtime_flagsE0ELS3_1EL15increment_class2EEExPdPKdPKxRS8_S9_(double*, double*, i64*, i64*, i64*)

declare i64 @_ZN8vfun_powIddxE7iterateILN3wrt13runtime_flagsE0ELS3_1EL15increment_class3EEExPdPKdPKxRS8_S9_(double*, double*, i64*, i64*, i64*)

declare i64 @_ZN8vfun_powIddxE7iterateILN3wrt13runtime_flagsE1ELS3_0EL15increment_class1EEExPdPKdPKxRS8_S9_(double*, double*, i64*, i64*, i64*)

declare i64 @_ZN8vfun_powIddxE7iterateILN3wrt13runtime_flagsE1ELS3_0EL15increment_class2EEExPdPKdPKxRS8_S9_(double*, double*, i64*, i64*, i64*)

declare i64 @_ZN8vfun_powIddxE7iterateILN3wrt13runtime_flagsE1ELS3_0EL15increment_class3EEExPdPKdPKxRS8_S9_(double*, double*, i64*, i64*, i64*)

declare i64 @_ZN8vfun_powINSt3__17complexIdEExS2_E7iterateILN3wrt13runtime_flagsE1ELS6_0EL15increment_class0EEExPS2_PKxPKS2_RS9_SA_(%"class.std::__1::complex"*, i64*, %"class.std::__1::complex"*, i64*, i64*)

declare i64 @_ZN8vfun_powINSt3__17complexIdEExS2_E7iterateILN3wrt13runtime_flagsE0ELS6_1EL15increment_class0EEExPS2_PKxPKS2_RS9_SA_(%"class.std::__1::complex"*, i64*, %"class.std::__1::complex"*, i64*, i64*)

declare i64 @_ZN8vfun_powINSt3__17complexIdEExS2_E7iterateILN3wrt13runtime_flagsE0ELS6_0EL15increment_class0EEExPS2_PKxPKS2_RS9_SA_(%"class.std::__1::complex"*, i64*, %"class.std::__1::complex"*, i64*, i64*)

declare { double, double } @_ZN3wrt9scalar_op6binaryL6pow_opIxNSt3__17complexIdEELNS_13runtime_flagsE0EEENS3_9enable_ifIXaaoosr11is_integralIT_EE5valuesr17is_floating_pointIS8_EE5valuesr10is_complexIT0_EE5valueENS1_6detail7op_infoILNSA_2opE20EN7rt_typeIS8_E4typeENSD_IS9_E4typeEE11result_typeEE4typeERKNSI_19first_argument_typeERKNSI_20second_argument_typeE(i64, %"class.std::__1::complex"*)

declare { double, double } @_ZN3wrt9scalar_op6binaryL6pow_opIxNSt3__17complexIdEELNS_13runtime_flagsE1EEENS3_9enable_ifIXaaoosr11is_integralIT_EE5valuesr17is_floating_pointIS8_EE5valuesr10is_complexIT0_EE5valueENS1_6detail7op_infoILNSA_2opE20EN7rt_typeIS8_E4typeENSD_IS9_E4typeEE11result_typeEE4typeERKNSI_19first_argument_typeERKNSI_20second_argument_typeE(i64, %"class.std::__1::complex"*)

declare i64 @_ZN8vfun_powINSt3__17complexIdEExS2_E7iterateILN3wrt13runtime_flagsE0ELS6_0EL15increment_class1EEExPS2_PKxPKS2_RS9_SA_(%"class.std::__1::complex"*, i64*, %"class.std::__1::complex"*, i64*, i64*)

declare i64 @_ZN8vfun_powINSt3__17complexIdEExS2_E7iterateILN3wrt13runtime_flagsE0ELS6_0EL15increment_class2EEExPS2_PKxPKS2_RS9_SA_(%"class.std::__1::complex"*, i64*, %"class.std::__1::complex"*, i64*, i64*)

declare i64 @_ZN8vfun_powINSt3__17complexIdEExS2_E7iterateILN3wrt13runtime_flagsE0ELS6_0EL15increment_class3EEExPS2_PKxPKS2_RS9_SA_(%"class.std::__1::complex"*, i64*, %"class.std::__1::complex"*, i64*, i64*)

declare i64 @_ZN8vfun_powINSt3__17complexIdEExS2_E7iterateILN3wrt13runtime_flagsE0ELS6_1EL15increment_class1EEExPS2_PKxPKS2_RS9_SA_(%"class.std::__1::complex"*, i64*, %"class.std::__1::complex"*, i64*, i64*)

declare i64 @_ZN8vfun_powINSt3__17complexIdEExS2_E7iterateILN3wrt13runtime_flagsE0ELS6_1EL15increment_class2EEExPS2_PKxPKS2_RS9_SA_(%"class.std::__1::complex"*, i64*, %"class.std::__1::complex"*, i64*, i64*)

declare i64 @_ZN8vfun_powINSt3__17complexIdEExS2_E7iterateILN3wrt13runtime_flagsE0ELS6_1EL15increment_class3EEExPS2_PKxPKS2_RS9_SA_(%"class.std::__1::complex"*, i64*, %"class.std::__1::complex"*, i64*, i64*)

declare i64 @_ZN8vfun_powINSt3__17complexIdEExS2_E7iterateILN3wrt13runtime_flagsE1ELS6_0EL15increment_class1EEExPS2_PKxPKS2_RS9_SA_(%"class.std::__1::complex"*, i64*, %"class.std::__1::complex"*, i64*, i64*)

declare i64 @_ZN8vfun_powINSt3__17complexIdEExS2_E7iterateILN3wrt13runtime_flagsE1ELS6_0EL15increment_class2EEExPS2_PKxPKS2_RS9_SA_(%"class.std::__1::complex"*, i64*, %"class.std::__1::complex"*, i64*, i64*)

declare i64 @_ZN8vfun_powINSt3__17complexIdEExS2_E7iterateILN3wrt13runtime_flagsE1ELS6_0EL15increment_class3EEExPS2_PKxPKS2_RS9_SA_(%"class.std::__1::complex"*, i64*, %"class.std::__1::complex"*, i64*, i64*)

declare i64 @_ZN8vfun_powIdxdE7iterateILN3wrt13runtime_flagsE1ELS3_0EL15increment_class0EEExPdPKxPKdRS6_S7_(double*, i64*, double*, i64*, i64*)

declare i64 @_ZN8vfun_powIdxdE7iterateILN3wrt13runtime_flagsE0ELS3_1EL15increment_class0EEExPdPKxPKdRS6_S7_(double*, i64*, double*, i64*, i64*)

declare i64 @_ZN8vfun_powIdxdE7iterateILN3wrt13runtime_flagsE0ELS3_0EL15increment_class0EEExPdPKxPKdRS6_S7_(double*, i64*, double*, i64*, i64*)

declare i64 @_ZN8vfun_powIdxdE7iterateILN3wrt13runtime_flagsE0ELS3_0EL15increment_class1EEExPdPKxPKdRS6_S7_(double*, i64*, double*, i64*, i64*)

declare i64 @_ZN8vfun_powIdxdE7iterateILN3wrt13runtime_flagsE0ELS3_0EL15increment_class2EEExPdPKxPKdRS6_S7_(double*, i64*, double*, i64*, i64*)

declare i64 @_ZN8vfun_powIdxdE7iterateILN3wrt13runtime_flagsE0ELS3_0EL15increment_class3EEExPdPKxPKdRS6_S7_(double*, i64*, double*, i64*, i64*)

declare i64 @_ZN8vfun_powIdxdE7iterateILN3wrt13runtime_flagsE0ELS3_1EL15increment_class1EEExPdPKxPKdRS6_S7_(double*, i64*, double*, i64*, i64*)

declare i64 @_ZN8vfun_powIdxdE7iterateILN3wrt13runtime_flagsE0ELS3_1EL15increment_class2EEExPdPKxPKdRS6_S7_(double*, i64*, double*, i64*, i64*)

declare i64 @_ZN8vfun_powIdxdE7iterateILN3wrt13runtime_flagsE0ELS3_1EL15increment_class3EEExPdPKxPKdRS6_S7_(double*, i64*, double*, i64*, i64*)

declare i64 @_ZN8vfun_powIdxdE7iterateILN3wrt13runtime_flagsE1ELS3_0EL15increment_class1EEExPdPKxPKdRS6_S7_(double*, i64*, double*, i64*, i64*)

declare i64 @_ZN8vfun_powIdxdE7iterateILN3wrt13runtime_flagsE1ELS3_0EL15increment_class2EEExPdPKxPKdRS6_S7_(double*, i64*, double*, i64*, i64*)

declare i64 @_ZN8vfun_powIdxdE7iterateILN3wrt13runtime_flagsE1ELS3_0EL15increment_class3EEExPdPKxPKdRS6_S7_(double*, i64*, double*, i64*, i64*)

declare i64 @_ZN8vfun_powIxxxE7iterateILN3wrt13runtime_flagsE0ELS3_1EL15increment_class0EEExPxPKxS7_RS6_S7_(i64*, i64*, i64*, i64*, i64*)

declare i64 @_ZN8vfun_powIxxxE7iterateILN3wrt13runtime_flagsE0ELS3_0EL15increment_class0EEExPxPKxS7_RS6_S7_(i64*, i64*, i64*, i64*, i64*)

declare i64 @_ZN3wrt9scalar_op6binaryL6pow_opIxxLNS_13runtime_flagsE0EEENSt3__19enable_ifIXaasr18is_signed_integralIT_EE5valuesr11is_integralIT0_EE5valueENS1_6detail7op_infoILNS8_2opE20EN7rt_typeIS6_E4typeENSB_IS7_E4typeEE11result_typeEE4typeERKNSG_19first_argument_typeERKNSG_20second_argument_typeE(i64, i64*)

declare i64 @_ZN3wrt9scalar_op6binaryL6pow_opIxxLNS_13runtime_flagsE1EEENSt3__19enable_ifIXaasr18is_signed_integralIT_EE5valuesr11is_integralIT0_EE5valueENS1_6detail7op_infoILNS8_2opE20EN7rt_typeIS6_E4typeENSB_IS7_E4typeEE11result_typeEE4typeERKNSG_19first_argument_typeERKNSG_20second_argument_typeE(i64, i64*)

declare i64 @_ZN3wrt9scalar_op6binaryL9pow_xi_opIxxLNS_13runtime_flagsE1EEENSt3__19enable_ifIXsr11is_integralIT0_EE5valueET_E4typeERKS7_RKS6_(i64, i64)

declare i64 @_ZN8vfun_powIxxxE7iterateILN3wrt13runtime_flagsE0ELS3_0EL15increment_class1EEExPxPKxS7_RS6_S7_(i64*, i64*, i64*, i64*, i64*)

declare i64 @_ZN8vfun_powIxxxE7iterateILN3wrt13runtime_flagsE0ELS3_0EL15increment_class2EEExPxPKxS7_RS6_S7_(i64*, i64*, i64*, i64*, i64*)

declare i64 @_ZN8vfun_powIxxxE7iterateILN3wrt13runtime_flagsE0ELS3_0EL15increment_class3EEExPxPKxS7_RS6_S7_(i64*, i64*, i64*, i64*, i64*)

declare i64 @_ZN8vfun_powIxxxE7iterateILN3wrt13runtime_flagsE0ELS3_1EL15increment_class1EEExPxPKxS7_RS6_S7_(i64*, i64*, i64*, i64*, i64*)

declare i64 @_ZN8vfun_powIxxxE7iterateILN3wrt13runtime_flagsE0ELS3_1EL15increment_class2EEExPxPKxS7_RS6_S7_(i64*, i64*, i64*, i64*, i64*)

declare i64 @_ZN8vfun_powIxxxE7iterateILN3wrt13runtime_flagsE0ELS3_1EL15increment_class3EEExPxPKxS7_RS6_S7_(i64*, i64*, i64*, i64*, i64*)

declare i64 @_ZN13vfun_quotientIxddE7iterateILN3wrt13runtime_flagsE0ELS3_1EL15increment_class0EEExPxPKdS7_RKxPS8_(i64*, double*, double*, i64*, i64*)

declare i64 @_ZN13vfun_quotientIxddE7iterateILN3wrt13runtime_flagsE0ELS3_0EL15increment_class0EEExPxPKdS7_RKxPS8_(i64*, double*, double*, i64*, i64*)

declare i64 @_ZN13vfun_quotientIxddE7iterateILN3wrt13runtime_flagsE0ELS3_0EL15increment_class1EEExPxPKdS7_RKxPS8_(i64*, double*, double*, i64*, i64*)

declare i64 @_ZN13vfun_quotientIxddE7iterateILN3wrt13runtime_flagsE0ELS3_0EL15increment_class2EEExPxPKdS7_RKxPS8_(i64*, double*, double*, i64*, i64*)

declare i64 @_ZN13vfun_quotientIxddE7iterateILN3wrt13runtime_flagsE0ELS3_0EL15increment_class3EEExPxPKdS7_RKxPS8_(i64*, double*, double*, i64*, i64*)

declare i64 @_ZN13vfun_quotientIxddE7iterateILN3wrt13runtime_flagsE0ELS3_1EL15increment_class1EEExPxPKdS7_RKxPS8_(i64*, double*, double*, i64*, i64*)

declare i64 @_ZN13vfun_quotientIxddE7iterateILN3wrt13runtime_flagsE0ELS3_1EL15increment_class2EEExPxPKdS7_RKxPS8_(i64*, double*, double*, i64*, i64*)

declare i64 @_ZN13vfun_quotientIxddE7iterateILN3wrt13runtime_flagsE0ELS3_1EL15increment_class3EEExPxPKdS7_RKxPS8_(i64*, double*, double*, i64*, i64*)

declare i64 @_ZN13vfun_quotientIxdxE7iterateILN3wrt13runtime_flagsE0ELS3_1EL15increment_class0EEExPxPKdPKxRS8_S9_(i64*, double*, i64*, i64*, i64*)

declare i64 @_ZN13vfun_quotientIxdxE7iterateILN3wrt13runtime_flagsE0ELS3_0EL15increment_class0EEExPxPKdPKxRS8_S9_(i64*, double*, i64*, i64*, i64*)

declare void @.omp_outlined..2.51(i32*, i32*, i64*, i64*, i64*, i64*, i64*, i64*, i64*, i64*, i64*, i64 (i64*, double*, i64*, i64*, i64*)**, i64**, double**, i64**, i64**)

declare i64 @_ZN13vfun_quotientIxdxE7iterateILN3wrt13runtime_flagsE0ELS3_0EL15increment_class1EEExPxPKdPKxRS8_S9_(i64*, double*, i64*, i64*, i64*)

declare i64 @_ZN13vfun_quotientIxdxE7iterateILN3wrt13runtime_flagsE0ELS3_0EL15increment_class2EEExPxPKdPKxRS8_S9_(i64*, double*, i64*, i64*, i64*)

declare i64 @_ZN13vfun_quotientIxdxE7iterateILN3wrt13runtime_flagsE0ELS3_0EL15increment_class3EEExPxPKdPKxRS8_S9_(i64*, double*, i64*, i64*, i64*)

declare i64 @_ZN13vfun_quotientIxdxE7iterateILN3wrt13runtime_flagsE0ELS3_1EL15increment_class1EEExPxPKdPKxRS8_S9_(i64*, double*, i64*, i64*, i64*)

declare i64 @_ZN13vfun_quotientIxdxE7iterateILN3wrt13runtime_flagsE0ELS3_1EL15increment_class2EEExPxPKdPKxRS8_S9_(i64*, double*, i64*, i64*, i64*)

declare i64 @_ZN13vfun_quotientIxdxE7iterateILN3wrt13runtime_flagsE0ELS3_1EL15increment_class3EEExPxPKdPKxRS8_S9_(i64*, double*, i64*, i64*, i64*)

declare i64 @_ZN13vfun_quotientIxxdE7iterateILN3wrt13runtime_flagsE0ELS3_1EL15increment_class0EEExPxPKxPKdRS6_S7_(i64*, i64*, double*, i64*, i64*)

declare i64 @_ZN13vfun_quotientIxxdE7iterateILN3wrt13runtime_flagsE0ELS3_0EL15increment_class0EEExPxPKxPKdRS6_S7_(i64*, i64*, double*, i64*, i64*)

declare void @.omp_outlined..52(i32*, i32*, i64*, i64*, i64*, i64*, i64*, i64*, i64*, i64*, i64*, i64 (i64*, i64*, double*, i64*, i64*)**, i64**, i64**, double**, i64**)

declare i64 @_ZN13vfun_quotientIxxdE7iterateILN3wrt13runtime_flagsE0ELS3_0EL15increment_class1EEExPxPKxPKdRS6_S7_(i64*, i64*, double*, i64*, i64*)

declare i64 @_ZN13vfun_quotientIxxdE7iterateILN3wrt13runtime_flagsE0ELS3_0EL15increment_class2EEExPxPKxPKdRS6_S7_(i64*, i64*, double*, i64*, i64*)

declare i64 @_ZN13vfun_quotientIxxdE7iterateILN3wrt13runtime_flagsE0ELS3_0EL15increment_class3EEExPxPKxPKdRS6_S7_(i64*, i64*, double*, i64*, i64*)

declare i64 @_ZN13vfun_quotientIxxdE7iterateILN3wrt13runtime_flagsE0ELS3_1EL15increment_class1EEExPxPKxPKdRS6_S7_(i64*, i64*, double*, i64*, i64*)

declare i64 @_ZN13vfun_quotientIxxdE7iterateILN3wrt13runtime_flagsE0ELS3_1EL15increment_class2EEExPxPKxPKdRS6_S7_(i64*, i64*, double*, i64*, i64*)

declare i64 @_ZN13vfun_quotientIxxdE7iterateILN3wrt13runtime_flagsE0ELS3_1EL15increment_class3EEExPxPKxPKdRS6_S7_(i64*, i64*, double*, i64*, i64*)

declare i64 @_ZN13vfun_quotientIxxxE7iterateILN3wrt13runtime_flagsE0ELS3_1EL15increment_class0EEExPxPKxS7_RS6_S7_(i64*, i64*, i64*, i64*, i64*)

declare i64 @_ZN13vfun_quotientIxxxE7iterateILN3wrt13runtime_flagsE0ELS3_0EL15increment_class0EEExPxPKxS7_RS6_S7_(i64*, i64*, i64*, i64*, i64*)

declare i64 @_ZN13vfun_quotientIxxxE7iterateILN3wrt13runtime_flagsE0ELS3_0EL15increment_class1EEExPxPKxS7_RS6_S7_(i64*, i64*, i64*, i64*, i64*)

declare i64 @_ZN13vfun_quotientIxxxE7iterateILN3wrt13runtime_flagsE0ELS3_0EL15increment_class2EEExPxPKxS7_RS6_S7_(i64*, i64*, i64*, i64*, i64*)

declare i64 @_ZN13vfun_quotientIxxxE7iterateILN3wrt13runtime_flagsE0ELS3_0EL15increment_class3EEExPxPKxS7_RS6_S7_(i64*, i64*, i64*, i64*, i64*)

declare i64 @_ZN13vfun_quotientIxxxE7iterateILN3wrt13runtime_flagsE0ELS3_1EL15increment_class1EEExPxPKxS7_RS6_S7_(i64*, i64*, i64*, i64*, i64*)

declare i64 @_ZN13vfun_quotientIxxxE7iterateILN3wrt13runtime_flagsE0ELS3_1EL15increment_class2EEExPxPKxS7_RS6_S7_(i64*, i64*, i64*, i64*, i64*)

declare i64 @_ZN13vfun_quotientIxxxE7iterateILN3wrt13runtime_flagsE0ELS3_1EL15increment_class3EEExPxPKxS7_RS6_S7_(i64*, i64*, i64*, i64*, i64*)

declare i64 @_ZN8vfun_modINSt3__17complexIdEES2_S2_E7iterateILN3wrt13runtime_flagsE1ELS6_0EL15increment_class0EEExPS2_PKS2_SA_RKxPSB_(%"class.std::__1::complex"*, %"class.std::__1::complex"*, %"class.std::__1::complex"*, i64*, i64*)

declare i64 @_ZN8vfun_modINSt3__17complexIdEES2_S2_E7iterateILN3wrt13runtime_flagsE0ELS6_1EL15increment_class0EEExPS2_PKS2_SA_RKxPSB_(%"class.std::__1::complex"*, %"class.std::__1::complex"*, %"class.std::__1::complex"*, i64*, i64*)

declare i64 @_ZN8vfun_modINSt3__17complexIdEES2_S2_E7iterateILN3wrt13runtime_flagsE0ELS6_0EL15increment_class0EEExPS2_PKS2_SA_RKxPSB_(%"class.std::__1::complex"*, %"class.std::__1::complex"*, %"class.std::__1::complex"*, i64*, i64*)

declare { double, double } @_ZN3wrt9scalar_op6binaryL6mod_opINSt3__17complexIdEES5_LNS_13runtime_flagsE0EEENS3_9enable_ifIXoosr10is_complexIT_EE5valuesr10is_complexIT0_EE5valueENS1_6detail7op_infoILNSA_2opE18EN7rt_typeIS8_E4typeENSD_IS9_E4typeEE11result_typeEE4typeERKNSI_19first_argument_typeERKNSI_20second_argument_typeE(%"class.std::__1::complex"*, %"class.std::__1::complex"*)

declare { double, double } @_ZN3wrt9scalar_op6binaryL6mod_opINSt3__17complexIdEES5_LNS_13runtime_flagsE1EEENS3_9enable_ifIXoosr10is_complexIT_EE5valuesr10is_complexIT0_EE5valueENS1_6detail7op_infoILNSA_2opE18EN7rt_typeIS8_E4typeENSD_IS9_E4typeEE11result_typeEE4typeERKNSI_19first_argument_typeERKNSI_20second_argument_typeE(%"class.std::__1::complex"*, %"class.std::__1::complex"*)

declare i64 @_ZN8vfun_modINSt3__17complexIdEES2_S2_E7iterateILN3wrt13runtime_flagsE0ELS6_0EL15increment_class1EEExPS2_PKS2_SA_RKxPSB_(%"class.std::__1::complex"*, %"class.std::__1::complex"*, %"class.std::__1::complex"*, i64*, i64*)

declare i64 @_ZN8vfun_modINSt3__17complexIdEES2_S2_E7iterateILN3wrt13runtime_flagsE0ELS6_0EL15increment_class2EEExPS2_PKS2_SA_RKxPSB_(%"class.std::__1::complex"*, %"class.std::__1::complex"*, %"class.std::__1::complex"*, i64*, i64*)

declare i64 @_ZN8vfun_modINSt3__17complexIdEES2_S2_E7iterateILN3wrt13runtime_flagsE0ELS6_0EL15increment_class3EEExPS2_PKS2_SA_RKxPSB_(%"class.std::__1::complex"*, %"class.std::__1::complex"*, %"class.std::__1::complex"*, i64*, i64*)

declare i64 @_ZN8vfun_modINSt3__17complexIdEES2_S2_E7iterateILN3wrt13runtime_flagsE0ELS6_1EL15increment_class1EEExPS2_PKS2_SA_RKxPSB_(%"class.std::__1::complex"*, %"class.std::__1::complex"*, %"class.std::__1::complex"*, i64*, i64*)

declare i64 @_ZN8vfun_modINSt3__17complexIdEES2_S2_E7iterateILN3wrt13runtime_flagsE0ELS6_1EL15increment_class2EEExPS2_PKS2_SA_RKxPSB_(%"class.std::__1::complex"*, %"class.std::__1::complex"*, %"class.std::__1::complex"*, i64*, i64*)

declare i64 @_ZN8vfun_modINSt3__17complexIdEES2_S2_E7iterateILN3wrt13runtime_flagsE0ELS6_1EL15increment_class3EEExPS2_PKS2_SA_RKxPSB_(%"class.std::__1::complex"*, %"class.std::__1::complex"*, %"class.std::__1::complex"*, i64*, i64*)

declare i64 @_ZN8vfun_modINSt3__17complexIdEES2_S2_E7iterateILN3wrt13runtime_flagsE1ELS6_0EL15increment_class1EEExPS2_PKS2_SA_RKxPSB_(%"class.std::__1::complex"*, %"class.std::__1::complex"*, %"class.std::__1::complex"*, i64*, i64*)

declare i64 @_ZN8vfun_modINSt3__17complexIdEES2_S2_E7iterateILN3wrt13runtime_flagsE1ELS6_0EL15increment_class2EEExPS2_PKS2_SA_RKxPSB_(%"class.std::__1::complex"*, %"class.std::__1::complex"*, %"class.std::__1::complex"*, i64*, i64*)

declare i64 @_ZN8vfun_modINSt3__17complexIdEES2_S2_E7iterateILN3wrt13runtime_flagsE1ELS6_0EL15increment_class3EEExPS2_PKS2_SA_RKxPSB_(%"class.std::__1::complex"*, %"class.std::__1::complex"*, %"class.std::__1::complex"*, i64*, i64*)

declare i64 @_ZN8vfun_modINSt3__17complexIdEES2_dE7iterateILN3wrt13runtime_flagsE1ELS6_0EL15increment_class0EEExPS2_PKS2_PKdRKxPSD_(%"class.std::__1::complex"*, %"class.std::__1::complex"*, double*, i64*, i64*)

declare i64 @_ZN8vfun_modINSt3__17complexIdEES2_dE7iterateILN3wrt13runtime_flagsE0ELS6_1EL15increment_class0EEExPS2_PKS2_PKdRKxPSD_(%"class.std::__1::complex"*, %"class.std::__1::complex"*, double*, i64*, i64*)

declare i64 @_ZN8vfun_modINSt3__17complexIdEES2_dE7iterateILN3wrt13runtime_flagsE0ELS6_0EL15increment_class0EEExPS2_PKS2_PKdRKxPSD_(%"class.std::__1::complex"*, %"class.std::__1::complex"*, double*, i64*, i64*)

declare { double, double } @_ZN3wrt9scalar_op6binaryL6mod_opINSt3__17complexIdEEdLNS_13runtime_flagsE0EEENS3_9enable_ifIXoosr10is_complexIT_EE5valuesr10is_complexIT0_EE5valueENS1_6detail7op_infoILNSA_2opE18EN7rt_typeIS8_E4typeENSD_IS9_E4typeEE11result_typeEE4typeERKNSI_19first_argument_typeERKNSI_20second_argument_typeE(%"class.std::__1::complex"*, double)

declare { double, double } @_ZN3wrt9scalar_op6binaryL6mod_opINSt3__17complexIdEEdLNS_13runtime_flagsE1EEENS3_9enable_ifIXoosr10is_complexIT_EE5valuesr10is_complexIT0_EE5valueENS1_6detail7op_infoILNSA_2opE18EN7rt_typeIS8_E4typeENSD_IS9_E4typeEE11result_typeEE4typeERKNSI_19first_argument_typeERKNSI_20second_argument_typeE(%"class.std::__1::complex"*, double)

declare i64 @_ZN8vfun_modINSt3__17complexIdEES2_dE7iterateILN3wrt13runtime_flagsE0ELS6_0EL15increment_class1EEExPS2_PKS2_PKdRKxPSD_(%"class.std::__1::complex"*, %"class.std::__1::complex"*, double*, i64*, i64*)

declare i64 @_ZN8vfun_modINSt3__17complexIdEES2_dE7iterateILN3wrt13runtime_flagsE0ELS6_0EL15increment_class2EEExPS2_PKS2_PKdRKxPSD_(%"class.std::__1::complex"*, %"class.std::__1::complex"*, double*, i64*, i64*)

declare i64 @_ZN8vfun_modINSt3__17complexIdEES2_dE7iterateILN3wrt13runtime_flagsE0ELS6_0EL15increment_class3EEExPS2_PKS2_PKdRKxPSD_(%"class.std::__1::complex"*, %"class.std::__1::complex"*, double*, i64*, i64*)

declare i64 @_ZN8vfun_modINSt3__17complexIdEES2_dE7iterateILN3wrt13runtime_flagsE0ELS6_1EL15increment_class1EEExPS2_PKS2_PKdRKxPSD_(%"class.std::__1::complex"*, %"class.std::__1::complex"*, double*, i64*, i64*)

declare i64 @_ZN8vfun_modINSt3__17complexIdEES2_dE7iterateILN3wrt13runtime_flagsE0ELS6_1EL15increment_class2EEExPS2_PKS2_PKdRKxPSD_(%"class.std::__1::complex"*, %"class.std::__1::complex"*, double*, i64*, i64*)

declare i64 @_ZN8vfun_modINSt3__17complexIdEES2_dE7iterateILN3wrt13runtime_flagsE0ELS6_1EL15increment_class3EEExPS2_PKS2_PKdRKxPSD_(%"class.std::__1::complex"*, %"class.std::__1::complex"*, double*, i64*, i64*)

declare i64 @_ZN8vfun_modINSt3__17complexIdEES2_dE7iterateILN3wrt13runtime_flagsE1ELS6_0EL15increment_class1EEExPS2_PKS2_PKdRKxPSD_(%"class.std::__1::complex"*, %"class.std::__1::complex"*, double*, i64*, i64*)

declare i64 @_ZN8vfun_modINSt3__17complexIdEES2_dE7iterateILN3wrt13runtime_flagsE1ELS6_0EL15increment_class2EEExPS2_PKS2_PKdRKxPSD_(%"class.std::__1::complex"*, %"class.std::__1::complex"*, double*, i64*, i64*)

declare i64 @_ZN8vfun_modINSt3__17complexIdEES2_dE7iterateILN3wrt13runtime_flagsE1ELS6_0EL15increment_class3EEExPS2_PKS2_PKdRKxPSD_(%"class.std::__1::complex"*, %"class.std::__1::complex"*, double*, i64*, i64*)

declare i64 @_ZN8vfun_modINSt3__17complexIdEES2_xE7iterateILN3wrt13runtime_flagsE1ELS6_0EL15increment_class0EEExPS2_PKS2_PKxRSB_SC_(%"class.std::__1::complex"*, %"class.std::__1::complex"*, i64*, i64*, i64*)

declare i64 @_ZN8vfun_modINSt3__17complexIdEES2_xE7iterateILN3wrt13runtime_flagsE0ELS6_1EL15increment_class0EEExPS2_PKS2_PKxRSB_SC_(%"class.std::__1::complex"*, %"class.std::__1::complex"*, i64*, i64*, i64*)

declare i64 @_ZN8vfun_modINSt3__17complexIdEES2_xE7iterateILN3wrt13runtime_flagsE0ELS6_0EL15increment_class0EEExPS2_PKS2_PKxRSB_SC_(%"class.std::__1::complex"*, %"class.std::__1::complex"*, i64*, i64*, i64*)

declare { double, double } @_ZN3wrt9scalar_op6binaryL6mod_opINSt3__17complexIdEExLNS_13runtime_flagsE0EEENS3_9enable_ifIXoosr10is_complexIT_EE5valuesr10is_complexIT0_EE5valueENS1_6detail7op_infoILNSA_2opE18EN7rt_typeIS8_E4typeENSD_IS9_E4typeEE11result_typeEE4typeERKNSI_19first_argument_typeERKNSI_20second_argument_typeE(%"class.std::__1::complex"*, i64)

declare { double, double } @_ZN3wrt9scalar_op6binaryL6mod_opINSt3__17complexIdEExLNS_13runtime_flagsE1EEENS3_9enable_ifIXoosr10is_complexIT_EE5valuesr10is_complexIT0_EE5valueENS1_6detail7op_infoILNSA_2opE18EN7rt_typeIS8_E4typeENSD_IS9_E4typeEE11result_typeEE4typeERKNSI_19first_argument_typeERKNSI_20second_argument_typeE(%"class.std::__1::complex"*, i64)

declare i64 @_ZN8vfun_modINSt3__17complexIdEES2_xE7iterateILN3wrt13runtime_flagsE0ELS6_0EL15increment_class1EEExPS2_PKS2_PKxRSB_SC_(%"class.std::__1::complex"*, %"class.std::__1::complex"*, i64*, i64*, i64*)

declare i64 @_ZN8vfun_modINSt3__17complexIdEES2_xE7iterateILN3wrt13runtime_flagsE0ELS6_0EL15increment_class2EEExPS2_PKS2_PKxRSB_SC_(%"class.std::__1::complex"*, %"class.std::__1::complex"*, i64*, i64*, i64*)

declare i64 @_ZN8vfun_modINSt3__17complexIdEES2_xE7iterateILN3wrt13runtime_flagsE0ELS6_0EL15increment_class3EEExPS2_PKS2_PKxRSB_SC_(%"class.std::__1::complex"*, %"class.std::__1::complex"*, i64*, i64*, i64*)

declare i64 @_ZN8vfun_modINSt3__17complexIdEES2_xE7iterateILN3wrt13runtime_flagsE0ELS6_1EL15increment_class1EEExPS2_PKS2_PKxRSB_SC_(%"class.std::__1::complex"*, %"class.std::__1::complex"*, i64*, i64*, i64*)

declare i64 @_ZN8vfun_modINSt3__17complexIdEES2_xE7iterateILN3wrt13runtime_flagsE0ELS6_1EL15increment_class2EEExPS2_PKS2_PKxRSB_SC_(%"class.std::__1::complex"*, %"class.std::__1::complex"*, i64*, i64*, i64*)

declare i64 @_ZN8vfun_modINSt3__17complexIdEES2_xE7iterateILN3wrt13runtime_flagsE0ELS6_1EL15increment_class3EEExPS2_PKS2_PKxRSB_SC_(%"class.std::__1::complex"*, %"class.std::__1::complex"*, i64*, i64*, i64*)

declare i64 @_ZN8vfun_modINSt3__17complexIdEES2_xE7iterateILN3wrt13runtime_flagsE1ELS6_0EL15increment_class1EEExPS2_PKS2_PKxRSB_SC_(%"class.std::__1::complex"*, %"class.std::__1::complex"*, i64*, i64*, i64*)

declare i64 @_ZN8vfun_modINSt3__17complexIdEES2_xE7iterateILN3wrt13runtime_flagsE1ELS6_0EL15increment_class2EEExPS2_PKS2_PKxRSB_SC_(%"class.std::__1::complex"*, %"class.std::__1::complex"*, i64*, i64*, i64*)

declare i64 @_ZN8vfun_modINSt3__17complexIdEES2_xE7iterateILN3wrt13runtime_flagsE1ELS6_0EL15increment_class3EEExPS2_PKS2_PKxRSB_SC_(%"class.std::__1::complex"*, %"class.std::__1::complex"*, i64*, i64*, i64*)

declare i64 @_ZN8vfun_modINSt3__17complexIdEEdS2_E7iterateILN3wrt13runtime_flagsE1ELS6_0EL15increment_class0EEExPS2_PKdPKS2_RKxPSD_(%"class.std::__1::complex"*, double*, %"class.std::__1::complex"*, i64*, i64*)

declare i64 @_ZN8vfun_modINSt3__17complexIdEEdS2_E7iterateILN3wrt13runtime_flagsE0ELS6_1EL15increment_class0EEExPS2_PKdPKS2_RKxPSD_(%"class.std::__1::complex"*, double*, %"class.std::__1::complex"*, i64*, i64*)

declare i64 @_ZN8vfun_modINSt3__17complexIdEEdS2_E7iterateILN3wrt13runtime_flagsE0ELS6_0EL15increment_class0EEExPS2_PKdPKS2_RKxPSD_(%"class.std::__1::complex"*, double*, %"class.std::__1::complex"*, i64*, i64*)

declare { double, double } @_ZN3wrt9scalar_op6binaryL6mod_opIdNSt3__17complexIdEELNS_13runtime_flagsE0EEENS3_9enable_ifIXoosr10is_complexIT_EE5valuesr10is_complexIT0_EE5valueENS1_6detail7op_infoILNSA_2opE18EN7rt_typeIS8_E4typeENSD_IS9_E4typeEE11result_typeEE4typeERKNSI_19first_argument_typeERKNSI_20second_argument_typeE(double, %"class.std::__1::complex"*)

declare { double, double } @_ZN3wrt9scalar_op6binaryL6mod_opIdNSt3__17complexIdEELNS_13runtime_flagsE1EEENS3_9enable_ifIXoosr10is_complexIT_EE5valuesr10is_complexIT0_EE5valueENS1_6detail7op_infoILNSA_2opE18EN7rt_typeIS8_E4typeENSD_IS9_E4typeEE11result_typeEE4typeERKNSI_19first_argument_typeERKNSI_20second_argument_typeE(double, %"class.std::__1::complex"*)

declare i64 @_ZN8vfun_modINSt3__17complexIdEEdS2_E7iterateILN3wrt13runtime_flagsE0ELS6_0EL15increment_class1EEExPS2_PKdPKS2_RKxPSD_(%"class.std::__1::complex"*, double*, %"class.std::__1::complex"*, i64*, i64*)

declare i64 @_ZN8vfun_modINSt3__17complexIdEEdS2_E7iterateILN3wrt13runtime_flagsE0ELS6_0EL15increment_class2EEExPS2_PKdPKS2_RKxPSD_(%"class.std::__1::complex"*, double*, %"class.std::__1::complex"*, i64*, i64*)

declare i64 @_ZN8vfun_modINSt3__17complexIdEEdS2_E7iterateILN3wrt13runtime_flagsE0ELS6_0EL15increment_class3EEExPS2_PKdPKS2_RKxPSD_(%"class.std::__1::complex"*, double*, %"class.std::__1::complex"*, i64*, i64*)

declare i64 @_ZN8vfun_modINSt3__17complexIdEEdS2_E7iterateILN3wrt13runtime_flagsE0ELS6_1EL15increment_class1EEExPS2_PKdPKS2_RKxPSD_(%"class.std::__1::complex"*, double*, %"class.std::__1::complex"*, i64*, i64*)

declare i64 @_ZN8vfun_modINSt3__17complexIdEEdS2_E7iterateILN3wrt13runtime_flagsE0ELS6_1EL15increment_class2EEExPS2_PKdPKS2_RKxPSD_(%"class.std::__1::complex"*, double*, %"class.std::__1::complex"*, i64*, i64*)

declare i64 @_ZN8vfun_modINSt3__17complexIdEEdS2_E7iterateILN3wrt13runtime_flagsE0ELS6_1EL15increment_class3EEExPS2_PKdPKS2_RKxPSD_(%"class.std::__1::complex"*, double*, %"class.std::__1::complex"*, i64*, i64*)

declare i64 @_ZN8vfun_modINSt3__17complexIdEEdS2_E7iterateILN3wrt13runtime_flagsE1ELS6_0EL15increment_class1EEExPS2_PKdPKS2_RKxPSD_(%"class.std::__1::complex"*, double*, %"class.std::__1::complex"*, i64*, i64*)

declare i64 @_ZN8vfun_modINSt3__17complexIdEEdS2_E7iterateILN3wrt13runtime_flagsE1ELS6_0EL15increment_class2EEExPS2_PKdPKS2_RKxPSD_(%"class.std::__1::complex"*, double*, %"class.std::__1::complex"*, i64*, i64*)

declare i64 @_ZN8vfun_modINSt3__17complexIdEEdS2_E7iterateILN3wrt13runtime_flagsE1ELS6_0EL15increment_class3EEExPS2_PKdPKS2_RKxPSD_(%"class.std::__1::complex"*, double*, %"class.std::__1::complex"*, i64*, i64*)

declare i64 @_ZN8vfun_modIdddE7iterateILN3wrt13runtime_flagsE1ELS3_0EL15increment_class0EEExPdPKdS7_RKxPS8_(double*, double*, double*, i64*, i64*)

declare i64 @_ZN8vfun_modIdddE7iterateILN3wrt13runtime_flagsE0ELS3_1EL15increment_class0EEExPdPKdS7_RKxPS8_(double*, double*, double*, i64*, i64*)

declare i64 @_ZN8vfun_modIdddE7iterateILN3wrt13runtime_flagsE0ELS3_0EL15increment_class0EEExPdPKdS7_RKxPS8_(double*, double*, double*, i64*, i64*)

declare i64 @_ZN8vfun_modIdddE7iterateILN3wrt13runtime_flagsE0ELS3_0EL15increment_class1EEExPdPKdS7_RKxPS8_(double*, double*, double*, i64*, i64*)

declare i64 @_ZN8vfun_modIdddE7iterateILN3wrt13runtime_flagsE0ELS3_0EL15increment_class2EEExPdPKdS7_RKxPS8_(double*, double*, double*, i64*, i64*)

declare i64 @_ZN8vfun_modIdddE7iterateILN3wrt13runtime_flagsE0ELS3_0EL15increment_class3EEExPdPKdS7_RKxPS8_(double*, double*, double*, i64*, i64*)

declare i64 @_ZN8vfun_modIdddE7iterateILN3wrt13runtime_flagsE0ELS3_1EL15increment_class1EEExPdPKdS7_RKxPS8_(double*, double*, double*, i64*, i64*)

declare i64 @_ZN8vfun_modIdddE7iterateILN3wrt13runtime_flagsE0ELS3_1EL15increment_class2EEExPdPKdS7_RKxPS8_(double*, double*, double*, i64*, i64*)

declare i64 @_ZN8vfun_modIdddE7iterateILN3wrt13runtime_flagsE0ELS3_1EL15increment_class3EEExPdPKdS7_RKxPS8_(double*, double*, double*, i64*, i64*)

declare i64 @_ZN8vfun_modIdddE7iterateILN3wrt13runtime_flagsE1ELS3_0EL15increment_class1EEExPdPKdS7_RKxPS8_(double*, double*, double*, i64*, i64*)

declare i64 @_ZN8vfun_modIdddE7iterateILN3wrt13runtime_flagsE1ELS3_0EL15increment_class2EEExPdPKdS7_RKxPS8_(double*, double*, double*, i64*, i64*)

declare i64 @_ZN8vfun_modIdddE7iterateILN3wrt13runtime_flagsE1ELS3_0EL15increment_class3EEExPdPKdS7_RKxPS8_(double*, double*, double*, i64*, i64*)

declare i64 @_ZN8vfun_modIddxE7iterateILN3wrt13runtime_flagsE1ELS3_0EL15increment_class0EEExPdPKdPKxRS8_S9_(double*, double*, i64*, i64*, i64*)

declare i64 @_ZN8vfun_modIddxE7iterateILN3wrt13runtime_flagsE0ELS3_1EL15increment_class0EEExPdPKdPKxRS8_S9_(double*, double*, i64*, i64*, i64*)

declare i64 @_ZN8vfun_modIddxE7iterateILN3wrt13runtime_flagsE0ELS3_0EL15increment_class0EEExPdPKdPKxRS8_S9_(double*, double*, i64*, i64*, i64*)

declare i64 @_ZN8vfun_modIddxE7iterateILN3wrt13runtime_flagsE0ELS3_0EL15increment_class1EEExPdPKdPKxRS8_S9_(double*, double*, i64*, i64*, i64*)

declare i64 @_ZN8vfun_modIddxE7iterateILN3wrt13runtime_flagsE0ELS3_0EL15increment_class2EEExPdPKdPKxRS8_S9_(double*, double*, i64*, i64*, i64*)

declare i64 @_ZN8vfun_modIddxE7iterateILN3wrt13runtime_flagsE0ELS3_0EL15increment_class3EEExPdPKdPKxRS8_S9_(double*, double*, i64*, i64*, i64*)

declare i64 @_ZN8vfun_modIddxE7iterateILN3wrt13runtime_flagsE0ELS3_1EL15increment_class1EEExPdPKdPKxRS8_S9_(double*, double*, i64*, i64*, i64*)

declare i64 @_ZN8vfun_modIddxE7iterateILN3wrt13runtime_flagsE0ELS3_1EL15increment_class2EEExPdPKdPKxRS8_S9_(double*, double*, i64*, i64*, i64*)

declare i64 @_ZN8vfun_modIddxE7iterateILN3wrt13runtime_flagsE0ELS3_1EL15increment_class3EEExPdPKdPKxRS8_S9_(double*, double*, i64*, i64*, i64*)

declare i64 @_ZN8vfun_modIddxE7iterateILN3wrt13runtime_flagsE1ELS3_0EL15increment_class1EEExPdPKdPKxRS8_S9_(double*, double*, i64*, i64*, i64*)

declare i64 @_ZN8vfun_modIddxE7iterateILN3wrt13runtime_flagsE1ELS3_0EL15increment_class2EEExPdPKdPKxRS8_S9_(double*, double*, i64*, i64*, i64*)

declare i64 @_ZN8vfun_modIddxE7iterateILN3wrt13runtime_flagsE1ELS3_0EL15increment_class3EEExPdPKdPKxRS8_S9_(double*, double*, i64*, i64*, i64*)

declare i64 @_ZN8vfun_modINSt3__17complexIdEExS2_E7iterateILN3wrt13runtime_flagsE1ELS6_0EL15increment_class0EEExPS2_PKxPKS2_RS9_SA_(%"class.std::__1::complex"*, i64*, %"class.std::__1::complex"*, i64*, i64*)

declare i64 @_ZN8vfun_modINSt3__17complexIdEExS2_E7iterateILN3wrt13runtime_flagsE0ELS6_1EL15increment_class0EEExPS2_PKxPKS2_RS9_SA_(%"class.std::__1::complex"*, i64*, %"class.std::__1::complex"*, i64*, i64*)

declare i64 @_ZN8vfun_modINSt3__17complexIdEExS2_E7iterateILN3wrt13runtime_flagsE0ELS6_0EL15increment_class0EEExPS2_PKxPKS2_RS9_SA_(%"class.std::__1::complex"*, i64*, %"class.std::__1::complex"*, i64*, i64*)

declare { double, double } @_ZN3wrt9scalar_op6binaryL6mod_opIxNSt3__17complexIdEELNS_13runtime_flagsE0EEENS3_9enable_ifIXoosr10is_complexIT_EE5valuesr10is_complexIT0_EE5valueENS1_6detail7op_infoILNSA_2opE18EN7rt_typeIS8_E4typeENSD_IS9_E4typeEE11result_typeEE4typeERKNSI_19first_argument_typeERKNSI_20second_argument_typeE(i64, %"class.std::__1::complex"*)

declare { double, double } @_ZN3wrt9scalar_op6binaryL6mod_opIxNSt3__17complexIdEELNS_13runtime_flagsE1EEENS3_9enable_ifIXoosr10is_complexIT_EE5valuesr10is_complexIT0_EE5valueENS1_6detail7op_infoILNSA_2opE18EN7rt_typeIS8_E4typeENSD_IS9_E4typeEE11result_typeEE4typeERKNSI_19first_argument_typeERKNSI_20second_argument_typeE(i64, %"class.std::__1::complex"*)

declare i64 @_ZN8vfun_modINSt3__17complexIdEExS2_E7iterateILN3wrt13runtime_flagsE0ELS6_0EL15increment_class1EEExPS2_PKxPKS2_RS9_SA_(%"class.std::__1::complex"*, i64*, %"class.std::__1::complex"*, i64*, i64*)

declare i64 @_ZN8vfun_modINSt3__17complexIdEExS2_E7iterateILN3wrt13runtime_flagsE0ELS6_0EL15increment_class2EEExPS2_PKxPKS2_RS9_SA_(%"class.std::__1::complex"*, i64*, %"class.std::__1::complex"*, i64*, i64*)

declare i64 @_ZN8vfun_modINSt3__17complexIdEExS2_E7iterateILN3wrt13runtime_flagsE0ELS6_0EL15increment_class3EEExPS2_PKxPKS2_RS9_SA_(%"class.std::__1::complex"*, i64*, %"class.std::__1::complex"*, i64*, i64*)

declare i64 @_ZN8vfun_modINSt3__17complexIdEExS2_E7iterateILN3wrt13runtime_flagsE0ELS6_1EL15increment_class1EEExPS2_PKxPKS2_RS9_SA_(%"class.std::__1::complex"*, i64*, %"class.std::__1::complex"*, i64*, i64*)

declare i64 @_ZN8vfun_modINSt3__17complexIdEExS2_E7iterateILN3wrt13runtime_flagsE0ELS6_1EL15increment_class2EEExPS2_PKxPKS2_RS9_SA_(%"class.std::__1::complex"*, i64*, %"class.std::__1::complex"*, i64*, i64*)

declare i64 @_ZN8vfun_modINSt3__17complexIdEExS2_E7iterateILN3wrt13runtime_flagsE0ELS6_1EL15increment_class3EEExPS2_PKxPKS2_RS9_SA_(%"class.std::__1::complex"*, i64*, %"class.std::__1::complex"*, i64*, i64*)

declare i64 @_ZN8vfun_modINSt3__17complexIdEExS2_E7iterateILN3wrt13runtime_flagsE1ELS6_0EL15increment_class1EEExPS2_PKxPKS2_RS9_SA_(%"class.std::__1::complex"*, i64*, %"class.std::__1::complex"*, i64*, i64*)

declare i64 @_ZN8vfun_modINSt3__17complexIdEExS2_E7iterateILN3wrt13runtime_flagsE1ELS6_0EL15increment_class2EEExPS2_PKxPKS2_RS9_SA_(%"class.std::__1::complex"*, i64*, %"class.std::__1::complex"*, i64*, i64*)

declare i64 @_ZN8vfun_modINSt3__17complexIdEExS2_E7iterateILN3wrt13runtime_flagsE1ELS6_0EL15increment_class3EEExPS2_PKxPKS2_RS9_SA_(%"class.std::__1::complex"*, i64*, %"class.std::__1::complex"*, i64*, i64*)

declare i64 @_ZN8vfun_modIdxdE7iterateILN3wrt13runtime_flagsE1ELS3_0EL15increment_class0EEExPdPKxPKdRS6_S7_(double*, i64*, double*, i64*, i64*)

declare i64 @_ZN8vfun_modIdxdE7iterateILN3wrt13runtime_flagsE0ELS3_1EL15increment_class0EEExPdPKxPKdRS6_S7_(double*, i64*, double*, i64*, i64*)

declare i64 @_ZN8vfun_modIdxdE7iterateILN3wrt13runtime_flagsE0ELS3_0EL15increment_class0EEExPdPKxPKdRS6_S7_(double*, i64*, double*, i64*, i64*)

declare i64 @_ZN8vfun_modIdxdE7iterateILN3wrt13runtime_flagsE0ELS3_0EL15increment_class1EEExPdPKxPKdRS6_S7_(double*, i64*, double*, i64*, i64*)

declare i64 @_ZN8vfun_modIdxdE7iterateILN3wrt13runtime_flagsE0ELS3_0EL15increment_class2EEExPdPKxPKdRS6_S7_(double*, i64*, double*, i64*, i64*)

declare i64 @_ZN8vfun_modIdxdE7iterateILN3wrt13runtime_flagsE0ELS3_0EL15increment_class3EEExPdPKxPKdRS6_S7_(double*, i64*, double*, i64*, i64*)

declare i64 @_ZN8vfun_modIdxdE7iterateILN3wrt13runtime_flagsE0ELS3_1EL15increment_class1EEExPdPKxPKdRS6_S7_(double*, i64*, double*, i64*, i64*)

declare i64 @_ZN8vfun_modIdxdE7iterateILN3wrt13runtime_flagsE0ELS3_1EL15increment_class2EEExPdPKxPKdRS6_S7_(double*, i64*, double*, i64*, i64*)

declare i64 @_ZN8vfun_modIdxdE7iterateILN3wrt13runtime_flagsE0ELS3_1EL15increment_class3EEExPdPKxPKdRS6_S7_(double*, i64*, double*, i64*, i64*)

declare i64 @_ZN8vfun_modIdxdE7iterateILN3wrt13runtime_flagsE1ELS3_0EL15increment_class1EEExPdPKxPKdRS6_S7_(double*, i64*, double*, i64*, i64*)

declare i64 @_ZN8vfun_modIdxdE7iterateILN3wrt13runtime_flagsE1ELS3_0EL15increment_class2EEExPdPKxPKdRS6_S7_(double*, i64*, double*, i64*, i64*)

declare i64 @_ZN8vfun_modIdxdE7iterateILN3wrt13runtime_flagsE1ELS3_0EL15increment_class3EEExPdPKxPKdRS6_S7_(double*, i64*, double*, i64*, i64*)

declare i64 @_ZN8vfun_modIxxxE7iterateILN3wrt13runtime_flagsE0ELS3_1EL15increment_class0EEExPxPKxS7_RS6_S7_(i64*, i64*, i64*, i64*, i64*)

declare i64 @_ZN8vfun_modIxxxE7iterateILN3wrt13runtime_flagsE0ELS3_0EL15increment_class0EEExPxPKxS7_RS6_S7_(i64*, i64*, i64*, i64*, i64*)

declare i64 @_ZN8vfun_modIxxxE7iterateILN3wrt13runtime_flagsE0ELS3_0EL15increment_class1EEExPxPKxS7_RS6_S7_(i64*, i64*, i64*, i64*, i64*)

declare i64 @_ZN8vfun_modIxxxE7iterateILN3wrt13runtime_flagsE0ELS3_0EL15increment_class2EEExPxPKxS7_RS6_S7_(i64*, i64*, i64*, i64*, i64*)

declare i64 @_ZN8vfun_modIxxxE7iterateILN3wrt13runtime_flagsE0ELS3_0EL15increment_class3EEExPxPKxS7_RS6_S7_(i64*, i64*, i64*, i64*, i64*)

declare i64 @_ZN8vfun_modIxxxE7iterateILN3wrt13runtime_flagsE0ELS3_1EL15increment_class1EEExPxPKxS7_RS6_S7_(i64*, i64*, i64*, i64*, i64*)

declare i64 @_ZN8vfun_modIxxxE7iterateILN3wrt13runtime_flagsE0ELS3_1EL15increment_class2EEExPxPKxS7_RS6_S7_(i64*, i64*, i64*, i64*, i64*)

declare i64 @_ZN8vfun_modIxxxE7iterateILN3wrt13runtime_flagsE0ELS3_1EL15increment_class3EEExPxPKxS7_RS6_S7_(i64*, i64*, i64*, i64*, i64*)

declare i64 @_ZN11vfun_divideINSt3__17complexIdEES2_S2_E7iterateILN3wrt13runtime_flagsE1ELS6_0EL15increment_class0EEExPS2_PKS2_SA_RKxPSB_(%"class.std::__1::complex"*, %"class.std::__1::complex"*, %"class.std::__1::complex"*, i64*, i64*)

declare i64 @_ZN11vfun_divideINSt3__17complexIdEES2_S2_E7iterateILN3wrt13runtime_flagsE0ELS6_1EL15increment_class0EEExPS2_PKS2_SA_RKxPSB_(%"class.std::__1::complex"*, %"class.std::__1::complex"*, %"class.std::__1::complex"*, i64*, i64*)

declare i64 @_ZN11vfun_divideINSt3__17complexIdEES2_S2_E7iterateILN3wrt13runtime_flagsE0ELS6_0EL15increment_class0EEExPS2_PKS2_SA_RKxPSB_(%"class.std::__1::complex"*, %"class.std::__1::complex"*, %"class.std::__1::complex"*, i64*, i64*)

declare i64 @_ZN11vfun_divideINSt3__17complexIdEES2_S2_E7iterateILN3wrt13runtime_flagsE0ELS6_0EL15increment_class1EEExPS2_PKS2_SA_RKxPSB_(%"class.std::__1::complex"*, %"class.std::__1::complex"*, %"class.std::__1::complex"*, i64*, i64*)

declare i64 @_ZN11vfun_divideINSt3__17complexIdEES2_S2_E7iterateILN3wrt13runtime_flagsE0ELS6_0EL15increment_class2EEExPS2_PKS2_SA_RKxPSB_(%"class.std::__1::complex"*, %"class.std::__1::complex"*, %"class.std::__1::complex"*, i64*, i64*)

declare i64 @_ZN11vfun_divideINSt3__17complexIdEES2_S2_E7iterateILN3wrt13runtime_flagsE0ELS6_0EL15increment_class3EEExPS2_PKS2_SA_RKxPSB_(%"class.std::__1::complex"*, %"class.std::__1::complex"*, %"class.std::__1::complex"*, i64*, i64*)

declare i32 @ippsDivC_64fc(%"class.std::__1::complex"*, double, double, %"class.std::__1::complex"*, i32)

declare void @vzDiv(i64, %"class.std::__1::complex"*, %"class.std::__1::complex"*, %"class.std::__1::complex"*)

declare i64 @_ZN11vfun_divideINSt3__17complexIdEES2_S2_E7iterateILN3wrt13runtime_flagsE0ELS6_1EL15increment_class1EEExPS2_PKS2_SA_RKxPSB_(%"class.std::__1::complex"*, %"class.std::__1::complex"*, %"class.std::__1::complex"*, i64*, i64*)

declare i64 @_ZN11vfun_divideINSt3__17complexIdEES2_S2_E7iterateILN3wrt13runtime_flagsE0ELS6_1EL15increment_class2EEExPS2_PKS2_SA_RKxPSB_(%"class.std::__1::complex"*, %"class.std::__1::complex"*, %"class.std::__1::complex"*, i64*, i64*)

declare i64 @_ZN11vfun_divideINSt3__17complexIdEES2_S2_E7iterateILN3wrt13runtime_flagsE0ELS6_1EL15increment_class3EEExPS2_PKS2_SA_RKxPSB_(%"class.std::__1::complex"*, %"class.std::__1::complex"*, %"class.std::__1::complex"*, i64*, i64*)

declare i64 @_ZN11vfun_divideINSt3__17complexIdEES2_S2_E7iterateILN3wrt13runtime_flagsE1ELS6_0EL15increment_class1EEExPS2_PKS2_SA_RKxPSB_(%"class.std::__1::complex"*, %"class.std::__1::complex"*, %"class.std::__1::complex"*, i64*, i64*)

declare i64 @_ZN11vfun_divideINSt3__17complexIdEES2_S2_E7iterateILN3wrt13runtime_flagsE1ELS6_0EL15increment_class2EEExPS2_PKS2_SA_RKxPSB_(%"class.std::__1::complex"*, %"class.std::__1::complex"*, %"class.std::__1::complex"*, i64*, i64*)

declare i64 @_ZN11vfun_divideINSt3__17complexIdEES2_S2_E7iterateILN3wrt13runtime_flagsE1ELS6_0EL15increment_class3EEExPS2_PKS2_SA_RKxPSB_(%"class.std::__1::complex"*, %"class.std::__1::complex"*, %"class.std::__1::complex"*, i64*, i64*)

declare i64 @_ZN11vfun_divideINSt3__17complexIdEES2_dE7iterateILN3wrt13runtime_flagsE1ELS6_0EL15increment_class0EEExPS2_PKS2_PKdRKxPSD_(%"class.std::__1::complex"*, %"class.std::__1::complex"*, double*, i64*, i64*)

declare i64 @_ZN11vfun_divideINSt3__17complexIdEES2_dE7iterateILN3wrt13runtime_flagsE0ELS6_1EL15increment_class0EEExPS2_PKS2_PKdRKxPSD_(%"class.std::__1::complex"*, %"class.std::__1::complex"*, double*, i64*, i64*)

declare i64 @_ZN11vfun_divideINSt3__17complexIdEES2_dE7iterateILN3wrt13runtime_flagsE0ELS6_0EL15increment_class0EEExPS2_PKS2_PKdRKxPSD_(%"class.std::__1::complex"*, %"class.std::__1::complex"*, double*, i64*, i64*)

declare { double, double } @_ZN3wrt9scalar_op6binaryL9divide_opINSt3__17complexIdEEdLNS_13runtime_flagsE1EEENS3_9enable_ifIXoosr28is_floating_point_or_complexIT_EE5valuesr28is_floating_point_or_complexIT0_EE5valueENS1_6detail7op_infoILNSA_2opE9EN7rt_typeIS8_E4typeENSD_IS9_E4typeEE11result_typeEE4typeERKNSI_19first_argument_typeERKNSI_20second_argument_typeE(%"class.std::__1::complex"*, double*)

declare i64 @_ZN11vfun_divideINSt3__17complexIdEES2_dE7iterateILN3wrt13runtime_flagsE0ELS6_0EL15increment_class1EEExPS2_PKS2_PKdRKxPSD_(%"class.std::__1::complex"*, %"class.std::__1::complex"*, double*, i64*, i64*)

declare i64 @_ZN11vfun_divideINSt3__17complexIdEES2_dE7iterateILN3wrt13runtime_flagsE0ELS6_0EL15increment_class2EEExPS2_PKS2_PKdRKxPSD_(%"class.std::__1::complex"*, %"class.std::__1::complex"*, double*, i64*, i64*)

declare i64 @_ZN11vfun_divideINSt3__17complexIdEES2_dE7iterateILN3wrt13runtime_flagsE0ELS6_0EL15increment_class3EEExPS2_PKS2_PKdRKxPSD_(%"class.std::__1::complex"*, %"class.std::__1::complex"*, double*, i64*, i64*)

declare i64 @_ZN11vfun_divideINSt3__17complexIdEES2_dE7iterateILN3wrt13runtime_flagsE0ELS6_1EL15increment_class1EEExPS2_PKS2_PKdRKxPSD_(%"class.std::__1::complex"*, %"class.std::__1::complex"*, double*, i64*, i64*)

declare i64 @_ZN11vfun_divideINSt3__17complexIdEES2_dE7iterateILN3wrt13runtime_flagsE0ELS6_1EL15increment_class2EEExPS2_PKS2_PKdRKxPSD_(%"class.std::__1::complex"*, %"class.std::__1::complex"*, double*, i64*, i64*)

declare i64 @_ZN11vfun_divideINSt3__17complexIdEES2_dE7iterateILN3wrt13runtime_flagsE0ELS6_1EL15increment_class3EEExPS2_PKS2_PKdRKxPSD_(%"class.std::__1::complex"*, %"class.std::__1::complex"*, double*, i64*, i64*)

declare i64 @_ZN11vfun_divideINSt3__17complexIdEES2_dE7iterateILN3wrt13runtime_flagsE1ELS6_0EL15increment_class1EEExPS2_PKS2_PKdRKxPSD_(%"class.std::__1::complex"*, %"class.std::__1::complex"*, double*, i64*, i64*)

declare i64 @_ZN11vfun_divideINSt3__17complexIdEES2_dE7iterateILN3wrt13runtime_flagsE1ELS6_0EL15increment_class2EEExPS2_PKS2_PKdRKxPSD_(%"class.std::__1::complex"*, %"class.std::__1::complex"*, double*, i64*, i64*)

declare i64 @_ZN11vfun_divideINSt3__17complexIdEES2_dE7iterateILN3wrt13runtime_flagsE1ELS6_0EL15increment_class3EEExPS2_PKS2_PKdRKxPSD_(%"class.std::__1::complex"*, %"class.std::__1::complex"*, double*, i64*, i64*)

declare i64 @_ZN11vfun_divideINSt3__17complexIdEES2_xE7iterateILN3wrt13runtime_flagsE1ELS6_0EL15increment_class0EEExPS2_PKS2_PKxRSB_SC_(%"class.std::__1::complex"*, %"class.std::__1::complex"*, i64*, i64*, i64*)

declare i64 @_ZN11vfun_divideINSt3__17complexIdEES2_xE7iterateILN3wrt13runtime_flagsE0ELS6_1EL15increment_class0EEExPS2_PKS2_PKxRSB_SC_(%"class.std::__1::complex"*, %"class.std::__1::complex"*, i64*, i64*, i64*)

declare i64 @_ZN11vfun_divideINSt3__17complexIdEES2_xE7iterateILN3wrt13runtime_flagsE0ELS6_0EL15increment_class0EEExPS2_PKS2_PKxRSB_SC_(%"class.std::__1::complex"*, %"class.std::__1::complex"*, i64*, i64*, i64*)

declare { double, double } @_ZN3wrt9scalar_op6binaryL9divide_opINSt3__17complexIdEExLNS_13runtime_flagsE1EEENS3_9enable_ifIXoosr28is_floating_point_or_complexIT_EE5valuesr28is_floating_point_or_complexIT0_EE5valueENS1_6detail7op_infoILNSA_2opE9EN7rt_typeIS8_E4typeENSD_IS9_E4typeEE11result_typeEE4typeERKNSI_19first_argument_typeERKNSI_20second_argument_typeE(%"class.std::__1::complex"*, i64)

declare i64 @_ZN11vfun_divideINSt3__17complexIdEES2_xE7iterateILN3wrt13runtime_flagsE0ELS6_0EL15increment_class1EEExPS2_PKS2_PKxRSB_SC_(%"class.std::__1::complex"*, %"class.std::__1::complex"*, i64*, i64*, i64*)

declare i64 @_ZN11vfun_divideINSt3__17complexIdEES2_xE7iterateILN3wrt13runtime_flagsE0ELS6_0EL15increment_class2EEExPS2_PKS2_PKxRSB_SC_(%"class.std::__1::complex"*, %"class.std::__1::complex"*, i64*, i64*, i64*)

declare i64 @_ZN11vfun_divideINSt3__17complexIdEES2_xE7iterateILN3wrt13runtime_flagsE0ELS6_0EL15increment_class3EEExPS2_PKS2_PKxRSB_SC_(%"class.std::__1::complex"*, %"class.std::__1::complex"*, i64*, i64*, i64*)

declare i64 @_ZN11vfun_divideINSt3__17complexIdEES2_xE7iterateILN3wrt13runtime_flagsE0ELS6_1EL15increment_class1EEExPS2_PKS2_PKxRSB_SC_(%"class.std::__1::complex"*, %"class.std::__1::complex"*, i64*, i64*, i64*)

declare i64 @_ZN11vfun_divideINSt3__17complexIdEES2_xE7iterateILN3wrt13runtime_flagsE0ELS6_1EL15increment_class2EEExPS2_PKS2_PKxRSB_SC_(%"class.std::__1::complex"*, %"class.std::__1::complex"*, i64*, i64*, i64*)

declare i64 @_ZN11vfun_divideINSt3__17complexIdEES2_xE7iterateILN3wrt13runtime_flagsE0ELS6_1EL15increment_class3EEExPS2_PKS2_PKxRSB_SC_(%"class.std::__1::complex"*, %"class.std::__1::complex"*, i64*, i64*, i64*)

declare i64 @_ZN11vfun_divideINSt3__17complexIdEES2_xE7iterateILN3wrt13runtime_flagsE1ELS6_0EL15increment_class1EEExPS2_PKS2_PKxRSB_SC_(%"class.std::__1::complex"*, %"class.std::__1::complex"*, i64*, i64*, i64*)

declare i64 @_ZN11vfun_divideINSt3__17complexIdEES2_xE7iterateILN3wrt13runtime_flagsE1ELS6_0EL15increment_class2EEExPS2_PKS2_PKxRSB_SC_(%"class.std::__1::complex"*, %"class.std::__1::complex"*, i64*, i64*, i64*)

declare i64 @_ZN11vfun_divideINSt3__17complexIdEES2_xE7iterateILN3wrt13runtime_flagsE1ELS6_0EL15increment_class3EEExPS2_PKS2_PKxRSB_SC_(%"class.std::__1::complex"*, %"class.std::__1::complex"*, i64*, i64*, i64*)

declare i64 @_ZN11vfun_divideINSt3__17complexIdEEdS2_E7iterateILN3wrt13runtime_flagsE1ELS6_0EL15increment_class0EEExPS2_PKdPKS2_RKxPSD_(%"class.std::__1::complex"*, double*, %"class.std::__1::complex"*, i64*, i64*)

declare i64 @_ZN11vfun_divideINSt3__17complexIdEEdS2_E7iterateILN3wrt13runtime_flagsE0ELS6_1EL15increment_class0EEExPS2_PKdPKS2_RKxPSD_(%"class.std::__1::complex"*, double*, %"class.std::__1::complex"*, i64*, i64*)

declare i64 @_ZN11vfun_divideINSt3__17complexIdEEdS2_E7iterateILN3wrt13runtime_flagsE0ELS6_0EL15increment_class0EEExPS2_PKdPKS2_RKxPSD_(%"class.std::__1::complex"*, double*, %"class.std::__1::complex"*, i64*, i64*)

declare { double, double } @_ZN3wrt9scalar_op6binaryL9divide_opIdNSt3__17complexIdEELNS_13runtime_flagsE1EEENS3_9enable_ifIXoosr28is_floating_point_or_complexIT_EE5valuesr28is_floating_point_or_complexIT0_EE5valueENS1_6detail7op_infoILNSA_2opE9EN7rt_typeIS8_E4typeENSD_IS9_E4typeEE11result_typeEE4typeERKNSI_19first_argument_typeERKNSI_20second_argument_typeE(double*, %"class.std::__1::complex"*)

declare i64 @_ZN11vfun_divideINSt3__17complexIdEEdS2_E7iterateILN3wrt13runtime_flagsE0ELS6_0EL15increment_class1EEExPS2_PKdPKS2_RKxPSD_(%"class.std::__1::complex"*, double*, %"class.std::__1::complex"*, i64*, i64*)

declare i64 @_ZN11vfun_divideINSt3__17complexIdEEdS2_E7iterateILN3wrt13runtime_flagsE0ELS6_0EL15increment_class2EEExPS2_PKdPKS2_RKxPSD_(%"class.std::__1::complex"*, double*, %"class.std::__1::complex"*, i64*, i64*)

declare i64 @_ZN11vfun_divideINSt3__17complexIdEEdS2_E7iterateILN3wrt13runtime_flagsE0ELS6_0EL15increment_class3EEExPS2_PKdPKS2_RKxPSD_(%"class.std::__1::complex"*, double*, %"class.std::__1::complex"*, i64*, i64*)

declare i64 @_ZN11vfun_divideINSt3__17complexIdEEdS2_E7iterateILN3wrt13runtime_flagsE0ELS6_1EL15increment_class1EEExPS2_PKdPKS2_RKxPSD_(%"class.std::__1::complex"*, double*, %"class.std::__1::complex"*, i64*, i64*)

declare i64 @_ZN11vfun_divideINSt3__17complexIdEEdS2_E7iterateILN3wrt13runtime_flagsE0ELS6_1EL15increment_class2EEExPS2_PKdPKS2_RKxPSD_(%"class.std::__1::complex"*, double*, %"class.std::__1::complex"*, i64*, i64*)

declare i64 @_ZN11vfun_divideINSt3__17complexIdEEdS2_E7iterateILN3wrt13runtime_flagsE0ELS6_1EL15increment_class3EEExPS2_PKdPKS2_RKxPSD_(%"class.std::__1::complex"*, double*, %"class.std::__1::complex"*, i64*, i64*)

declare i64 @_ZN11vfun_divideINSt3__17complexIdEEdS2_E7iterateILN3wrt13runtime_flagsE1ELS6_0EL15increment_class1EEExPS2_PKdPKS2_RKxPSD_(%"class.std::__1::complex"*, double*, %"class.std::__1::complex"*, i64*, i64*)

declare i64 @_ZN11vfun_divideINSt3__17complexIdEEdS2_E7iterateILN3wrt13runtime_flagsE1ELS6_0EL15increment_class2EEExPS2_PKdPKS2_RKxPSD_(%"class.std::__1::complex"*, double*, %"class.std::__1::complex"*, i64*, i64*)

declare i64 @_ZN11vfun_divideINSt3__17complexIdEEdS2_E7iterateILN3wrt13runtime_flagsE1ELS6_0EL15increment_class3EEExPS2_PKdPKS2_RKxPSD_(%"class.std::__1::complex"*, double*, %"class.std::__1::complex"*, i64*, i64*)

declare i64 @_ZN11vfun_divideIdddE7iterateILN3wrt13runtime_flagsE1ELS3_0EL15increment_class0EEExPdPKdS7_RKxPS8_(double*, double*, double*, i64*, i64*)

declare i64 @_ZN11vfun_divideIdddE7iterateILN3wrt13runtime_flagsE0ELS3_1EL15increment_class0EEExPdPKdS7_RKxPS8_(double*, double*, double*, i64*, i64*)

declare i64 @_ZN11vfun_divideIdddE7iterateILN3wrt13runtime_flagsE0ELS3_0EL15increment_class0EEExPdPKdS7_RKxPS8_(double*, double*, double*, i64*, i64*)

declare i64 @_ZN11vfun_divideIdddE7iterateILN3wrt13runtime_flagsE0ELS3_0EL15increment_class1EEExPdPKdS7_RKxPS8_(double*, double*, double*, i64*, i64*)

declare i64 @_ZN11vfun_divideIdddE7iterateILN3wrt13runtime_flagsE0ELS3_0EL15increment_class2EEExPdPKdS7_RKxPS8_(double*, double*, double*, i64*, i64*)

declare i64 @_ZN11vfun_divideIdddE7iterateILN3wrt13runtime_flagsE0ELS3_0EL15increment_class3EEExPdPKdS7_RKxPS8_(double*, double*, double*, i64*, i64*)

declare i32 @ippsDivC_64f(double*, double, double*, i32)

declare void @vdDiv(i64, double*, double*, double*)

declare i64 @_ZN11vfun_divideIdddE7iterateILN3wrt13runtime_flagsE0ELS3_1EL15increment_class1EEExPdPKdS7_RKxPS8_(double*, double*, double*, i64*, i64*)

declare i64 @_ZN11vfun_divideIdddE7iterateILN3wrt13runtime_flagsE0ELS3_1EL15increment_class2EEExPdPKdS7_RKxPS8_(double*, double*, double*, i64*, i64*)

declare i64 @_ZN11vfun_divideIdddE7iterateILN3wrt13runtime_flagsE0ELS3_1EL15increment_class3EEExPdPKdS7_RKxPS8_(double*, double*, double*, i64*, i64*)

declare i64 @_ZN11vfun_divideIdddE7iterateILN3wrt13runtime_flagsE1ELS3_0EL15increment_class1EEExPdPKdS7_RKxPS8_(double*, double*, double*, i64*, i64*)

declare i64 @_ZN11vfun_divideIdddE7iterateILN3wrt13runtime_flagsE1ELS3_0EL15increment_class2EEExPdPKdS7_RKxPS8_(double*, double*, double*, i64*, i64*)

declare i64 @_ZN11vfun_divideIdddE7iterateILN3wrt13runtime_flagsE1ELS3_0EL15increment_class3EEExPdPKdS7_RKxPS8_(double*, double*, double*, i64*, i64*)

declare i64 @_ZN11vfun_divideIddxE7iterateILN3wrt13runtime_flagsE1ELS3_0EL15increment_class0EEExPdPKdPKxRS8_S9_(double*, double*, i64*, i64*, i64*)

declare i64 @_ZN11vfun_divideIddxE7iterateILN3wrt13runtime_flagsE0ELS3_1EL15increment_class0EEExPdPKdPKxRS8_S9_(double*, double*, i64*, i64*, i64*)

declare i64 @_ZN11vfun_divideIddxE7iterateILN3wrt13runtime_flagsE0ELS3_0EL15increment_class0EEExPdPKdPKxRS8_S9_(double*, double*, i64*, i64*, i64*)

declare i64 @_ZN11vfun_divideIddxE7iterateILN3wrt13runtime_flagsE0ELS3_0EL15increment_class1EEExPdPKdPKxRS8_S9_(double*, double*, i64*, i64*, i64*)

declare i64 @_ZN11vfun_divideIddxE7iterateILN3wrt13runtime_flagsE0ELS3_0EL15increment_class2EEExPdPKdPKxRS8_S9_(double*, double*, i64*, i64*, i64*)

declare i64 @_ZN11vfun_divideIddxE7iterateILN3wrt13runtime_flagsE0ELS3_0EL15increment_class3EEExPdPKdPKxRS8_S9_(double*, double*, i64*, i64*, i64*)

declare i64 @_ZN11vfun_divideIddxE7iterateILN3wrt13runtime_flagsE0ELS3_1EL15increment_class1EEExPdPKdPKxRS8_S9_(double*, double*, i64*, i64*, i64*)

declare i64 @_ZN11vfun_divideIddxE7iterateILN3wrt13runtime_flagsE0ELS3_1EL15increment_class2EEExPdPKdPKxRS8_S9_(double*, double*, i64*, i64*, i64*)

declare i64 @_ZN11vfun_divideIddxE7iterateILN3wrt13runtime_flagsE0ELS3_1EL15increment_class3EEExPdPKdPKxRS8_S9_(double*, double*, i64*, i64*, i64*)

declare i64 @_ZN11vfun_divideIddxE7iterateILN3wrt13runtime_flagsE1ELS3_0EL15increment_class1EEExPdPKdPKxRS8_S9_(double*, double*, i64*, i64*, i64*)

declare i64 @_ZN11vfun_divideIddxE7iterateILN3wrt13runtime_flagsE1ELS3_0EL15increment_class2EEExPdPKdPKxRS8_S9_(double*, double*, i64*, i64*, i64*)

declare i64 @_ZN11vfun_divideIddxE7iterateILN3wrt13runtime_flagsE1ELS3_0EL15increment_class3EEExPdPKdPKxRS8_S9_(double*, double*, i64*, i64*, i64*)

declare i64 @_ZN11vfun_divideINSt3__17complexIdEExS2_E7iterateILN3wrt13runtime_flagsE1ELS6_0EL15increment_class0EEExPS2_PKxPKS2_RS9_SA_(%"class.std::__1::complex"*, i64*, %"class.std::__1::complex"*, i64*, i64*)

declare i64 @_ZN11vfun_divideINSt3__17complexIdEExS2_E7iterateILN3wrt13runtime_flagsE0ELS6_1EL15increment_class0EEExPS2_PKxPKS2_RS9_SA_(%"class.std::__1::complex"*, i64*, %"class.std::__1::complex"*, i64*, i64*)

declare i64 @_ZN11vfun_divideINSt3__17complexIdEExS2_E7iterateILN3wrt13runtime_flagsE0ELS6_0EL15increment_class0EEExPS2_PKxPKS2_RS9_SA_(%"class.std::__1::complex"*, i64*, %"class.std::__1::complex"*, i64*, i64*)

declare { double, double } @_ZN3wrt9scalar_op6binaryL9divide_opIxNSt3__17complexIdEELNS_13runtime_flagsE1EEENS3_9enable_ifIXoosr28is_floating_point_or_complexIT_EE5valuesr28is_floating_point_or_complexIT0_EE5valueENS1_6detail7op_infoILNSA_2opE9EN7rt_typeIS8_E4typeENSD_IS9_E4typeEE11result_typeEE4typeERKNSI_19first_argument_typeERKNSI_20second_argument_typeE(i64, %"class.std::__1::complex"*)

declare i64 @_ZN11vfun_divideINSt3__17complexIdEExS2_E7iterateILN3wrt13runtime_flagsE0ELS6_0EL15increment_class1EEExPS2_PKxPKS2_RS9_SA_(%"class.std::__1::complex"*, i64*, %"class.std::__1::complex"*, i64*, i64*)

declare i64 @_ZN11vfun_divideINSt3__17complexIdEExS2_E7iterateILN3wrt13runtime_flagsE0ELS6_0EL15increment_class2EEExPS2_PKxPKS2_RS9_SA_(%"class.std::__1::complex"*, i64*, %"class.std::__1::complex"*, i64*, i64*)

declare i64 @_ZN11vfun_divideINSt3__17complexIdEExS2_E7iterateILN3wrt13runtime_flagsE0ELS6_0EL15increment_class3EEExPS2_PKxPKS2_RS9_SA_(%"class.std::__1::complex"*, i64*, %"class.std::__1::complex"*, i64*, i64*)

declare i64 @_ZN11vfun_divideINSt3__17complexIdEExS2_E7iterateILN3wrt13runtime_flagsE0ELS6_1EL15increment_class1EEExPS2_PKxPKS2_RS9_SA_(%"class.std::__1::complex"*, i64*, %"class.std::__1::complex"*, i64*, i64*)

declare i64 @_ZN11vfun_divideINSt3__17complexIdEExS2_E7iterateILN3wrt13runtime_flagsE0ELS6_1EL15increment_class2EEExPS2_PKxPKS2_RS9_SA_(%"class.std::__1::complex"*, i64*, %"class.std::__1::complex"*, i64*, i64*)

declare i64 @_ZN11vfun_divideINSt3__17complexIdEExS2_E7iterateILN3wrt13runtime_flagsE0ELS6_1EL15increment_class3EEExPS2_PKxPKS2_RS9_SA_(%"class.std::__1::complex"*, i64*, %"class.std::__1::complex"*, i64*, i64*)

declare i64 @_ZN11vfun_divideINSt3__17complexIdEExS2_E7iterateILN3wrt13runtime_flagsE1ELS6_0EL15increment_class1EEExPS2_PKxPKS2_RS9_SA_(%"class.std::__1::complex"*, i64*, %"class.std::__1::complex"*, i64*, i64*)

declare i64 @_ZN11vfun_divideINSt3__17complexIdEExS2_E7iterateILN3wrt13runtime_flagsE1ELS6_0EL15increment_class2EEExPS2_PKxPKS2_RS9_SA_(%"class.std::__1::complex"*, i64*, %"class.std::__1::complex"*, i64*, i64*)

declare i64 @_ZN11vfun_divideINSt3__17complexIdEExS2_E7iterateILN3wrt13runtime_flagsE1ELS6_0EL15increment_class3EEExPS2_PKxPKS2_RS9_SA_(%"class.std::__1::complex"*, i64*, %"class.std::__1::complex"*, i64*, i64*)

declare i64 @_ZN11vfun_divideIdxdE7iterateILN3wrt13runtime_flagsE1ELS3_0EL15increment_class0EEExPdPKxPKdRS6_S7_(double*, i64*, double*, i64*, i64*)

declare i64 @_ZN11vfun_divideIdxdE7iterateILN3wrt13runtime_flagsE0ELS3_1EL15increment_class0EEExPdPKxPKdRS6_S7_(double*, i64*, double*, i64*, i64*)

declare i64 @_ZN11vfun_divideIdxdE7iterateILN3wrt13runtime_flagsE0ELS3_0EL15increment_class0EEExPdPKxPKdRS6_S7_(double*, i64*, double*, i64*, i64*)

declare i64 @_ZN11vfun_divideIdxdE7iterateILN3wrt13runtime_flagsE0ELS3_0EL15increment_class1EEExPdPKxPKdRS6_S7_(double*, i64*, double*, i64*, i64*)

declare i64 @_ZN11vfun_divideIdxdE7iterateILN3wrt13runtime_flagsE0ELS3_0EL15increment_class2EEExPdPKxPKdRS6_S7_(double*, i64*, double*, i64*, i64*)

declare i64 @_ZN11vfun_divideIdxdE7iterateILN3wrt13runtime_flagsE0ELS3_0EL15increment_class3EEExPdPKxPKdRS6_S7_(double*, i64*, double*, i64*, i64*)

declare i64 @_ZN11vfun_divideIdxdE7iterateILN3wrt13runtime_flagsE0ELS3_1EL15increment_class1EEExPdPKxPKdRS6_S7_(double*, i64*, double*, i64*, i64*)

declare i64 @_ZN11vfun_divideIdxdE7iterateILN3wrt13runtime_flagsE0ELS3_1EL15increment_class2EEExPdPKxPKdRS6_S7_(double*, i64*, double*, i64*, i64*)

declare i64 @_ZN11vfun_divideIdxdE7iterateILN3wrt13runtime_flagsE0ELS3_1EL15increment_class3EEExPdPKxPKdRS6_S7_(double*, i64*, double*, i64*, i64*)

declare i64 @_ZN11vfun_divideIdxdE7iterateILN3wrt13runtime_flagsE1ELS3_0EL15increment_class1EEExPdPKxPKdRS6_S7_(double*, i64*, double*, i64*, i64*)

declare i64 @_ZN11vfun_divideIdxdE7iterateILN3wrt13runtime_flagsE1ELS3_0EL15increment_class2EEExPdPKxPKdRS6_S7_(double*, i64*, double*, i64*, i64*)

declare i64 @_ZN11vfun_divideIdxdE7iterateILN3wrt13runtime_flagsE1ELS3_0EL15increment_class3EEExPdPKxPKdRS6_S7_(double*, i64*, double*, i64*, i64*)

declare i64 @_ZN10vfun_timesINSt3__17complexIdEES2_S2_E7iterateILN3wrt13runtime_flagsE1ELS6_0EL15increment_class0EEExPS2_PKS2_SA_RKxPSB_(%"class.std::__1::complex"*, %"class.std::__1::complex"*, %"class.std::__1::complex"*, i64*, i64*)

declare i64 @_ZN10vfun_timesINSt3__17complexIdEES2_S2_E7iterateILN3wrt13runtime_flagsE0ELS6_1EL15increment_class0EEExPS2_PKS2_SA_RKxPSB_(%"class.std::__1::complex"*, %"class.std::__1::complex"*, %"class.std::__1::complex"*, i64*, i64*)

declare i64 @_ZN10vfun_timesINSt3__17complexIdEES2_S2_E7iterateILN3wrt13runtime_flagsE0ELS6_0EL15increment_class0EEExPS2_PKS2_SA_RKxPSB_(%"class.std::__1::complex"*, %"class.std::__1::complex"*, %"class.std::__1::complex"*, i64*, i64*)

declare { double, double } @_ZN3wrt9scalar_op6binaryL8times_opINSt3__17complexIdEES5_LNS_13runtime_flagsE1EEENS3_9enable_ifIXoosr28is_floating_point_or_complexIT_EE5valuesr28is_floating_point_or_complexIT0_EE5valueENS1_6detail7op_infoILNSA_2opE26EN7rt_typeIS8_E4typeENSD_IS9_E4typeEE11result_typeEE4typeERKNSI_19first_argument_typeERKNSI_20second_argument_typeE(%"class.std::__1::complex"*, %"class.std::__1::complex"*)

declare i64 @_ZN10vfun_timesINSt3__17complexIdEES2_S2_E7iterateILN3wrt13runtime_flagsE0ELS6_0EL15increment_class1EEExPS2_PKS2_SA_RKxPSB_(%"class.std::__1::complex"*, %"class.std::__1::complex"*, %"class.std::__1::complex"*, i64*, i64*)

declare i64 @_ZN10vfun_timesINSt3__17complexIdEES2_S2_E7iterateILN3wrt13runtime_flagsE0ELS6_0EL15increment_class2EEExPS2_PKS2_SA_RKxPSB_(%"class.std::__1::complex"*, %"class.std::__1::complex"*, %"class.std::__1::complex"*, i64*, i64*)

declare i64 @_ZN10vfun_timesINSt3__17complexIdEES2_S2_E7iterateILN3wrt13runtime_flagsE0ELS6_0EL15increment_class3EEExPS2_PKS2_SA_RKxPSB_(%"class.std::__1::complex"*, %"class.std::__1::complex"*, %"class.std::__1::complex"*, i64*, i64*)

declare i32 @ippsMulC_64fc(%"class.std::__1::complex"*, double, double, %"class.std::__1::complex"*, i32)

declare void @vzMul(i64, %"class.std::__1::complex"*, %"class.std::__1::complex"*, %"class.std::__1::complex"*)

declare i64 @_ZN10vfun_timesINSt3__17complexIdEES2_S2_E7iterateILN3wrt13runtime_flagsE0ELS6_1EL15increment_class1EEExPS2_PKS2_SA_RKxPSB_(%"class.std::__1::complex"*, %"class.std::__1::complex"*, %"class.std::__1::complex"*, i64*, i64*)

declare i64 @_ZN10vfun_timesINSt3__17complexIdEES2_S2_E7iterateILN3wrt13runtime_flagsE0ELS6_1EL15increment_class2EEExPS2_PKS2_SA_RKxPSB_(%"class.std::__1::complex"*, %"class.std::__1::complex"*, %"class.std::__1::complex"*, i64*, i64*)

declare i64 @_ZN10vfun_timesINSt3__17complexIdEES2_S2_E7iterateILN3wrt13runtime_flagsE0ELS6_1EL15increment_class3EEExPS2_PKS2_SA_RKxPSB_(%"class.std::__1::complex"*, %"class.std::__1::complex"*, %"class.std::__1::complex"*, i64*, i64*)

declare i64 @_ZN10vfun_timesINSt3__17complexIdEES2_S2_E7iterateILN3wrt13runtime_flagsE1ELS6_0EL15increment_class1EEExPS2_PKS2_SA_RKxPSB_(%"class.std::__1::complex"*, %"class.std::__1::complex"*, %"class.std::__1::complex"*, i64*, i64*)

declare i64 @_ZN10vfun_timesINSt3__17complexIdEES2_S2_E7iterateILN3wrt13runtime_flagsE1ELS6_0EL15increment_class2EEExPS2_PKS2_SA_RKxPSB_(%"class.std::__1::complex"*, %"class.std::__1::complex"*, %"class.std::__1::complex"*, i64*, i64*)

declare i64 @_ZN10vfun_timesINSt3__17complexIdEES2_S2_E7iterateILN3wrt13runtime_flagsE1ELS6_0EL15increment_class3EEExPS2_PKS2_SA_RKxPSB_(%"class.std::__1::complex"*, %"class.std::__1::complex"*, %"class.std::__1::complex"*, i64*, i64*)

declare i64 @_ZN10vfun_timesINSt3__17complexIdEES2_dE7iterateILN3wrt13runtime_flagsE1ELS6_0EL15increment_class0EEExPS2_PKS2_PKdRKxPSD_(%"class.std::__1::complex"*, %"class.std::__1::complex"*, double*, i64*, i64*)

declare i64 @_ZN10vfun_timesINSt3__17complexIdEES2_dE7iterateILN3wrt13runtime_flagsE0ELS6_1EL15increment_class0EEExPS2_PKS2_PKdRKxPSD_(%"class.std::__1::complex"*, %"class.std::__1::complex"*, double*, i64*, i64*)

declare i64 @_ZN10vfun_timesINSt3__17complexIdEES2_dE7iterateILN3wrt13runtime_flagsE0ELS6_0EL15increment_class0EEExPS2_PKS2_PKdRKxPSD_(%"class.std::__1::complex"*, %"class.std::__1::complex"*, double*, i64*, i64*)

declare { double, double } @_ZN3wrt9scalar_op6binaryL8times_opINSt3__17complexIdEEdLNS_13runtime_flagsE1EEENS3_9enable_ifIXoosr28is_floating_point_or_complexIT_EE5valuesr28is_floating_point_or_complexIT0_EE5valueENS1_6detail7op_infoILNSA_2opE26EN7rt_typeIS8_E4typeENSD_IS9_E4typeEE11result_typeEE4typeERKNSI_19first_argument_typeERKNSI_20second_argument_typeE(%"class.std::__1::complex"*, double*)

declare i64 @_ZN10vfun_timesINSt3__17complexIdEES2_dE7iterateILN3wrt13runtime_flagsE0ELS6_0EL15increment_class1EEExPS2_PKS2_PKdRKxPSD_(%"class.std::__1::complex"*, %"class.std::__1::complex"*, double*, i64*, i64*)

declare i64 @_ZN10vfun_timesINSt3__17complexIdEES2_dE7iterateILN3wrt13runtime_flagsE0ELS6_0EL15increment_class2EEExPS2_PKS2_PKdRKxPSD_(%"class.std::__1::complex"*, %"class.std::__1::complex"*, double*, i64*, i64*)

declare i64 @_ZN10vfun_timesINSt3__17complexIdEES2_dE7iterateILN3wrt13runtime_flagsE0ELS6_0EL15increment_class3EEExPS2_PKS2_PKdRKxPSD_(%"class.std::__1::complex"*, %"class.std::__1::complex"*, double*, i64*, i64*)

declare i64 @_ZN10vfun_timesINSt3__17complexIdEES2_dE7iterateILN3wrt13runtime_flagsE0ELS6_1EL15increment_class1EEExPS2_PKS2_PKdRKxPSD_(%"class.std::__1::complex"*, %"class.std::__1::complex"*, double*, i64*, i64*)

declare i64 @_ZN10vfun_timesINSt3__17complexIdEES2_dE7iterateILN3wrt13runtime_flagsE0ELS6_1EL15increment_class2EEExPS2_PKS2_PKdRKxPSD_(%"class.std::__1::complex"*, %"class.std::__1::complex"*, double*, i64*, i64*)

declare i64 @_ZN10vfun_timesINSt3__17complexIdEES2_dE7iterateILN3wrt13runtime_flagsE0ELS6_1EL15increment_class3EEExPS2_PKS2_PKdRKxPSD_(%"class.std::__1::complex"*, %"class.std::__1::complex"*, double*, i64*, i64*)

declare i64 @_ZN10vfun_timesINSt3__17complexIdEES2_dE7iterateILN3wrt13runtime_flagsE1ELS6_0EL15increment_class1EEExPS2_PKS2_PKdRKxPSD_(%"class.std::__1::complex"*, %"class.std::__1::complex"*, double*, i64*, i64*)

declare i64 @_ZN10vfun_timesINSt3__17complexIdEES2_dE7iterateILN3wrt13runtime_flagsE1ELS6_0EL15increment_class2EEExPS2_PKS2_PKdRKxPSD_(%"class.std::__1::complex"*, %"class.std::__1::complex"*, double*, i64*, i64*)

declare i64 @_ZN10vfun_timesINSt3__17complexIdEES2_dE7iterateILN3wrt13runtime_flagsE1ELS6_0EL15increment_class3EEExPS2_PKS2_PKdRKxPSD_(%"class.std::__1::complex"*, %"class.std::__1::complex"*, double*, i64*, i64*)

declare i64 @_ZN10vfun_timesINSt3__17complexIdEES2_xE7iterateILN3wrt13runtime_flagsE1ELS6_0EL15increment_class0EEExPS2_PKS2_PKxRSB_SC_(%"class.std::__1::complex"*, %"class.std::__1::complex"*, i64*, i64*, i64*)

declare i64 @_ZN10vfun_timesINSt3__17complexIdEES2_xE7iterateILN3wrt13runtime_flagsE0ELS6_1EL15increment_class0EEExPS2_PKS2_PKxRSB_SC_(%"class.std::__1::complex"*, %"class.std::__1::complex"*, i64*, i64*, i64*)

declare i64 @_ZN10vfun_timesINSt3__17complexIdEES2_xE7iterateILN3wrt13runtime_flagsE0ELS6_0EL15increment_class0EEExPS2_PKS2_PKxRSB_SC_(%"class.std::__1::complex"*, %"class.std::__1::complex"*, i64*, i64*, i64*)

declare { double, double } @_ZN3wrt9scalar_op6binaryL8times_opINSt3__17complexIdEExLNS_13runtime_flagsE1EEENS3_9enable_ifIXoosr28is_floating_point_or_complexIT_EE5valuesr28is_floating_point_or_complexIT0_EE5valueENS1_6detail7op_infoILNSA_2opE26EN7rt_typeIS8_E4typeENSD_IS9_E4typeEE11result_typeEE4typeERKNSI_19first_argument_typeERKNSI_20second_argument_typeE(%"class.std::__1::complex"*, i64)

declare i64 @_ZN10vfun_timesINSt3__17complexIdEES2_xE7iterateILN3wrt13runtime_flagsE0ELS6_0EL15increment_class1EEExPS2_PKS2_PKxRSB_SC_(%"class.std::__1::complex"*, %"class.std::__1::complex"*, i64*, i64*, i64*)

declare i64 @_ZN10vfun_timesINSt3__17complexIdEES2_xE7iterateILN3wrt13runtime_flagsE0ELS6_0EL15increment_class2EEExPS2_PKS2_PKxRSB_SC_(%"class.std::__1::complex"*, %"class.std::__1::complex"*, i64*, i64*, i64*)

declare i64 @_ZN10vfun_timesINSt3__17complexIdEES2_xE7iterateILN3wrt13runtime_flagsE0ELS6_0EL15increment_class3EEExPS2_PKS2_PKxRSB_SC_(%"class.std::__1::complex"*, %"class.std::__1::complex"*, i64*, i64*, i64*)

declare i64 @_ZN10vfun_timesINSt3__17complexIdEES2_xE7iterateILN3wrt13runtime_flagsE0ELS6_1EL15increment_class1EEExPS2_PKS2_PKxRSB_SC_(%"class.std::__1::complex"*, %"class.std::__1::complex"*, i64*, i64*, i64*)

declare i64 @_ZN10vfun_timesINSt3__17complexIdEES2_xE7iterateILN3wrt13runtime_flagsE0ELS6_1EL15increment_class2EEExPS2_PKS2_PKxRSB_SC_(%"class.std::__1::complex"*, %"class.std::__1::complex"*, i64*, i64*, i64*)

declare i64 @_ZN10vfun_timesINSt3__17complexIdEES2_xE7iterateILN3wrt13runtime_flagsE0ELS6_1EL15increment_class3EEExPS2_PKS2_PKxRSB_SC_(%"class.std::__1::complex"*, %"class.std::__1::complex"*, i64*, i64*, i64*)

declare i64 @_ZN10vfun_timesINSt3__17complexIdEES2_xE7iterateILN3wrt13runtime_flagsE1ELS6_0EL15increment_class1EEExPS2_PKS2_PKxRSB_SC_(%"class.std::__1::complex"*, %"class.std::__1::complex"*, i64*, i64*, i64*)

declare i64 @_ZN10vfun_timesINSt3__17complexIdEES2_xE7iterateILN3wrt13runtime_flagsE1ELS6_0EL15increment_class2EEExPS2_PKS2_PKxRSB_SC_(%"class.std::__1::complex"*, %"class.std::__1::complex"*, i64*, i64*, i64*)

declare i64 @_ZN10vfun_timesINSt3__17complexIdEES2_xE7iterateILN3wrt13runtime_flagsE1ELS6_0EL15increment_class3EEExPS2_PKS2_PKxRSB_SC_(%"class.std::__1::complex"*, %"class.std::__1::complex"*, i64*, i64*, i64*)

declare i64 @_ZN10vfun_timesINSt3__17complexIdEEdS2_E7iterateILN3wrt13runtime_flagsE1ELS6_0EL15increment_class0EEExPS2_PKdPKS2_RKxPSD_(%"class.std::__1::complex"*, double*, %"class.std::__1::complex"*, i64*, i64*)

declare i64 @_ZN10vfun_timesINSt3__17complexIdEEdS2_E7iterateILN3wrt13runtime_flagsE0ELS6_1EL15increment_class0EEExPS2_PKdPKS2_RKxPSD_(%"class.std::__1::complex"*, double*, %"class.std::__1::complex"*, i64*, i64*)

declare i64 @_ZN10vfun_timesINSt3__17complexIdEEdS2_E7iterateILN3wrt13runtime_flagsE0ELS6_0EL15increment_class0EEExPS2_PKdPKS2_RKxPSD_(%"class.std::__1::complex"*, double*, %"class.std::__1::complex"*, i64*, i64*)

declare { double, double } @_ZN3wrt9scalar_op6binaryL8times_opIdNSt3__17complexIdEELNS_13runtime_flagsE1EEENS3_9enable_ifIXoosr28is_floating_point_or_complexIT_EE5valuesr28is_floating_point_or_complexIT0_EE5valueENS1_6detail7op_infoILNSA_2opE26EN7rt_typeIS8_E4typeENSD_IS9_E4typeEE11result_typeEE4typeERKNSI_19first_argument_typeERKNSI_20second_argument_typeE(double*, %"class.std::__1::complex"*)

declare i64 @_ZN10vfun_timesINSt3__17complexIdEEdS2_E7iterateILN3wrt13runtime_flagsE0ELS6_0EL15increment_class1EEExPS2_PKdPKS2_RKxPSD_(%"class.std::__1::complex"*, double*, %"class.std::__1::complex"*, i64*, i64*)

declare i64 @_ZN10vfun_timesINSt3__17complexIdEEdS2_E7iterateILN3wrt13runtime_flagsE0ELS6_0EL15increment_class2EEExPS2_PKdPKS2_RKxPSD_(%"class.std::__1::complex"*, double*, %"class.std::__1::complex"*, i64*, i64*)

declare i64 @_ZN10vfun_timesINSt3__17complexIdEEdS2_E7iterateILN3wrt13runtime_flagsE0ELS6_0EL15increment_class3EEExPS2_PKdPKS2_RKxPSD_(%"class.std::__1::complex"*, double*, %"class.std::__1::complex"*, i64*, i64*)

declare i64 @_ZN10vfun_timesINSt3__17complexIdEEdS2_E7iterateILN3wrt13runtime_flagsE0ELS6_1EL15increment_class1EEExPS2_PKdPKS2_RKxPSD_(%"class.std::__1::complex"*, double*, %"class.std::__1::complex"*, i64*, i64*)

declare i64 @_ZN10vfun_timesINSt3__17complexIdEEdS2_E7iterateILN3wrt13runtime_flagsE0ELS6_1EL15increment_class2EEExPS2_PKdPKS2_RKxPSD_(%"class.std::__1::complex"*, double*, %"class.std::__1::complex"*, i64*, i64*)

declare i64 @_ZN10vfun_timesINSt3__17complexIdEEdS2_E7iterateILN3wrt13runtime_flagsE0ELS6_1EL15increment_class3EEExPS2_PKdPKS2_RKxPSD_(%"class.std::__1::complex"*, double*, %"class.std::__1::complex"*, i64*, i64*)

declare i64 @_ZN10vfun_timesINSt3__17complexIdEEdS2_E7iterateILN3wrt13runtime_flagsE1ELS6_0EL15increment_class1EEExPS2_PKdPKS2_RKxPSD_(%"class.std::__1::complex"*, double*, %"class.std::__1::complex"*, i64*, i64*)

declare i64 @_ZN10vfun_timesINSt3__17complexIdEEdS2_E7iterateILN3wrt13runtime_flagsE1ELS6_0EL15increment_class2EEExPS2_PKdPKS2_RKxPSD_(%"class.std::__1::complex"*, double*, %"class.std::__1::complex"*, i64*, i64*)

declare i64 @_ZN10vfun_timesINSt3__17complexIdEEdS2_E7iterateILN3wrt13runtime_flagsE1ELS6_0EL15increment_class3EEExPS2_PKdPKS2_RKxPSD_(%"class.std::__1::complex"*, double*, %"class.std::__1::complex"*, i64*, i64*)

declare i64 @_ZN10vfun_timesIdddE7iterateILN3wrt13runtime_flagsE1ELS3_0EL15increment_class0EEExPdPKdS7_RKxPS8_(double*, double*, double*, i64*, i64*)

declare i64 @_ZN10vfun_timesIdddE7iterateILN3wrt13runtime_flagsE0ELS3_1EL15increment_class0EEExPdPKdS7_RKxPS8_(double*, double*, double*, i64*, i64*)

declare i64 @_ZN10vfun_timesIdddE7iterateILN3wrt13runtime_flagsE0ELS3_0EL15increment_class0EEExPdPKdS7_RKxPS8_(double*, double*, double*, i64*, i64*)

declare i64 @_ZN10vfun_timesIdddE7iterateILN3wrt13runtime_flagsE0ELS3_0EL15increment_class1EEExPdPKdS7_RKxPS8_(double*, double*, double*, i64*, i64*)

declare i64 @_ZN10vfun_timesIdddE7iterateILN3wrt13runtime_flagsE0ELS3_0EL15increment_class2EEExPdPKdS7_RKxPS8_(double*, double*, double*, i64*, i64*)

declare i64 @_ZN10vfun_timesIdddE7iterateILN3wrt13runtime_flagsE0ELS3_0EL15increment_class3EEExPdPKdS7_RKxPS8_(double*, double*, double*, i64*, i64*)

declare i32 @ippsMulC_64f(double*, double, double*, i32)

declare void @vdMul(i64, double*, double*, double*)

declare i64 @_ZN10vfun_timesIdddE7iterateILN3wrt13runtime_flagsE0ELS3_1EL15increment_class1EEExPdPKdS7_RKxPS8_(double*, double*, double*, i64*, i64*)

declare i64 @_ZN10vfun_timesIdddE7iterateILN3wrt13runtime_flagsE0ELS3_1EL15increment_class2EEExPdPKdS7_RKxPS8_(double*, double*, double*, i64*, i64*)

declare i64 @_ZN10vfun_timesIdddE7iterateILN3wrt13runtime_flagsE0ELS3_1EL15increment_class3EEExPdPKdS7_RKxPS8_(double*, double*, double*, i64*, i64*)

declare i64 @_ZN10vfun_timesIdddE7iterateILN3wrt13runtime_flagsE1ELS3_0EL15increment_class1EEExPdPKdS7_RKxPS8_(double*, double*, double*, i64*, i64*)

declare i64 @_ZN10vfun_timesIdddE7iterateILN3wrt13runtime_flagsE1ELS3_0EL15increment_class2EEExPdPKdS7_RKxPS8_(double*, double*, double*, i64*, i64*)

declare i64 @_ZN10vfun_timesIdddE7iterateILN3wrt13runtime_flagsE1ELS3_0EL15increment_class3EEExPdPKdS7_RKxPS8_(double*, double*, double*, i64*, i64*)

declare i64 @_ZN10vfun_timesIddxE7iterateILN3wrt13runtime_flagsE1ELS3_0EL15increment_class0EEExPdPKdPKxRS8_S9_(double*, double*, i64*, i64*, i64*)

declare i64 @_ZN10vfun_timesIddxE7iterateILN3wrt13runtime_flagsE0ELS3_1EL15increment_class0EEExPdPKdPKxRS8_S9_(double*, double*, i64*, i64*, i64*)

declare i64 @_ZN10vfun_timesIddxE7iterateILN3wrt13runtime_flagsE0ELS3_0EL15increment_class0EEExPdPKdPKxRS8_S9_(double*, double*, i64*, i64*, i64*)

declare i64 @_ZN10vfun_timesIddxE7iterateILN3wrt13runtime_flagsE0ELS3_0EL15increment_class1EEExPdPKdPKxRS8_S9_(double*, double*, i64*, i64*, i64*)

declare i64 @_ZN10vfun_timesIddxE7iterateILN3wrt13runtime_flagsE0ELS3_0EL15increment_class2EEExPdPKdPKxRS8_S9_(double*, double*, i64*, i64*, i64*)

declare i64 @_ZN10vfun_timesIddxE7iterateILN3wrt13runtime_flagsE0ELS3_0EL15increment_class3EEExPdPKdPKxRS8_S9_(double*, double*, i64*, i64*, i64*)

declare i64 @_ZN10vfun_timesIddxE7iterateILN3wrt13runtime_flagsE0ELS3_1EL15increment_class1EEExPdPKdPKxRS8_S9_(double*, double*, i64*, i64*, i64*)

declare i64 @_ZN10vfun_timesIddxE7iterateILN3wrt13runtime_flagsE0ELS3_1EL15increment_class2EEExPdPKdPKxRS8_S9_(double*, double*, i64*, i64*, i64*)

declare i64 @_ZN10vfun_timesIddxE7iterateILN3wrt13runtime_flagsE0ELS3_1EL15increment_class3EEExPdPKdPKxRS8_S9_(double*, double*, i64*, i64*, i64*)

declare i64 @_ZN10vfun_timesIddxE7iterateILN3wrt13runtime_flagsE1ELS3_0EL15increment_class1EEExPdPKdPKxRS8_S9_(double*, double*, i64*, i64*, i64*)

declare i64 @_ZN10vfun_timesIddxE7iterateILN3wrt13runtime_flagsE1ELS3_0EL15increment_class2EEExPdPKdPKxRS8_S9_(double*, double*, i64*, i64*, i64*)

declare i64 @_ZN10vfun_timesIddxE7iterateILN3wrt13runtime_flagsE1ELS3_0EL15increment_class3EEExPdPKdPKxRS8_S9_(double*, double*, i64*, i64*, i64*)

declare i64 @_ZN10vfun_timesINSt3__17complexIdEExS2_E7iterateILN3wrt13runtime_flagsE1ELS6_0EL15increment_class0EEExPS2_PKxPKS2_RS9_SA_(%"class.std::__1::complex"*, i64*, %"class.std::__1::complex"*, i64*, i64*)

declare i64 @_ZN10vfun_timesINSt3__17complexIdEExS2_E7iterateILN3wrt13runtime_flagsE0ELS6_1EL15increment_class0EEExPS2_PKxPKS2_RS9_SA_(%"class.std::__1::complex"*, i64*, %"class.std::__1::complex"*, i64*, i64*)

declare i64 @_ZN10vfun_timesINSt3__17complexIdEExS2_E7iterateILN3wrt13runtime_flagsE0ELS6_0EL15increment_class0EEExPS2_PKxPKS2_RS9_SA_(%"class.std::__1::complex"*, i64*, %"class.std::__1::complex"*, i64*, i64*)

declare { double, double } @_ZN3wrt9scalar_op6binaryL8times_opIxNSt3__17complexIdEELNS_13runtime_flagsE1EEENS3_9enable_ifIXoosr28is_floating_point_or_complexIT_EE5valuesr28is_floating_point_or_complexIT0_EE5valueENS1_6detail7op_infoILNSA_2opE26EN7rt_typeIS8_E4typeENSD_IS9_E4typeEE11result_typeEE4typeERKNSI_19first_argument_typeERKNSI_20second_argument_typeE(i64, %"class.std::__1::complex"*)

declare i64 @_ZN10vfun_timesINSt3__17complexIdEExS2_E7iterateILN3wrt13runtime_flagsE0ELS6_0EL15increment_class1EEExPS2_PKxPKS2_RS9_SA_(%"class.std::__1::complex"*, i64*, %"class.std::__1::complex"*, i64*, i64*)

declare i64 @_ZN10vfun_timesINSt3__17complexIdEExS2_E7iterateILN3wrt13runtime_flagsE0ELS6_0EL15increment_class2EEExPS2_PKxPKS2_RS9_SA_(%"class.std::__1::complex"*, i64*, %"class.std::__1::complex"*, i64*, i64*)

declare i64 @_ZN10vfun_timesINSt3__17complexIdEExS2_E7iterateILN3wrt13runtime_flagsE0ELS6_0EL15increment_class3EEExPS2_PKxPKS2_RS9_SA_(%"class.std::__1::complex"*, i64*, %"class.std::__1::complex"*, i64*, i64*)

declare i64 @_ZN10vfun_timesINSt3__17complexIdEExS2_E7iterateILN3wrt13runtime_flagsE0ELS6_1EL15increment_class1EEExPS2_PKxPKS2_RS9_SA_(%"class.std::__1::complex"*, i64*, %"class.std::__1::complex"*, i64*, i64*)

declare i64 @_ZN10vfun_timesINSt3__17complexIdEExS2_E7iterateILN3wrt13runtime_flagsE0ELS6_1EL15increment_class2EEExPS2_PKxPKS2_RS9_SA_(%"class.std::__1::complex"*, i64*, %"class.std::__1::complex"*, i64*, i64*)

declare i64 @_ZN10vfun_timesINSt3__17complexIdEExS2_E7iterateILN3wrt13runtime_flagsE0ELS6_1EL15increment_class3EEExPS2_PKxPKS2_RS9_SA_(%"class.std::__1::complex"*, i64*, %"class.std::__1::complex"*, i64*, i64*)

declare i64 @_ZN10vfun_timesINSt3__17complexIdEExS2_E7iterateILN3wrt13runtime_flagsE1ELS6_0EL15increment_class1EEExPS2_PKxPKS2_RS9_SA_(%"class.std::__1::complex"*, i64*, %"class.std::__1::complex"*, i64*, i64*)

declare i64 @_ZN10vfun_timesINSt3__17complexIdEExS2_E7iterateILN3wrt13runtime_flagsE1ELS6_0EL15increment_class2EEExPS2_PKxPKS2_RS9_SA_(%"class.std::__1::complex"*, i64*, %"class.std::__1::complex"*, i64*, i64*)

declare i64 @_ZN10vfun_timesINSt3__17complexIdEExS2_E7iterateILN3wrt13runtime_flagsE1ELS6_0EL15increment_class3EEExPS2_PKxPKS2_RS9_SA_(%"class.std::__1::complex"*, i64*, %"class.std::__1::complex"*, i64*, i64*)

declare i64 @_ZN10vfun_timesIdxdE7iterateILN3wrt13runtime_flagsE1ELS3_0EL15increment_class0EEExPdPKxPKdRS6_S7_(double*, i64*, double*, i64*, i64*)

declare i64 @_ZN10vfun_timesIdxdE7iterateILN3wrt13runtime_flagsE0ELS3_1EL15increment_class0EEExPdPKxPKdRS6_S7_(double*, i64*, double*, i64*, i64*)

declare i64 @_ZN10vfun_timesIdxdE7iterateILN3wrt13runtime_flagsE0ELS3_0EL15increment_class0EEExPdPKxPKdRS6_S7_(double*, i64*, double*, i64*, i64*)

declare i64 @_ZN10vfun_timesIdxdE7iterateILN3wrt13runtime_flagsE0ELS3_0EL15increment_class1EEExPdPKxPKdRS6_S7_(double*, i64*, double*, i64*, i64*)

declare i64 @_ZN10vfun_timesIdxdE7iterateILN3wrt13runtime_flagsE0ELS3_0EL15increment_class2EEExPdPKxPKdRS6_S7_(double*, i64*, double*, i64*, i64*)

declare i64 @_ZN10vfun_timesIdxdE7iterateILN3wrt13runtime_flagsE0ELS3_0EL15increment_class3EEExPdPKxPKdRS6_S7_(double*, i64*, double*, i64*, i64*)

declare i64 @_ZN10vfun_timesIdxdE7iterateILN3wrt13runtime_flagsE0ELS3_1EL15increment_class1EEExPdPKxPKdRS6_S7_(double*, i64*, double*, i64*, i64*)

declare i64 @_ZN10vfun_timesIdxdE7iterateILN3wrt13runtime_flagsE0ELS3_1EL15increment_class2EEExPdPKxPKdRS6_S7_(double*, i64*, double*, i64*, i64*)

declare i64 @_ZN10vfun_timesIdxdE7iterateILN3wrt13runtime_flagsE0ELS3_1EL15increment_class3EEExPdPKxPKdRS6_S7_(double*, i64*, double*, i64*, i64*)

declare i64 @_ZN10vfun_timesIdxdE7iterateILN3wrt13runtime_flagsE1ELS3_0EL15increment_class1EEExPdPKxPKdRS6_S7_(double*, i64*, double*, i64*, i64*)

declare i64 @_ZN10vfun_timesIdxdE7iterateILN3wrt13runtime_flagsE1ELS3_0EL15increment_class2EEExPdPKxPKdRS6_S7_(double*, i64*, double*, i64*, i64*)

declare i64 @_ZN10vfun_timesIdxdE7iterateILN3wrt13runtime_flagsE1ELS3_0EL15increment_class3EEExPdPKxPKdRS6_S7_(double*, i64*, double*, i64*, i64*)

declare i64 @_ZN10vfun_timesIxxxE7iterateILN3wrt13runtime_flagsE0ELS3_1EL15increment_class0EEExPxPKxS7_RS6_S7_(i64*, i64*, i64*, i64*, i64*)

declare i64 @_ZN10vfun_timesIxxxE7iterateILN3wrt13runtime_flagsE0ELS3_0EL15increment_class0EEExPxPKxS7_RS6_S7_(i64*, i64*, i64*, i64*, i64*)

declare i64 @_ZN10vfun_timesIxxxE7iterateILN3wrt13runtime_flagsE0ELS3_0EL15increment_class1EEExPxPKxS7_RS6_S7_(i64*, i64*, i64*, i64*, i64*)

declare i64 @_ZN10vfun_timesIxxxE7iterateILN3wrt13runtime_flagsE0ELS3_0EL15increment_class2EEExPxPKxS7_RS6_S7_(i64*, i64*, i64*, i64*, i64*)

declare i64 @_ZN10vfun_timesIxxxE7iterateILN3wrt13runtime_flagsE0ELS3_0EL15increment_class3EEExPxPKxS7_RS6_S7_(i64*, i64*, i64*, i64*, i64*)

declare i64 @_ZN10vfun_timesIxxxE7iterateILN3wrt13runtime_flagsE0ELS3_1EL15increment_class1EEExPxPKxS7_RS6_S7_(i64*, i64*, i64*, i64*, i64*)

declare i64 @_ZN10vfun_timesIxxxE7iterateILN3wrt13runtime_flagsE0ELS3_1EL15increment_class2EEExPxPKxS7_RS6_S7_(i64*, i64*, i64*, i64*, i64*)

declare i64 @_ZN10vfun_timesIxxxE7iterateILN3wrt13runtime_flagsE0ELS3_1EL15increment_class3EEExPxPKxS7_RS6_S7_(i64*, i64*, i64*, i64*, i64*)

declare i64 @_ZN13vfun_subtractINSt3__17complexIdEES2_S2_E7iterateILN3wrt13runtime_flagsE1ELS6_0EL15increment_class0EEExPS2_PKS2_SA_RKxPSB_(%"class.std::__1::complex"*, %"class.std::__1::complex"*, %"class.std::__1::complex"*, i64*, i64*)

declare i64 @_ZN13vfun_subtractINSt3__17complexIdEES2_S2_E7iterateILN3wrt13runtime_flagsE0ELS6_1EL15increment_class0EEExPS2_PKS2_SA_RKxPSB_(%"class.std::__1::complex"*, %"class.std::__1::complex"*, %"class.std::__1::complex"*, i64*, i64*)

declare i64 @_ZN13vfun_subtractINSt3__17complexIdEES2_S2_E7iterateILN3wrt13runtime_flagsE0ELS6_0EL15increment_class0EEExPS2_PKS2_SA_RKxPSB_(%"class.std::__1::complex"*, %"class.std::__1::complex"*, %"class.std::__1::complex"*, i64*, i64*)

declare i64 @_ZN13vfun_subtractINSt3__17complexIdEES2_S2_E7iterateILN3wrt13runtime_flagsE0ELS6_0EL15increment_class1EEExPS2_PKS2_SA_RKxPSB_(%"class.std::__1::complex"*, %"class.std::__1::complex"*, %"class.std::__1::complex"*, i64*, i64*)

declare i64 @_ZN13vfun_subtractINSt3__17complexIdEES2_S2_E7iterateILN3wrt13runtime_flagsE0ELS6_0EL15increment_class2EEExPS2_PKS2_SA_RKxPSB_(%"class.std::__1::complex"*, %"class.std::__1::complex"*, %"class.std::__1::complex"*, i64*, i64*)

declare i64 @_ZN13vfun_subtractINSt3__17complexIdEES2_S2_E7iterateILN3wrt13runtime_flagsE0ELS6_0EL15increment_class3EEExPS2_PKS2_SA_RKxPSB_(%"class.std::__1::complex"*, %"class.std::__1::complex"*, %"class.std::__1::complex"*, i64*, i64*)

declare i32 @ippsSubC_64fc(%"class.std::__1::complex"*, double, double, %"class.std::__1::complex"*, i32)

declare i32 @ippsSubCRev_64fc(%"class.std::__1::complex"*, double, double, %"class.std::__1::complex"*, i32)

declare void @vzSub(i64, %"class.std::__1::complex"*, %"class.std::__1::complex"*, %"class.std::__1::complex"*)

declare i64 @_ZN13vfun_subtractINSt3__17complexIdEES2_S2_E7iterateILN3wrt13runtime_flagsE0ELS6_1EL15increment_class1EEExPS2_PKS2_SA_RKxPSB_(%"class.std::__1::complex"*, %"class.std::__1::complex"*, %"class.std::__1::complex"*, i64*, i64*)

declare i64 @_ZN13vfun_subtractINSt3__17complexIdEES2_S2_E7iterateILN3wrt13runtime_flagsE0ELS6_1EL15increment_class2EEExPS2_PKS2_SA_RKxPSB_(%"class.std::__1::complex"*, %"class.std::__1::complex"*, %"class.std::__1::complex"*, i64*, i64*)

declare i64 @_ZN13vfun_subtractINSt3__17complexIdEES2_S2_E7iterateILN3wrt13runtime_flagsE0ELS6_1EL15increment_class3EEExPS2_PKS2_SA_RKxPSB_(%"class.std::__1::complex"*, %"class.std::__1::complex"*, %"class.std::__1::complex"*, i64*, i64*)

declare i64 @_ZN13vfun_subtractINSt3__17complexIdEES2_S2_E7iterateILN3wrt13runtime_flagsE1ELS6_0EL15increment_class1EEExPS2_PKS2_SA_RKxPSB_(%"class.std::__1::complex"*, %"class.std::__1::complex"*, %"class.std::__1::complex"*, i64*, i64*)

declare i64 @_ZN13vfun_subtractINSt3__17complexIdEES2_S2_E7iterateILN3wrt13runtime_flagsE1ELS6_0EL15increment_class2EEExPS2_PKS2_SA_RKxPSB_(%"class.std::__1::complex"*, %"class.std::__1::complex"*, %"class.std::__1::complex"*, i64*, i64*)

declare i64 @_ZN13vfun_subtractINSt3__17complexIdEES2_S2_E7iterateILN3wrt13runtime_flagsE1ELS6_0EL15increment_class3EEExPS2_PKS2_SA_RKxPSB_(%"class.std::__1::complex"*, %"class.std::__1::complex"*, %"class.std::__1::complex"*, i64*, i64*)

declare i64 @_ZN13vfun_subtractINSt3__17complexIdEES2_dE7iterateILN3wrt13runtime_flagsE1ELS6_0EL15increment_class0EEExPS2_PKS2_PKdRKxPSD_(%"class.std::__1::complex"*, %"class.std::__1::complex"*, double*, i64*, i64*)

declare i64 @_ZN13vfun_subtractINSt3__17complexIdEES2_dE7iterateILN3wrt13runtime_flagsE0ELS6_1EL15increment_class0EEExPS2_PKS2_PKdRKxPSD_(%"class.std::__1::complex"*, %"class.std::__1::complex"*, double*, i64*, i64*)

declare i64 @_ZN13vfun_subtractINSt3__17complexIdEES2_dE7iterateILN3wrt13runtime_flagsE0ELS6_0EL15increment_class0EEExPS2_PKS2_PKdRKxPSD_(%"class.std::__1::complex"*, %"class.std::__1::complex"*, double*, i64*, i64*)

declare i64 @_ZN13vfun_subtractINSt3__17complexIdEES2_dE7iterateILN3wrt13runtime_flagsE0ELS6_0EL15increment_class1EEExPS2_PKS2_PKdRKxPSD_(%"class.std::__1::complex"*, %"class.std::__1::complex"*, double*, i64*, i64*)

declare i64 @_ZN13vfun_subtractINSt3__17complexIdEES2_dE7iterateILN3wrt13runtime_flagsE0ELS6_0EL15increment_class2EEExPS2_PKS2_PKdRKxPSD_(%"class.std::__1::complex"*, %"class.std::__1::complex"*, double*, i64*, i64*)

declare i64 @_ZN13vfun_subtractINSt3__17complexIdEES2_dE7iterateILN3wrt13runtime_flagsE0ELS6_0EL15increment_class3EEExPS2_PKS2_PKdRKxPSD_(%"class.std::__1::complex"*, %"class.std::__1::complex"*, double*, i64*, i64*)

declare i64 @_ZN13vfun_subtractINSt3__17complexIdEES2_dE7iterateILN3wrt13runtime_flagsE0ELS6_1EL15increment_class1EEExPS2_PKS2_PKdRKxPSD_(%"class.std::__1::complex"*, %"class.std::__1::complex"*, double*, i64*, i64*)

declare i64 @_ZN13vfun_subtractINSt3__17complexIdEES2_dE7iterateILN3wrt13runtime_flagsE0ELS6_1EL15increment_class2EEExPS2_PKS2_PKdRKxPSD_(%"class.std::__1::complex"*, %"class.std::__1::complex"*, double*, i64*, i64*)

declare i64 @_ZN13vfun_subtractINSt3__17complexIdEES2_dE7iterateILN3wrt13runtime_flagsE0ELS6_1EL15increment_class3EEExPS2_PKS2_PKdRKxPSD_(%"class.std::__1::complex"*, %"class.std::__1::complex"*, double*, i64*, i64*)

declare i64 @_ZN13vfun_subtractINSt3__17complexIdEES2_dE7iterateILN3wrt13runtime_flagsE1ELS6_0EL15increment_class1EEExPS2_PKS2_PKdRKxPSD_(%"class.std::__1::complex"*, %"class.std::__1::complex"*, double*, i64*, i64*)

declare i64 @_ZN13vfun_subtractINSt3__17complexIdEES2_dE7iterateILN3wrt13runtime_flagsE1ELS6_0EL15increment_class2EEExPS2_PKS2_PKdRKxPSD_(%"class.std::__1::complex"*, %"class.std::__1::complex"*, double*, i64*, i64*)

declare i64 @_ZN13vfun_subtractINSt3__17complexIdEES2_dE7iterateILN3wrt13runtime_flagsE1ELS6_0EL15increment_class3EEExPS2_PKS2_PKdRKxPSD_(%"class.std::__1::complex"*, %"class.std::__1::complex"*, double*, i64*, i64*)

declare i64 @_ZN13vfun_subtractINSt3__17complexIdEES2_xE7iterateILN3wrt13runtime_flagsE1ELS6_0EL15increment_class0EEExPS2_PKS2_PKxRSB_SC_(%"class.std::__1::complex"*, %"class.std::__1::complex"*, i64*, i64*, i64*)

declare i64 @_ZN13vfun_subtractINSt3__17complexIdEES2_xE7iterateILN3wrt13runtime_flagsE0ELS6_1EL15increment_class0EEExPS2_PKS2_PKxRSB_SC_(%"class.std::__1::complex"*, %"class.std::__1::complex"*, i64*, i64*, i64*)

declare i64 @_ZN13vfun_subtractINSt3__17complexIdEES2_xE7iterateILN3wrt13runtime_flagsE0ELS6_0EL15increment_class0EEExPS2_PKS2_PKxRSB_SC_(%"class.std::__1::complex"*, %"class.std::__1::complex"*, i64*, i64*, i64*)

declare i64 @_ZN13vfun_subtractINSt3__17complexIdEES2_xE7iterateILN3wrt13runtime_flagsE0ELS6_0EL15increment_class1EEExPS2_PKS2_PKxRSB_SC_(%"class.std::__1::complex"*, %"class.std::__1::complex"*, i64*, i64*, i64*)

declare i64 @_ZN13vfun_subtractINSt3__17complexIdEES2_xE7iterateILN3wrt13runtime_flagsE0ELS6_0EL15increment_class2EEExPS2_PKS2_PKxRSB_SC_(%"class.std::__1::complex"*, %"class.std::__1::complex"*, i64*, i64*, i64*)

declare i64 @_ZN13vfun_subtractINSt3__17complexIdEES2_xE7iterateILN3wrt13runtime_flagsE0ELS6_0EL15increment_class3EEExPS2_PKS2_PKxRSB_SC_(%"class.std::__1::complex"*, %"class.std::__1::complex"*, i64*, i64*, i64*)

declare i64 @_ZN13vfun_subtractINSt3__17complexIdEES2_xE7iterateILN3wrt13runtime_flagsE0ELS6_1EL15increment_class1EEExPS2_PKS2_PKxRSB_SC_(%"class.std::__1::complex"*, %"class.std::__1::complex"*, i64*, i64*, i64*)

declare i64 @_ZN13vfun_subtractINSt3__17complexIdEES2_xE7iterateILN3wrt13runtime_flagsE0ELS6_1EL15increment_class2EEExPS2_PKS2_PKxRSB_SC_(%"class.std::__1::complex"*, %"class.std::__1::complex"*, i64*, i64*, i64*)

declare i64 @_ZN13vfun_subtractINSt3__17complexIdEES2_xE7iterateILN3wrt13runtime_flagsE0ELS6_1EL15increment_class3EEExPS2_PKS2_PKxRSB_SC_(%"class.std::__1::complex"*, %"class.std::__1::complex"*, i64*, i64*, i64*)

declare i64 @_ZN13vfun_subtractINSt3__17complexIdEES2_xE7iterateILN3wrt13runtime_flagsE1ELS6_0EL15increment_class1EEExPS2_PKS2_PKxRSB_SC_(%"class.std::__1::complex"*, %"class.std::__1::complex"*, i64*, i64*, i64*)

declare i64 @_ZN13vfun_subtractINSt3__17complexIdEES2_xE7iterateILN3wrt13runtime_flagsE1ELS6_0EL15increment_class2EEExPS2_PKS2_PKxRSB_SC_(%"class.std::__1::complex"*, %"class.std::__1::complex"*, i64*, i64*, i64*)

declare i64 @_ZN13vfun_subtractINSt3__17complexIdEES2_xE7iterateILN3wrt13runtime_flagsE1ELS6_0EL15increment_class3EEExPS2_PKS2_PKxRSB_SC_(%"class.std::__1::complex"*, %"class.std::__1::complex"*, i64*, i64*, i64*)

declare i64 @_ZN13vfun_subtractINSt3__17complexIdEEdS2_E7iterateILN3wrt13runtime_flagsE1ELS6_0EL15increment_class0EEExPS2_PKdPKS2_RKxPSD_(%"class.std::__1::complex"*, double*, %"class.std::__1::complex"*, i64*, i64*)

declare i64 @_ZN13vfun_subtractINSt3__17complexIdEEdS2_E7iterateILN3wrt13runtime_flagsE0ELS6_1EL15increment_class0EEExPS2_PKdPKS2_RKxPSD_(%"class.std::__1::complex"*, double*, %"class.std::__1::complex"*, i64*, i64*)

declare i64 @_ZN13vfun_subtractINSt3__17complexIdEEdS2_E7iterateILN3wrt13runtime_flagsE0ELS6_0EL15increment_class0EEExPS2_PKdPKS2_RKxPSD_(%"class.std::__1::complex"*, double*, %"class.std::__1::complex"*, i64*, i64*)

declare i64 @_ZN13vfun_subtractINSt3__17complexIdEEdS2_E7iterateILN3wrt13runtime_flagsE0ELS6_0EL15increment_class1EEExPS2_PKdPKS2_RKxPSD_(%"class.std::__1::complex"*, double*, %"class.std::__1::complex"*, i64*, i64*)

declare i64 @_ZN13vfun_subtractINSt3__17complexIdEEdS2_E7iterateILN3wrt13runtime_flagsE0ELS6_0EL15increment_class2EEExPS2_PKdPKS2_RKxPSD_(%"class.std::__1::complex"*, double*, %"class.std::__1::complex"*, i64*, i64*)

declare i64 @_ZN13vfun_subtractINSt3__17complexIdEEdS2_E7iterateILN3wrt13runtime_flagsE0ELS6_0EL15increment_class3EEExPS2_PKdPKS2_RKxPSD_(%"class.std::__1::complex"*, double*, %"class.std::__1::complex"*, i64*, i64*)

declare i64 @_ZN13vfun_subtractINSt3__17complexIdEEdS2_E7iterateILN3wrt13runtime_flagsE0ELS6_1EL15increment_class1EEExPS2_PKdPKS2_RKxPSD_(%"class.std::__1::complex"*, double*, %"class.std::__1::complex"*, i64*, i64*)

declare i64 @_ZN13vfun_subtractINSt3__17complexIdEEdS2_E7iterateILN3wrt13runtime_flagsE0ELS6_1EL15increment_class2EEExPS2_PKdPKS2_RKxPSD_(%"class.std::__1::complex"*, double*, %"class.std::__1::complex"*, i64*, i64*)

declare i64 @_ZN13vfun_subtractINSt3__17complexIdEEdS2_E7iterateILN3wrt13runtime_flagsE0ELS6_1EL15increment_class3EEExPS2_PKdPKS2_RKxPSD_(%"class.std::__1::complex"*, double*, %"class.std::__1::complex"*, i64*, i64*)

declare i64 @_ZN13vfun_subtractINSt3__17complexIdEEdS2_E7iterateILN3wrt13runtime_flagsE1ELS6_0EL15increment_class1EEExPS2_PKdPKS2_RKxPSD_(%"class.std::__1::complex"*, double*, %"class.std::__1::complex"*, i64*, i64*)

declare i64 @_ZN13vfun_subtractINSt3__17complexIdEEdS2_E7iterateILN3wrt13runtime_flagsE1ELS6_0EL15increment_class2EEExPS2_PKdPKS2_RKxPSD_(%"class.std::__1::complex"*, double*, %"class.std::__1::complex"*, i64*, i64*)

declare i64 @_ZN13vfun_subtractINSt3__17complexIdEEdS2_E7iterateILN3wrt13runtime_flagsE1ELS6_0EL15increment_class3EEExPS2_PKdPKS2_RKxPSD_(%"class.std::__1::complex"*, double*, %"class.std::__1::complex"*, i64*, i64*)

declare i64 @_ZN13vfun_subtractIdddE7iterateILN3wrt13runtime_flagsE1ELS3_0EL15increment_class0EEExPdPKdS7_RKxPS8_(double*, double*, double*, i64*, i64*)

declare i64 @_ZN13vfun_subtractIdddE7iterateILN3wrt13runtime_flagsE0ELS3_1EL15increment_class0EEExPdPKdS7_RKxPS8_(double*, double*, double*, i64*, i64*)

declare i64 @_ZN13vfun_subtractIdddE7iterateILN3wrt13runtime_flagsE0ELS3_0EL15increment_class0EEExPdPKdS7_RKxPS8_(double*, double*, double*, i64*, i64*)

declare i64 @_ZN13vfun_subtractIdddE7iterateILN3wrt13runtime_flagsE0ELS3_0EL15increment_class1EEExPdPKdS7_RKxPS8_(double*, double*, double*, i64*, i64*)

declare i64 @_ZN13vfun_subtractIdddE7iterateILN3wrt13runtime_flagsE0ELS3_0EL15increment_class2EEExPdPKdS7_RKxPS8_(double*, double*, double*, i64*, i64*)

declare i64 @_ZN13vfun_subtractIdddE7iterateILN3wrt13runtime_flagsE0ELS3_0EL15increment_class3EEExPdPKdS7_RKxPS8_(double*, double*, double*, i64*, i64*)

declare i32 @ippsSubC_64f(double*, double, double*, i32)

declare i32 @ippsSubCRev_64f(double*, double, double*, i32)

declare void @vdSub(i64, double*, double*, double*)

declare i64 @_ZN13vfun_subtractIdddE7iterateILN3wrt13runtime_flagsE0ELS3_1EL15increment_class1EEExPdPKdS7_RKxPS8_(double*, double*, double*, i64*, i64*)

declare i64 @_ZN13vfun_subtractIdddE7iterateILN3wrt13runtime_flagsE0ELS3_1EL15increment_class2EEExPdPKdS7_RKxPS8_(double*, double*, double*, i64*, i64*)

declare i64 @_ZN13vfun_subtractIdddE7iterateILN3wrt13runtime_flagsE0ELS3_1EL15increment_class3EEExPdPKdS7_RKxPS8_(double*, double*, double*, i64*, i64*)

declare i64 @_ZN13vfun_subtractIdddE7iterateILN3wrt13runtime_flagsE1ELS3_0EL15increment_class1EEExPdPKdS7_RKxPS8_(double*, double*, double*, i64*, i64*)

declare i64 @_ZN13vfun_subtractIdddE7iterateILN3wrt13runtime_flagsE1ELS3_0EL15increment_class2EEExPdPKdS7_RKxPS8_(double*, double*, double*, i64*, i64*)

declare i64 @_ZN13vfun_subtractIdddE7iterateILN3wrt13runtime_flagsE1ELS3_0EL15increment_class3EEExPdPKdS7_RKxPS8_(double*, double*, double*, i64*, i64*)

declare i64 @_ZN13vfun_subtractIddxE7iterateILN3wrt13runtime_flagsE1ELS3_0EL15increment_class0EEExPdPKdPKxRS8_S9_(double*, double*, i64*, i64*, i64*)

declare i64 @_ZN13vfun_subtractIddxE7iterateILN3wrt13runtime_flagsE0ELS3_1EL15increment_class0EEExPdPKdPKxRS8_S9_(double*, double*, i64*, i64*, i64*)

declare i64 @_ZN13vfun_subtractIddxE7iterateILN3wrt13runtime_flagsE0ELS3_0EL15increment_class0EEExPdPKdPKxRS8_S9_(double*, double*, i64*, i64*, i64*)

declare i64 @_ZN13vfun_subtractIddxE7iterateILN3wrt13runtime_flagsE0ELS3_0EL15increment_class1EEExPdPKdPKxRS8_S9_(double*, double*, i64*, i64*, i64*)

declare i64 @_ZN13vfun_subtractIddxE7iterateILN3wrt13runtime_flagsE0ELS3_0EL15increment_class2EEExPdPKdPKxRS8_S9_(double*, double*, i64*, i64*, i64*)

declare i64 @_ZN13vfun_subtractIddxE7iterateILN3wrt13runtime_flagsE0ELS3_0EL15increment_class3EEExPdPKdPKxRS8_S9_(double*, double*, i64*, i64*, i64*)

declare i64 @_ZN13vfun_subtractIddxE7iterateILN3wrt13runtime_flagsE0ELS3_1EL15increment_class1EEExPdPKdPKxRS8_S9_(double*, double*, i64*, i64*, i64*)

declare i64 @_ZN13vfun_subtractIddxE7iterateILN3wrt13runtime_flagsE0ELS3_1EL15increment_class2EEExPdPKdPKxRS8_S9_(double*, double*, i64*, i64*, i64*)

declare i64 @_ZN13vfun_subtractIddxE7iterateILN3wrt13runtime_flagsE0ELS3_1EL15increment_class3EEExPdPKdPKxRS8_S9_(double*, double*, i64*, i64*, i64*)

declare i64 @_ZN13vfun_subtractIddxE7iterateILN3wrt13runtime_flagsE1ELS3_0EL15increment_class1EEExPdPKdPKxRS8_S9_(double*, double*, i64*, i64*, i64*)

declare i64 @_ZN13vfun_subtractIddxE7iterateILN3wrt13runtime_flagsE1ELS3_0EL15increment_class2EEExPdPKdPKxRS8_S9_(double*, double*, i64*, i64*, i64*)

declare i64 @_ZN13vfun_subtractIddxE7iterateILN3wrt13runtime_flagsE1ELS3_0EL15increment_class3EEExPdPKdPKxRS8_S9_(double*, double*, i64*, i64*, i64*)

declare i64 @_ZN13vfun_subtractINSt3__17complexIdEExS2_E7iterateILN3wrt13runtime_flagsE1ELS6_0EL15increment_class0EEExPS2_PKxPKS2_RS9_SA_(%"class.std::__1::complex"*, i64*, %"class.std::__1::complex"*, i64*, i64*)

declare i64 @_ZN13vfun_subtractINSt3__17complexIdEExS2_E7iterateILN3wrt13runtime_flagsE0ELS6_1EL15increment_class0EEExPS2_PKxPKS2_RS9_SA_(%"class.std::__1::complex"*, i64*, %"class.std::__1::complex"*, i64*, i64*)

declare i64 @_ZN13vfun_subtractINSt3__17complexIdEExS2_E7iterateILN3wrt13runtime_flagsE0ELS6_0EL15increment_class0EEExPS2_PKxPKS2_RS9_SA_(%"class.std::__1::complex"*, i64*, %"class.std::__1::complex"*, i64*, i64*)

declare i64 @_ZN13vfun_subtractINSt3__17complexIdEExS2_E7iterateILN3wrt13runtime_flagsE0ELS6_0EL15increment_class1EEExPS2_PKxPKS2_RS9_SA_(%"class.std::__1::complex"*, i64*, %"class.std::__1::complex"*, i64*, i64*)

declare i64 @_ZN13vfun_subtractINSt3__17complexIdEExS2_E7iterateILN3wrt13runtime_flagsE0ELS6_0EL15increment_class2EEExPS2_PKxPKS2_RS9_SA_(%"class.std::__1::complex"*, i64*, %"class.std::__1::complex"*, i64*, i64*)

declare i64 @_ZN13vfun_subtractINSt3__17complexIdEExS2_E7iterateILN3wrt13runtime_flagsE0ELS6_0EL15increment_class3EEExPS2_PKxPKS2_RS9_SA_(%"class.std::__1::complex"*, i64*, %"class.std::__1::complex"*, i64*, i64*)

declare i64 @_ZN13vfun_subtractINSt3__17complexIdEExS2_E7iterateILN3wrt13runtime_flagsE0ELS6_1EL15increment_class1EEExPS2_PKxPKS2_RS9_SA_(%"class.std::__1::complex"*, i64*, %"class.std::__1::complex"*, i64*, i64*)

declare i64 @_ZN13vfun_subtractINSt3__17complexIdEExS2_E7iterateILN3wrt13runtime_flagsE0ELS6_1EL15increment_class2EEExPS2_PKxPKS2_RS9_SA_(%"class.std::__1::complex"*, i64*, %"class.std::__1::complex"*, i64*, i64*)

declare i64 @_ZN13vfun_subtractINSt3__17complexIdEExS2_E7iterateILN3wrt13runtime_flagsE0ELS6_1EL15increment_class3EEExPS2_PKxPKS2_RS9_SA_(%"class.std::__1::complex"*, i64*, %"class.std::__1::complex"*, i64*, i64*)

declare i64 @_ZN13vfun_subtractINSt3__17complexIdEExS2_E7iterateILN3wrt13runtime_flagsE1ELS6_0EL15increment_class1EEExPS2_PKxPKS2_RS9_SA_(%"class.std::__1::complex"*, i64*, %"class.std::__1::complex"*, i64*, i64*)

declare i64 @_ZN13vfun_subtractINSt3__17complexIdEExS2_E7iterateILN3wrt13runtime_flagsE1ELS6_0EL15increment_class2EEExPS2_PKxPKS2_RS9_SA_(%"class.std::__1::complex"*, i64*, %"class.std::__1::complex"*, i64*, i64*)

declare i64 @_ZN13vfun_subtractINSt3__17complexIdEExS2_E7iterateILN3wrt13runtime_flagsE1ELS6_0EL15increment_class3EEExPS2_PKxPKS2_RS9_SA_(%"class.std::__1::complex"*, i64*, %"class.std::__1::complex"*, i64*, i64*)

declare i64 @_ZN13vfun_subtractIdxdE7iterateILN3wrt13runtime_flagsE1ELS3_0EL15increment_class0EEExPdPKxPKdRS6_S7_(double*, i64*, double*, i64*, i64*)

declare i64 @_ZN13vfun_subtractIdxdE7iterateILN3wrt13runtime_flagsE0ELS3_1EL15increment_class0EEExPdPKxPKdRS6_S7_(double*, i64*, double*, i64*, i64*)

declare i64 @_ZN13vfun_subtractIdxdE7iterateILN3wrt13runtime_flagsE0ELS3_0EL15increment_class0EEExPdPKxPKdRS6_S7_(double*, i64*, double*, i64*, i64*)

declare i64 @_ZN13vfun_subtractIdxdE7iterateILN3wrt13runtime_flagsE0ELS3_0EL15increment_class1EEExPdPKxPKdRS6_S7_(double*, i64*, double*, i64*, i64*)

declare i64 @_ZN13vfun_subtractIdxdE7iterateILN3wrt13runtime_flagsE0ELS3_0EL15increment_class2EEExPdPKxPKdRS6_S7_(double*, i64*, double*, i64*, i64*)

declare i64 @_ZN13vfun_subtractIdxdE7iterateILN3wrt13runtime_flagsE0ELS3_0EL15increment_class3EEExPdPKxPKdRS6_S7_(double*, i64*, double*, i64*, i64*)

declare i64 @_ZN13vfun_subtractIdxdE7iterateILN3wrt13runtime_flagsE0ELS3_1EL15increment_class1EEExPdPKxPKdRS6_S7_(double*, i64*, double*, i64*, i64*)

declare i64 @_ZN13vfun_subtractIdxdE7iterateILN3wrt13runtime_flagsE0ELS3_1EL15increment_class2EEExPdPKxPKdRS6_S7_(double*, i64*, double*, i64*, i64*)

declare i64 @_ZN13vfun_subtractIdxdE7iterateILN3wrt13runtime_flagsE0ELS3_1EL15increment_class3EEExPdPKxPKdRS6_S7_(double*, i64*, double*, i64*, i64*)

declare i64 @_ZN13vfun_subtractIdxdE7iterateILN3wrt13runtime_flagsE1ELS3_0EL15increment_class1EEExPdPKxPKdRS6_S7_(double*, i64*, double*, i64*, i64*)

declare i64 @_ZN13vfun_subtractIdxdE7iterateILN3wrt13runtime_flagsE1ELS3_0EL15increment_class2EEExPdPKxPKdRS6_S7_(double*, i64*, double*, i64*, i64*)

declare i64 @_ZN13vfun_subtractIdxdE7iterateILN3wrt13runtime_flagsE1ELS3_0EL15increment_class3EEExPdPKxPKdRS6_S7_(double*, i64*, double*, i64*, i64*)

declare i64 @_ZN13vfun_subtractIxxxE7iterateILN3wrt13runtime_flagsE0ELS3_1EL15increment_class0EEExPxPKxS7_RS6_S7_(i64*, i64*, i64*, i64*, i64*)

declare i64 @_ZN13vfun_subtractIxxxE7iterateILN3wrt13runtime_flagsE0ELS3_0EL15increment_class0EEExPxPKxS7_RS6_S7_(i64*, i64*, i64*, i64*, i64*)

declare i64 @_ZN13vfun_subtractIxxxE7iterateILN3wrt13runtime_flagsE0ELS3_0EL15increment_class1EEExPxPKxS7_RS6_S7_(i64*, i64*, i64*, i64*, i64*)

declare i64 @_ZN13vfun_subtractIxxxE7iterateILN3wrt13runtime_flagsE0ELS3_0EL15increment_class2EEExPxPKxS7_RS6_S7_(i64*, i64*, i64*, i64*, i64*)

declare i64 @_ZN13vfun_subtractIxxxE7iterateILN3wrt13runtime_flagsE0ELS3_0EL15increment_class3EEExPxPKxS7_RS6_S7_(i64*, i64*, i64*, i64*, i64*)

declare i64 @_ZN13vfun_subtractIxxxE7iterateILN3wrt13runtime_flagsE0ELS3_1EL15increment_class1EEExPxPKxS7_RS6_S7_(i64*, i64*, i64*, i64*, i64*)

declare i64 @_ZN13vfun_subtractIxxxE7iterateILN3wrt13runtime_flagsE0ELS3_1EL15increment_class2EEExPxPKxS7_RS6_S7_(i64*, i64*, i64*, i64*, i64*)

declare i64 @_ZN13vfun_subtractIxxxE7iterateILN3wrt13runtime_flagsE0ELS3_1EL15increment_class3EEExPxPKxS7_RS6_S7_(i64*, i64*, i64*, i64*, i64*)

declare i64 @_ZN9vfun_plusINSt3__17complexIdEES2_S2_E7iterateILN3wrt13runtime_flagsE1ELS6_0EL15increment_class0EEExPS2_PKS2_SA_RKxPSB_(%"class.std::__1::complex"*, %"class.std::__1::complex"*, %"class.std::__1::complex"*, i64*, i64*)

declare i64 @_ZN9vfun_plusINSt3__17complexIdEES2_S2_E7iterateILN3wrt13runtime_flagsE0ELS6_1EL15increment_class0EEExPS2_PKS2_SA_RKxPSB_(%"class.std::__1::complex"*, %"class.std::__1::complex"*, %"class.std::__1::complex"*, i64*, i64*)

declare i64 @_ZN9vfun_plusINSt3__17complexIdEES2_S2_E7iterateILN3wrt13runtime_flagsE0ELS6_0EL15increment_class0EEExPS2_PKS2_SA_RKxPSB_(%"class.std::__1::complex"*, %"class.std::__1::complex"*, %"class.std::__1::complex"*, i64*, i64*)

declare i64 @_ZN9vfun_plusINSt3__17complexIdEES2_S2_E7iterateILN3wrt13runtime_flagsE0ELS6_0EL15increment_class1EEExPS2_PKS2_SA_RKxPSB_(%"class.std::__1::complex"*, %"class.std::__1::complex"*, %"class.std::__1::complex"*, i64*, i64*)

declare i64 @_ZN9vfun_plusINSt3__17complexIdEES2_S2_E7iterateILN3wrt13runtime_flagsE0ELS6_0EL15increment_class2EEExPS2_PKS2_SA_RKxPSB_(%"class.std::__1::complex"*, %"class.std::__1::complex"*, %"class.std::__1::complex"*, i64*, i64*)

declare i64 @_ZN9vfun_plusINSt3__17complexIdEES2_S2_E7iterateILN3wrt13runtime_flagsE0ELS6_0EL15increment_class3EEExPS2_PKS2_SA_RKxPSB_(%"class.std::__1::complex"*, %"class.std::__1::complex"*, %"class.std::__1::complex"*, i64*, i64*)

declare i32 @ippsAddC_64fc(%"class.std::__1::complex"*, double, double, %"class.std::__1::complex"*, i32)

declare void @vzAdd(i64, %"class.std::__1::complex"*, %"class.std::__1::complex"*, %"class.std::__1::complex"*)

declare i64 @_ZN9vfun_plusINSt3__17complexIdEES2_S2_E7iterateILN3wrt13runtime_flagsE0ELS6_1EL15increment_class1EEExPS2_PKS2_SA_RKxPSB_(%"class.std::__1::complex"*, %"class.std::__1::complex"*, %"class.std::__1::complex"*, i64*, i64*)

declare i64 @_ZN9vfun_plusINSt3__17complexIdEES2_S2_E7iterateILN3wrt13runtime_flagsE0ELS6_1EL15increment_class2EEExPS2_PKS2_SA_RKxPSB_(%"class.std::__1::complex"*, %"class.std::__1::complex"*, %"class.std::__1::complex"*, i64*, i64*)

declare i64 @_ZN9vfun_plusINSt3__17complexIdEES2_S2_E7iterateILN3wrt13runtime_flagsE0ELS6_1EL15increment_class3EEExPS2_PKS2_SA_RKxPSB_(%"class.std::__1::complex"*, %"class.std::__1::complex"*, %"class.std::__1::complex"*, i64*, i64*)

declare i64 @_ZN9vfun_plusINSt3__17complexIdEES2_S2_E7iterateILN3wrt13runtime_flagsE1ELS6_0EL15increment_class1EEExPS2_PKS2_SA_RKxPSB_(%"class.std::__1::complex"*, %"class.std::__1::complex"*, %"class.std::__1::complex"*, i64*, i64*)

declare i64 @_ZN9vfun_plusINSt3__17complexIdEES2_S2_E7iterateILN3wrt13runtime_flagsE1ELS6_0EL15increment_class2EEExPS2_PKS2_SA_RKxPSB_(%"class.std::__1::complex"*, %"class.std::__1::complex"*, %"class.std::__1::complex"*, i64*, i64*)

declare i64 @_ZN9vfun_plusINSt3__17complexIdEES2_S2_E7iterateILN3wrt13runtime_flagsE1ELS6_0EL15increment_class3EEExPS2_PKS2_SA_RKxPSB_(%"class.std::__1::complex"*, %"class.std::__1::complex"*, %"class.std::__1::complex"*, i64*, i64*)

declare i64 @_ZN9vfun_plusINSt3__17complexIdEES2_dE7iterateILN3wrt13runtime_flagsE1ELS6_0EL15increment_class0EEExPS2_PKS2_PKdRKxPSD_(%"class.std::__1::complex"*, %"class.std::__1::complex"*, double*, i64*, i64*)

declare i64 @_ZN9vfun_plusINSt3__17complexIdEES2_dE7iterateILN3wrt13runtime_flagsE0ELS6_1EL15increment_class0EEExPS2_PKS2_PKdRKxPSD_(%"class.std::__1::complex"*, %"class.std::__1::complex"*, double*, i64*, i64*)

declare i64 @_ZN9vfun_plusINSt3__17complexIdEES2_dE7iterateILN3wrt13runtime_flagsE0ELS6_0EL15increment_class0EEExPS2_PKS2_PKdRKxPSD_(%"class.std::__1::complex"*, %"class.std::__1::complex"*, double*, i64*, i64*)

declare i64 @_ZN9vfun_plusINSt3__17complexIdEES2_dE7iterateILN3wrt13runtime_flagsE0ELS6_0EL15increment_class1EEExPS2_PKS2_PKdRKxPSD_(%"class.std::__1::complex"*, %"class.std::__1::complex"*, double*, i64*, i64*)

declare i64 @_ZN9vfun_plusINSt3__17complexIdEES2_dE7iterateILN3wrt13runtime_flagsE0ELS6_0EL15increment_class2EEExPS2_PKS2_PKdRKxPSD_(%"class.std::__1::complex"*, %"class.std::__1::complex"*, double*, i64*, i64*)

declare i64 @_ZN9vfun_plusINSt3__17complexIdEES2_dE7iterateILN3wrt13runtime_flagsE0ELS6_0EL15increment_class3EEExPS2_PKS2_PKdRKxPSD_(%"class.std::__1::complex"*, %"class.std::__1::complex"*, double*, i64*, i64*)

declare i64 @_ZN9vfun_plusINSt3__17complexIdEES2_dE7iterateILN3wrt13runtime_flagsE0ELS6_1EL15increment_class1EEExPS2_PKS2_PKdRKxPSD_(%"class.std::__1::complex"*, %"class.std::__1::complex"*, double*, i64*, i64*)

declare i64 @_ZN9vfun_plusINSt3__17complexIdEES2_dE7iterateILN3wrt13runtime_flagsE0ELS6_1EL15increment_class2EEExPS2_PKS2_PKdRKxPSD_(%"class.std::__1::complex"*, %"class.std::__1::complex"*, double*, i64*, i64*)

declare i64 @_ZN9vfun_plusINSt3__17complexIdEES2_dE7iterateILN3wrt13runtime_flagsE0ELS6_1EL15increment_class3EEExPS2_PKS2_PKdRKxPSD_(%"class.std::__1::complex"*, %"class.std::__1::complex"*, double*, i64*, i64*)

declare i64 @_ZN9vfun_plusINSt3__17complexIdEES2_dE7iterateILN3wrt13runtime_flagsE1ELS6_0EL15increment_class1EEExPS2_PKS2_PKdRKxPSD_(%"class.std::__1::complex"*, %"class.std::__1::complex"*, double*, i64*, i64*)

declare i64 @_ZN9vfun_plusINSt3__17complexIdEES2_dE7iterateILN3wrt13runtime_flagsE1ELS6_0EL15increment_class2EEExPS2_PKS2_PKdRKxPSD_(%"class.std::__1::complex"*, %"class.std::__1::complex"*, double*, i64*, i64*)

declare i64 @_ZN9vfun_plusINSt3__17complexIdEES2_dE7iterateILN3wrt13runtime_flagsE1ELS6_0EL15increment_class3EEExPS2_PKS2_PKdRKxPSD_(%"class.std::__1::complex"*, %"class.std::__1::complex"*, double*, i64*, i64*)

declare i64 @_ZN9vfun_plusINSt3__17complexIdEES2_xE7iterateILN3wrt13runtime_flagsE1ELS6_0EL15increment_class0EEExPS2_PKS2_PKxRSB_SC_(%"class.std::__1::complex"*, %"class.std::__1::complex"*, i64*, i64*, i64*)

declare i64 @_ZN9vfun_plusINSt3__17complexIdEES2_xE7iterateILN3wrt13runtime_flagsE0ELS6_1EL15increment_class0EEExPS2_PKS2_PKxRSB_SC_(%"class.std::__1::complex"*, %"class.std::__1::complex"*, i64*, i64*, i64*)

declare i64 @_ZN9vfun_plusINSt3__17complexIdEES2_xE7iterateILN3wrt13runtime_flagsE0ELS6_0EL15increment_class0EEExPS2_PKS2_PKxRSB_SC_(%"class.std::__1::complex"*, %"class.std::__1::complex"*, i64*, i64*, i64*)

declare i64 @_ZN9vfun_plusINSt3__17complexIdEES2_xE7iterateILN3wrt13runtime_flagsE0ELS6_0EL15increment_class1EEExPS2_PKS2_PKxRSB_SC_(%"class.std::__1::complex"*, %"class.std::__1::complex"*, i64*, i64*, i64*)

declare i64 @_ZN9vfun_plusINSt3__17complexIdEES2_xE7iterateILN3wrt13runtime_flagsE0ELS6_0EL15increment_class2EEExPS2_PKS2_PKxRSB_SC_(%"class.std::__1::complex"*, %"class.std::__1::complex"*, i64*, i64*, i64*)

declare i64 @_ZN9vfun_plusINSt3__17complexIdEES2_xE7iterateILN3wrt13runtime_flagsE0ELS6_0EL15increment_class3EEExPS2_PKS2_PKxRSB_SC_(%"class.std::__1::complex"*, %"class.std::__1::complex"*, i64*, i64*, i64*)

declare i64 @_ZN9vfun_plusINSt3__17complexIdEES2_xE7iterateILN3wrt13runtime_flagsE0ELS6_1EL15increment_class1EEExPS2_PKS2_PKxRSB_SC_(%"class.std::__1::complex"*, %"class.std::__1::complex"*, i64*, i64*, i64*)

declare i64 @_ZN9vfun_plusINSt3__17complexIdEES2_xE7iterateILN3wrt13runtime_flagsE0ELS6_1EL15increment_class2EEExPS2_PKS2_PKxRSB_SC_(%"class.std::__1::complex"*, %"class.std::__1::complex"*, i64*, i64*, i64*)

declare i64 @_ZN9vfun_plusINSt3__17complexIdEES2_xE7iterateILN3wrt13runtime_flagsE0ELS6_1EL15increment_class3EEExPS2_PKS2_PKxRSB_SC_(%"class.std::__1::complex"*, %"class.std::__1::complex"*, i64*, i64*, i64*)

declare i64 @_ZN9vfun_plusINSt3__17complexIdEES2_xE7iterateILN3wrt13runtime_flagsE1ELS6_0EL15increment_class1EEExPS2_PKS2_PKxRSB_SC_(%"class.std::__1::complex"*, %"class.std::__1::complex"*, i64*, i64*, i64*)

declare i64 @_ZN9vfun_plusINSt3__17complexIdEES2_xE7iterateILN3wrt13runtime_flagsE1ELS6_0EL15increment_class2EEExPS2_PKS2_PKxRSB_SC_(%"class.std::__1::complex"*, %"class.std::__1::complex"*, i64*, i64*, i64*)

declare i64 @_ZN9vfun_plusINSt3__17complexIdEES2_xE7iterateILN3wrt13runtime_flagsE1ELS6_0EL15increment_class3EEExPS2_PKS2_PKxRSB_SC_(%"class.std::__1::complex"*, %"class.std::__1::complex"*, i64*, i64*, i64*)

declare i64 @_ZN9vfun_plusINSt3__17complexIdEEdS2_E7iterateILN3wrt13runtime_flagsE1ELS6_0EL15increment_class0EEExPS2_PKdPKS2_RKxPSD_(%"class.std::__1::complex"*, double*, %"class.std::__1::complex"*, i64*, i64*)

declare i64 @_ZN9vfun_plusINSt3__17complexIdEEdS2_E7iterateILN3wrt13runtime_flagsE0ELS6_1EL15increment_class0EEExPS2_PKdPKS2_RKxPSD_(%"class.std::__1::complex"*, double*, %"class.std::__1::complex"*, i64*, i64*)

declare i64 @_ZN9vfun_plusINSt3__17complexIdEEdS2_E7iterateILN3wrt13runtime_flagsE0ELS6_0EL15increment_class0EEExPS2_PKdPKS2_RKxPSD_(%"class.std::__1::complex"*, double*, %"class.std::__1::complex"*, i64*, i64*)

declare i64 @_ZN9vfun_plusINSt3__17complexIdEEdS2_E7iterateILN3wrt13runtime_flagsE0ELS6_0EL15increment_class1EEExPS2_PKdPKS2_RKxPSD_(%"class.std::__1::complex"*, double*, %"class.std::__1::complex"*, i64*, i64*)

declare i64 @_ZN9vfun_plusINSt3__17complexIdEEdS2_E7iterateILN3wrt13runtime_flagsE0ELS6_0EL15increment_class2EEExPS2_PKdPKS2_RKxPSD_(%"class.std::__1::complex"*, double*, %"class.std::__1::complex"*, i64*, i64*)

declare i64 @_ZN9vfun_plusINSt3__17complexIdEEdS2_E7iterateILN3wrt13runtime_flagsE0ELS6_0EL15increment_class3EEExPS2_PKdPKS2_RKxPSD_(%"class.std::__1::complex"*, double*, %"class.std::__1::complex"*, i64*, i64*)

declare i64 @_ZN9vfun_plusINSt3__17complexIdEEdS2_E7iterateILN3wrt13runtime_flagsE0ELS6_1EL15increment_class1EEExPS2_PKdPKS2_RKxPSD_(%"class.std::__1::complex"*, double*, %"class.std::__1::complex"*, i64*, i64*)

declare i64 @_ZN9vfun_plusINSt3__17complexIdEEdS2_E7iterateILN3wrt13runtime_flagsE0ELS6_1EL15increment_class2EEExPS2_PKdPKS2_RKxPSD_(%"class.std::__1::complex"*, double*, %"class.std::__1::complex"*, i64*, i64*)

declare i64 @_ZN9vfun_plusINSt3__17complexIdEEdS2_E7iterateILN3wrt13runtime_flagsE0ELS6_1EL15increment_class3EEExPS2_PKdPKS2_RKxPSD_(%"class.std::__1::complex"*, double*, %"class.std::__1::complex"*, i64*, i64*)

declare i64 @_ZN9vfun_plusINSt3__17complexIdEEdS2_E7iterateILN3wrt13runtime_flagsE1ELS6_0EL15increment_class1EEExPS2_PKdPKS2_RKxPSD_(%"class.std::__1::complex"*, double*, %"class.std::__1::complex"*, i64*, i64*)

declare i64 @_ZN9vfun_plusINSt3__17complexIdEEdS2_E7iterateILN3wrt13runtime_flagsE1ELS6_0EL15increment_class2EEExPS2_PKdPKS2_RKxPSD_(%"class.std::__1::complex"*, double*, %"class.std::__1::complex"*, i64*, i64*)

declare i64 @_ZN9vfun_plusINSt3__17complexIdEEdS2_E7iterateILN3wrt13runtime_flagsE1ELS6_0EL15increment_class3EEExPS2_PKdPKS2_RKxPSD_(%"class.std::__1::complex"*, double*, %"class.std::__1::complex"*, i64*, i64*)

declare i64 @_ZN9vfun_plusIdddE7iterateILN3wrt13runtime_flagsE1ELS3_0EL15increment_class0EEExPdPKdS7_RKxPS8_(double*, double*, double*, i64*, i64*)

declare i64 @_ZN9vfun_plusIdddE7iterateILN3wrt13runtime_flagsE0ELS3_1EL15increment_class0EEExPdPKdS7_RKxPS8_(double*, double*, double*, i64*, i64*)

declare i64 @_ZN9vfun_plusIdddE7iterateILN3wrt13runtime_flagsE0ELS3_0EL15increment_class0EEExPdPKdS7_RKxPS8_(double*, double*, double*, i64*, i64*)

declare i64 @_ZN9vfun_plusIdddE7iterateILN3wrt13runtime_flagsE0ELS3_0EL15increment_class1EEExPdPKdS7_RKxPS8_(double*, double*, double*, i64*, i64*)

declare i64 @_ZN9vfun_plusIdddE7iterateILN3wrt13runtime_flagsE0ELS3_0EL15increment_class2EEExPdPKdS7_RKxPS8_(double*, double*, double*, i64*, i64*)

declare i64 @_ZN9vfun_plusIdddE7iterateILN3wrt13runtime_flagsE0ELS3_0EL15increment_class3EEExPdPKdS7_RKxPS8_(double*, double*, double*, i64*, i64*)

declare i32 @ippsAddC_64f(double*, double, double*, i32)

declare void @vdAdd(i64, double*, double*, double*)

declare i64 @_ZN9vfun_plusIdddE7iterateILN3wrt13runtime_flagsE0ELS3_1EL15increment_class1EEExPdPKdS7_RKxPS8_(double*, double*, double*, i64*, i64*)

declare i64 @_ZN9vfun_plusIdddE7iterateILN3wrt13runtime_flagsE0ELS3_1EL15increment_class2EEExPdPKdS7_RKxPS8_(double*, double*, double*, i64*, i64*)

declare i64 @_ZN9vfun_plusIdddE7iterateILN3wrt13runtime_flagsE0ELS3_1EL15increment_class3EEExPdPKdS7_RKxPS8_(double*, double*, double*, i64*, i64*)

declare i64 @_ZN9vfun_plusIdddE7iterateILN3wrt13runtime_flagsE1ELS3_0EL15increment_class1EEExPdPKdS7_RKxPS8_(double*, double*, double*, i64*, i64*)

declare i64 @_ZN9vfun_plusIdddE7iterateILN3wrt13runtime_flagsE1ELS3_0EL15increment_class2EEExPdPKdS7_RKxPS8_(double*, double*, double*, i64*, i64*)

declare i64 @_ZN9vfun_plusIdddE7iterateILN3wrt13runtime_flagsE1ELS3_0EL15increment_class3EEExPdPKdS7_RKxPS8_(double*, double*, double*, i64*, i64*)

declare i64 @_ZN9vfun_plusIddxE7iterateILN3wrt13runtime_flagsE1ELS3_0EL15increment_class0EEExPdPKdPKxRS8_S9_(double*, double*, i64*, i64*, i64*)

declare i64 @_ZN9vfun_plusIddxE7iterateILN3wrt13runtime_flagsE0ELS3_1EL15increment_class0EEExPdPKdPKxRS8_S9_(double*, double*, i64*, i64*, i64*)

declare i64 @_ZN9vfun_plusIddxE7iterateILN3wrt13runtime_flagsE0ELS3_0EL15increment_class0EEExPdPKdPKxRS8_S9_(double*, double*, i64*, i64*, i64*)

declare i64 @_ZN9vfun_plusIddxE7iterateILN3wrt13runtime_flagsE0ELS3_0EL15increment_class1EEExPdPKdPKxRS8_S9_(double*, double*, i64*, i64*, i64*)

declare i64 @_ZN9vfun_plusIddxE7iterateILN3wrt13runtime_flagsE0ELS3_0EL15increment_class2EEExPdPKdPKxRS8_S9_(double*, double*, i64*, i64*, i64*)

declare i64 @_ZN9vfun_plusIddxE7iterateILN3wrt13runtime_flagsE0ELS3_0EL15increment_class3EEExPdPKdPKxRS8_S9_(double*, double*, i64*, i64*, i64*)

declare i64 @_ZN9vfun_plusIddxE7iterateILN3wrt13runtime_flagsE0ELS3_1EL15increment_class1EEExPdPKdPKxRS8_S9_(double*, double*, i64*, i64*, i64*)

declare i64 @_ZN9vfun_plusIddxE7iterateILN3wrt13runtime_flagsE0ELS3_1EL15increment_class2EEExPdPKdPKxRS8_S9_(double*, double*, i64*, i64*, i64*)

declare i64 @_ZN9vfun_plusIddxE7iterateILN3wrt13runtime_flagsE0ELS3_1EL15increment_class3EEExPdPKdPKxRS8_S9_(double*, double*, i64*, i64*, i64*)

declare i64 @_ZN9vfun_plusIddxE7iterateILN3wrt13runtime_flagsE1ELS3_0EL15increment_class1EEExPdPKdPKxRS8_S9_(double*, double*, i64*, i64*, i64*)

declare i64 @_ZN9vfun_plusIddxE7iterateILN3wrt13runtime_flagsE1ELS3_0EL15increment_class2EEExPdPKdPKxRS8_S9_(double*, double*, i64*, i64*, i64*)

declare i64 @_ZN9vfun_plusIddxE7iterateILN3wrt13runtime_flagsE1ELS3_0EL15increment_class3EEExPdPKdPKxRS8_S9_(double*, double*, i64*, i64*, i64*)

declare i64 @_ZN9vfun_plusINSt3__17complexIdEExS2_E7iterateILN3wrt13runtime_flagsE1ELS6_0EL15increment_class0EEExPS2_PKxPKS2_RS9_SA_(%"class.std::__1::complex"*, i64*, %"class.std::__1::complex"*, i64*, i64*)

declare i64 @_ZN9vfun_plusINSt3__17complexIdEExS2_E7iterateILN3wrt13runtime_flagsE0ELS6_1EL15increment_class0EEExPS2_PKxPKS2_RS9_SA_(%"class.std::__1::complex"*, i64*, %"class.std::__1::complex"*, i64*, i64*)

declare i64 @_ZN9vfun_plusINSt3__17complexIdEExS2_E7iterateILN3wrt13runtime_flagsE0ELS6_0EL15increment_class0EEExPS2_PKxPKS2_RS9_SA_(%"class.std::__1::complex"*, i64*, %"class.std::__1::complex"*, i64*, i64*)

declare i64 @_ZN9vfun_plusINSt3__17complexIdEExS2_E7iterateILN3wrt13runtime_flagsE0ELS6_0EL15increment_class1EEExPS2_PKxPKS2_RS9_SA_(%"class.std::__1::complex"*, i64*, %"class.std::__1::complex"*, i64*, i64*)

declare i64 @_ZN9vfun_plusINSt3__17complexIdEExS2_E7iterateILN3wrt13runtime_flagsE0ELS6_0EL15increment_class2EEExPS2_PKxPKS2_RS9_SA_(%"class.std::__1::complex"*, i64*, %"class.std::__1::complex"*, i64*, i64*)

declare i64 @_ZN9vfun_plusINSt3__17complexIdEExS2_E7iterateILN3wrt13runtime_flagsE0ELS6_0EL15increment_class3EEExPS2_PKxPKS2_RS9_SA_(%"class.std::__1::complex"*, i64*, %"class.std::__1::complex"*, i64*, i64*)

declare i64 @_ZN9vfun_plusINSt3__17complexIdEExS2_E7iterateILN3wrt13runtime_flagsE0ELS6_1EL15increment_class1EEExPS2_PKxPKS2_RS9_SA_(%"class.std::__1::complex"*, i64*, %"class.std::__1::complex"*, i64*, i64*)

declare i64 @_ZN9vfun_plusINSt3__17complexIdEExS2_E7iterateILN3wrt13runtime_flagsE0ELS6_1EL15increment_class2EEExPS2_PKxPKS2_RS9_SA_(%"class.std::__1::complex"*, i64*, %"class.std::__1::complex"*, i64*, i64*)

declare i64 @_ZN9vfun_plusINSt3__17complexIdEExS2_E7iterateILN3wrt13runtime_flagsE0ELS6_1EL15increment_class3EEExPS2_PKxPKS2_RS9_SA_(%"class.std::__1::complex"*, i64*, %"class.std::__1::complex"*, i64*, i64*)

declare i64 @_ZN9vfun_plusINSt3__17complexIdEExS2_E7iterateILN3wrt13runtime_flagsE1ELS6_0EL15increment_class1EEExPS2_PKxPKS2_RS9_SA_(%"class.std::__1::complex"*, i64*, %"class.std::__1::complex"*, i64*, i64*)

declare i64 @_ZN9vfun_plusINSt3__17complexIdEExS2_E7iterateILN3wrt13runtime_flagsE1ELS6_0EL15increment_class2EEExPS2_PKxPKS2_RS9_SA_(%"class.std::__1::complex"*, i64*, %"class.std::__1::complex"*, i64*, i64*)

declare i64 @_ZN9vfun_plusINSt3__17complexIdEExS2_E7iterateILN3wrt13runtime_flagsE1ELS6_0EL15increment_class3EEExPS2_PKxPKS2_RS9_SA_(%"class.std::__1::complex"*, i64*, %"class.std::__1::complex"*, i64*, i64*)

declare i64 @_ZN9vfun_plusIdxdE7iterateILN3wrt13runtime_flagsE1ELS3_0EL15increment_class0EEExPdPKxPKdRS6_S7_(double*, i64*, double*, i64*, i64*)

declare i64 @_ZN9vfun_plusIdxdE7iterateILN3wrt13runtime_flagsE0ELS3_1EL15increment_class0EEExPdPKxPKdRS6_S7_(double*, i64*, double*, i64*, i64*)

declare i64 @_ZN9vfun_plusIdxdE7iterateILN3wrt13runtime_flagsE0ELS3_0EL15increment_class0EEExPdPKxPKdRS6_S7_(double*, i64*, double*, i64*, i64*)

declare i64 @_ZN9vfun_plusIdxdE7iterateILN3wrt13runtime_flagsE0ELS3_0EL15increment_class1EEExPdPKxPKdRS6_S7_(double*, i64*, double*, i64*, i64*)

declare i64 @_ZN9vfun_plusIdxdE7iterateILN3wrt13runtime_flagsE0ELS3_0EL15increment_class2EEExPdPKxPKdRS6_S7_(double*, i64*, double*, i64*, i64*)

declare i64 @_ZN9vfun_plusIdxdE7iterateILN3wrt13runtime_flagsE0ELS3_0EL15increment_class3EEExPdPKxPKdRS6_S7_(double*, i64*, double*, i64*, i64*)

declare i64 @_ZN9vfun_plusIdxdE7iterateILN3wrt13runtime_flagsE0ELS3_1EL15increment_class1EEExPdPKxPKdRS6_S7_(double*, i64*, double*, i64*, i64*)

declare i64 @_ZN9vfun_plusIdxdE7iterateILN3wrt13runtime_flagsE0ELS3_1EL15increment_class2EEExPdPKxPKdRS6_S7_(double*, i64*, double*, i64*, i64*)

declare i64 @_ZN9vfun_plusIdxdE7iterateILN3wrt13runtime_flagsE0ELS3_1EL15increment_class3EEExPdPKxPKdRS6_S7_(double*, i64*, double*, i64*, i64*)

declare i64 @_ZN9vfun_plusIdxdE7iterateILN3wrt13runtime_flagsE1ELS3_0EL15increment_class1EEExPdPKxPKdRS6_S7_(double*, i64*, double*, i64*, i64*)

declare i64 @_ZN9vfun_plusIdxdE7iterateILN3wrt13runtime_flagsE1ELS3_0EL15increment_class2EEExPdPKxPKdRS6_S7_(double*, i64*, double*, i64*, i64*)

declare i64 @_ZN9vfun_plusIdxdE7iterateILN3wrt13runtime_flagsE1ELS3_0EL15increment_class3EEExPdPKxPKdRS6_S7_(double*, i64*, double*, i64*, i64*)

declare i64 @_ZN9vfun_plusIxxxE7iterateILN3wrt13runtime_flagsE0ELS3_1EL15increment_class0EEExPxPKxS7_RS6_S7_(i64*, i64*, i64*, i64*, i64*)

declare i64 @_ZN9vfun_plusIxxxE7iterateILN3wrt13runtime_flagsE0ELS3_0EL15increment_class0EEExPxPKxS7_RS6_S7_(i64*, i64*, i64*, i64*, i64*)

declare i64 @_ZN9vfun_plusIxxxE7iterateILN3wrt13runtime_flagsE0ELS3_0EL15increment_class1EEExPxPKxS7_RS6_S7_(i64*, i64*, i64*, i64*, i64*)

declare i64 @_ZN9vfun_plusIxxxE7iterateILN3wrt13runtime_flagsE0ELS3_0EL15increment_class2EEExPxPKxS7_RS6_S7_(i64*, i64*, i64*, i64*, i64*)

declare i64 @_ZN9vfun_plusIxxxE7iterateILN3wrt13runtime_flagsE0ELS3_0EL15increment_class3EEExPxPKxS7_RS6_S7_(i64*, i64*, i64*, i64*, i64*)

declare i64 @_ZN9vfun_plusIxxxE7iterateILN3wrt13runtime_flagsE0ELS3_1EL15increment_class1EEExPxPKxS7_RS6_S7_(i64*, i64*, i64*, i64*, i64*)

declare i64 @_ZN9vfun_plusIxxxE7iterateILN3wrt13runtime_flagsE0ELS3_1EL15increment_class2EEExPxPKxS7_RS6_S7_(i64*, i64*, i64*, i64*, i64*)

declare i64 @_ZN9vfun_plusIxxxE7iterateILN3wrt13runtime_flagsE0ELS3_1EL15increment_class3EEExPxPKxS7_RS6_S7_(i64*, i64*, i64*, i64*, i64*)

declare i64 @machfunc_bb_bitxor(i8*, i8*, i8*, i64, i64*, i32)

declare i64 @_ZN12vfun_bit_xorIhhhE7iterateILN3wrt13runtime_flagsE0ELS3_1EL15increment_class0EEExPhPKhS7_RKxPS8_(i8*, i8*, i8*, i64*, i64*)

declare i64 @_ZN12vfun_bit_xorIhhhE7iterateILN3wrt13runtime_flagsE0ELS3_0EL15increment_class0EEExPhPKhS7_RKxPS8_(i8*, i8*, i8*, i64*, i64*)

declare void @.omp_outlined..34(i32*, i32*, i64*, i64*, i64*, i64*, i64*, i64*, i64*, i64*, i64*, i64 (i8*, i8*, i8*, i64*, i64*)**, i8**, i8**, i8**, i64**)

declare i64 @_ZN12vfun_bit_xorIhhhE7iterateILN3wrt13runtime_flagsE0ELS3_0EL15increment_class1EEExPhPKhS7_RKxPS8_(i8*, i8*, i8*, i64*, i64*)

declare i64 @_ZN12vfun_bit_xorIhhhE7iterateILN3wrt13runtime_flagsE0ELS3_0EL15increment_class2EEExPhPKhS7_RKxPS8_(i8*, i8*, i8*, i64*, i64*)

declare i64 @_ZN12vfun_bit_xorIhhhE7iterateILN3wrt13runtime_flagsE0ELS3_0EL15increment_class3EEExPhPKhS7_RKxPS8_(i8*, i8*, i8*, i64*, i64*)

declare i64 @_ZN12vfun_bit_xorIhhhE7iterateILN3wrt13runtime_flagsE0ELS3_1EL15increment_class1EEExPhPKhS7_RKxPS8_(i8*, i8*, i8*, i64*, i64*)

declare i64 @_ZN12vfun_bit_xorIhhhE7iterateILN3wrt13runtime_flagsE0ELS3_1EL15increment_class2EEExPhPKhS7_RKxPS8_(i8*, i8*, i8*, i64*, i64*)

declare i64 @_ZN12vfun_bit_xorIhhhE7iterateILN3wrt13runtime_flagsE0ELS3_1EL15increment_class3EEExPhPKhS7_RKxPS8_(i8*, i8*, i8*, i64*, i64*)

declare i64 @_Z16machfunc_ci_rootPvPKvS1_xPKxj(i8*, i8*, i8*, i64, i64*, i32)

declare i64 @_ZN9vfun_rootINSt3__17complexIdEES2_xE7iterateILN3wrt13runtime_flagsE1ELS6_0EL15increment_class0EEExPS2_PKS2_PKxRSB_SC_(%"class.std::__1::complex"*, %"class.std::__1::complex"*, i64*, i64*, i64*)

declare i64 @_ZN9vfun_rootINSt3__17complexIdEES2_xE7iterateILN3wrt13runtime_flagsE0ELS6_1EL15increment_class0EEExPS2_PKS2_PKxRSB_SC_(%"class.std::__1::complex"*, %"class.std::__1::complex"*, i64*, i64*, i64*)

declare i64 @_ZN9vfun_rootINSt3__17complexIdEES2_xE7iterateILN3wrt13runtime_flagsE0ELS6_0EL15increment_class0EEExPS2_PKS2_PKxRSB_SC_(%"class.std::__1::complex"*, %"class.std::__1::complex"*, i64*, i64*, i64*)

declare { double, double } @_ZN3wrt9scalar_op6binaryL7root_opINSt3__17complexIdEExLNS_13runtime_flagsE0EEENS3_9enable_ifIXaasr10is_complexIT_EE5valuesr18is_signed_integralIT0_EE5valueENS1_6detail7op_infoILNSA_2opE22EN7rt_typeIS8_E4typeENSD_IS9_E4typeEE11result_typeEE4typeERKNSI_19first_argument_typeERKNSI_20second_argument_typeE(%"class.std::__1::complex"*, i64)

declare { double, double } @_ZN3wrt9scalar_op6binaryL7root_opINSt3__17complexIdEExLNS_13runtime_flagsE1EEENS3_9enable_ifIXaasr10is_complexIT_EE5valuesr18is_signed_integralIT0_EE5valueENS1_6detail7op_infoILNSA_2opE22EN7rt_typeIS8_E4typeENSD_IS9_E4typeEE11result_typeEE4typeERKNSI_19first_argument_typeERKNSI_20second_argument_typeE(%"class.std::__1::complex"*, i64)

declare i64 @_ZN9vfun_rootINSt3__17complexIdEES2_xE7iterateILN3wrt13runtime_flagsE0ELS6_0EL15increment_class1EEExPS2_PKS2_PKxRSB_SC_(%"class.std::__1::complex"*, %"class.std::__1::complex"*, i64*, i64*, i64*)

declare i64 @_ZN9vfun_rootINSt3__17complexIdEES2_xE7iterateILN3wrt13runtime_flagsE0ELS6_0EL15increment_class2EEExPS2_PKS2_PKxRSB_SC_(%"class.std::__1::complex"*, %"class.std::__1::complex"*, i64*, i64*, i64*)

declare i64 @_ZN9vfun_rootINSt3__17complexIdEES2_xE7iterateILN3wrt13runtime_flagsE0ELS6_0EL15increment_class3EEExPS2_PKS2_PKxRSB_SC_(%"class.std::__1::complex"*, %"class.std::__1::complex"*, i64*, i64*, i64*)

declare i64 @_ZN9vfun_rootINSt3__17complexIdEES2_xE7iterateILN3wrt13runtime_flagsE0ELS6_1EL15increment_class1EEExPS2_PKS2_PKxRSB_SC_(%"class.std::__1::complex"*, %"class.std::__1::complex"*, i64*, i64*, i64*)

declare i64 @_ZN9vfun_rootINSt3__17complexIdEES2_xE7iterateILN3wrt13runtime_flagsE0ELS6_1EL15increment_class2EEExPS2_PKS2_PKxRSB_SC_(%"class.std::__1::complex"*, %"class.std::__1::complex"*, i64*, i64*, i64*)

declare i64 @_ZN9vfun_rootINSt3__17complexIdEES2_xE7iterateILN3wrt13runtime_flagsE0ELS6_1EL15increment_class3EEExPS2_PKS2_PKxRSB_SC_(%"class.std::__1::complex"*, %"class.std::__1::complex"*, i64*, i64*, i64*)

declare i64 @_ZN9vfun_rootINSt3__17complexIdEES2_xE7iterateILN3wrt13runtime_flagsE1ELS6_0EL15increment_class1EEExPS2_PKS2_PKxRSB_SC_(%"class.std::__1::complex"*, %"class.std::__1::complex"*, i64*, i64*, i64*)

declare i64 @_ZN9vfun_rootINSt3__17complexIdEES2_xE7iterateILN3wrt13runtime_flagsE1ELS6_0EL15increment_class2EEExPS2_PKS2_PKxRSB_SC_(%"class.std::__1::complex"*, %"class.std::__1::complex"*, i64*, i64*, i64*)

declare i64 @_ZN9vfun_rootINSt3__17complexIdEES2_xE7iterateILN3wrt13runtime_flagsE1ELS6_0EL15increment_class3EEExPS2_PKS2_PKxRSB_SC_(%"class.std::__1::complex"*, %"class.std::__1::complex"*, i64*, i64*, i64*)

declare i32 @ReturnRangeType2(i32, i32, i32)

declare i32 @ReturnType2(i32, i32, i32)

declare i64 @machfunc_iii_axpy(i8*, i8*, i8*, i8*, i64, i64*, i32)

declare i64 @_ZN9vfun_axpyIxxxxE7iterateILN3wrt13runtime_flagsE0ELS3_1EL15increment_class1EEExPxPKxS7_S7_RS6_S7_(i64*, i64*, i64*, i64*, i64*, i64*)

declare i64 @_ZN9vfun_axpyIxxxxE7iterateILN3wrt13runtime_flagsE0ELS3_1EL15increment_class0EEExPxPKxS7_S7_RS6_S7_(i64*, i64*, i64*, i64*, i64*, i64*)

declare i64 @_ZN9vfun_axpyIxxxxE7iterateILN3wrt13runtime_flagsE0ELS3_0EL15increment_class1EEExPxPKxS7_S7_RS6_S7_(i64*, i64*, i64*, i64*, i64*, i64*)

declare i64 @_ZN9vfun_axpyIxxxxE7iterateILN3wrt13runtime_flagsE0ELS3_0EL15increment_class0EEExPxPKxS7_S7_RS6_S7_(i64*, i64*, i64*, i64*, i64*, i64*)

declare i64 @_ZL9vfun3_runIxxxxExPFxPT_PKT0_PKT1_PKT2_RKxPSB_ES1_S4_S7_SA_SC_SD_(i64 (i64*, i64*, i64*, i64*, i64*, i64*)*, i64*, i64*, i64*, i64*, i64*, i64*)

declare void @.omp_outlined..53(i32*, i32*, i64*, i64*, i64*, i64*, i64*, i64*, i64*, i64*, i64*, i64*, i64 (i64*, i64*, i64*, i64*, i64*, i64*)**, i64**, i64**, i64**, i64**, i64**)

declare i64 @_ZN3wrt9scalar_op7ternaryL7axpy_opIxxxLNS_13runtime_flagsE1EEENSt3__19enable_ifIXaaaasr11is_integralIT_EE5valuesr11is_integralIT0_EE5valuesr11is_integralIT1_EE5valueENS1_6detail7op_infoILNS9_2opE3EN7rt_typeIS6_E4typeENSC_IS7_E4typeENSC_IS8_E4typeEE11result_typeEE4typeERKNSJ_19first_argument_typeERKNSJ_20second_argument_typeERKNSJ_19third_argument_typeE(i64, i64, i64*)

declare i64 @machfunc_ddd_axpy(i8*, i8*, i8*, i8*, i64, i64*, i32)

declare i64 @_ZN9vfun_axpyIddddE7iterateILN3wrt13runtime_flagsE1ELS3_0EL15increment_class1EEExPdPKdS7_S7_RKxPS8_(double*, double*, double*, double*, i64*, i64*)

declare i64 @_ZN9vfun_axpyIddddE7iterateILN3wrt13runtime_flagsE1ELS3_0EL15increment_class0EEExPdPKdS7_S7_RKxPS8_(double*, double*, double*, double*, i64*, i64*)

declare i64 @_ZN9vfun_axpyIddddE7iterateILN3wrt13runtime_flagsE0ELS3_1EL15increment_class1EEExPdPKdS7_S7_RKxPS8_(double*, double*, double*, double*, i64*, i64*)

declare i64 @_ZN9vfun_axpyIddddE7iterateILN3wrt13runtime_flagsE0ELS3_1EL15increment_class0EEExPdPKdS7_S7_RKxPS8_(double*, double*, double*, double*, i64*, i64*)

declare i64 @_ZN9vfun_axpyIddddE7iterateILN3wrt13runtime_flagsE0ELS3_0EL15increment_class1EEExPdPKdS7_S7_RKxPS8_(double*, double*, double*, double*, i64*, i64*)

declare i64 @_ZN9vfun_axpyIddddE7iterateILN3wrt13runtime_flagsE0ELS3_0EL15increment_class0EEExPdPKdS7_S7_RKxPS8_(double*, double*, double*, double*, i64*, i64*)

declare i64 @_ZL9vfun3_runIddddExPFxPT_PKT0_PKT1_PKT2_RKxPSB_ES1_S4_S7_SA_SC_SD_(i64 (double*, double*, double*, double*, i64*, i64*)*, double*, double*, double*, double*, i64*, i64*)

declare void @.omp_outlined..2.55(i32*, i32*, i64*, i64*, i64*, i64*, i64*, i64*, i64*, i64*, i64*, i64*, i64 (double*, double*, double*, double*, i64*, i64*)**, double**, double**, double**, double**, i64**)

declare i64 @machfunc_ccc_axpy(i8*, i8*, i8*, i8*, i64, i64*, i32)

declare i64 @_ZN9vfun_axpyINSt3__17complexIdEES2_S2_S2_E7iterateILN3wrt13runtime_flagsE1ELS6_0EL15increment_class1EEExPS2_PKS2_SA_SA_RKxPSB_(%"class.std::__1::complex"*, %"class.std::__1::complex"*, %"class.std::__1::complex"*, %"class.std::__1::complex"*, i64*, i64*)

declare i64 @_ZN9vfun_axpyINSt3__17complexIdEES2_S2_S2_E7iterateILN3wrt13runtime_flagsE1ELS6_0EL15increment_class0EEExPS2_PKS2_SA_SA_RKxPSB_(%"class.std::__1::complex"*, %"class.std::__1::complex"*, %"class.std::__1::complex"*, %"class.std::__1::complex"*, i64*, i64*)

declare i64 @_ZN9vfun_axpyINSt3__17complexIdEES2_S2_S2_E7iterateILN3wrt13runtime_flagsE0ELS6_1EL15increment_class1EEExPS2_PKS2_SA_SA_RKxPSB_(%"class.std::__1::complex"*, %"class.std::__1::complex"*, %"class.std::__1::complex"*, %"class.std::__1::complex"*, i64*, i64*)

declare i64 @_ZN9vfun_axpyINSt3__17complexIdEES2_S2_S2_E7iterateILN3wrt13runtime_flagsE0ELS6_1EL15increment_class0EEExPS2_PKS2_SA_SA_RKxPSB_(%"class.std::__1::complex"*, %"class.std::__1::complex"*, %"class.std::__1::complex"*, %"class.std::__1::complex"*, i64*, i64*)

declare i64 @_ZN9vfun_axpyINSt3__17complexIdEES2_S2_S2_E7iterateILN3wrt13runtime_flagsE0ELS6_0EL15increment_class1EEExPS2_PKS2_SA_SA_RKxPSB_(%"class.std::__1::complex"*, %"class.std::__1::complex"*, %"class.std::__1::complex"*, %"class.std::__1::complex"*, i64*, i64*)

declare i64 @_ZN9vfun_axpyINSt3__17complexIdEES2_S2_S2_E7iterateILN3wrt13runtime_flagsE0ELS6_0EL15increment_class0EEExPS2_PKS2_SA_SA_RKxPSB_(%"class.std::__1::complex"*, %"class.std::__1::complex"*, %"class.std::__1::complex"*, %"class.std::__1::complex"*, i64*, i64*)

declare i64 @_ZL9vfun3_runINSt3__17complexIdEES2_S2_S2_ExPFxPT_PKT0_PKT1_PKT2_RKxPSE_ES4_S7_SA_SD_SF_SG_(i64 (%"class.std::__1::complex"*, %"class.std::__1::complex"*, %"class.std::__1::complex"*, %"class.std::__1::complex"*, i64*, i64*)*, %"class.std::__1::complex"*, %"class.std::__1::complex"*, %"class.std::__1::complex"*, %"class.std::__1::complex"*, i64*, i64*)

declare void @.omp_outlined..4.56(i32*, i32*, i64*, i64*, i64*, i64*, i64*, i64*, i64*, i64*, i64*, i64*, i64 (%"class.std::__1::complex"*, %"class.std::__1::complex"*, %"class.std::__1::complex"*, %"class.std::__1::complex"*, i64*, i64*)**, %"class.std::__1::complex"**, %"class.std::__1::complex"**, %"class.std::__1::complex"**, %"class.std::__1::complex"**, i64**)

declare { double, double } @_ZN3wrt9scalar_op7ternaryL7axpy_opINSt3__17complexIdEES5_S5_LNS_13runtime_flagsE1EEENS3_9enable_ifIXoooosr28is_floating_point_or_complexIT_EE5valuesr28is_floating_point_or_complexIT0_EE5valuesr28is_floating_point_or_complexIT1_EE5valueENS1_6detail7op_infoILNSB_2opE3EN7rt_typeIS8_E4typeENSE_IS9_E4typeENSE_ISA_E4typeEE11result_typeEE4typeERKNSL_19first_argument_typeERKNSL_20second_argument_typeERKNSL_19third_argument_typeE(%"class.std::__1::complex"*, %"class.std::__1::complex"*, double, double)

declare i64 @machfunc_iii_axmy(i8*, i8*, i8*, i8*, i64, i64*, i32)

declare i64 @_ZN9vfun_axmyIxxxxE7iterateILN3wrt13runtime_flagsE0ELS3_1EL15increment_class1EEExPxPKxS7_S7_RS6_S7_(i64*, i64*, i64*, i64*, i64*, i64*)

declare i64 @_ZN9vfun_axmyIxxxxE7iterateILN3wrt13runtime_flagsE0ELS3_1EL15increment_class0EEExPxPKxS7_S7_RS6_S7_(i64*, i64*, i64*, i64*, i64*, i64*)

declare i64 @_ZN9vfun_axmyIxxxxE7iterateILN3wrt13runtime_flagsE0ELS3_0EL15increment_class1EEExPxPKxS7_S7_RS6_S7_(i64*, i64*, i64*, i64*, i64*, i64*)

declare i64 @_ZN9vfun_axmyIxxxxE7iterateILN3wrt13runtime_flagsE0ELS3_0EL15increment_class0EEExPxPKxS7_S7_RS6_S7_(i64*, i64*, i64*, i64*, i64*, i64*)

declare i64 @machfunc_ddd_axmy(i8*, i8*, i8*, i8*, i64, i64*, i32)

declare i64 @_ZN9vfun_axmyIddddE7iterateILN3wrt13runtime_flagsE1ELS3_0EL15increment_class1EEExPdPKdS7_S7_RKxPS8_(double*, double*, double*, double*, i64*, i64*)

declare i64 @_ZN9vfun_axmyIddddE7iterateILN3wrt13runtime_flagsE1ELS3_0EL15increment_class0EEExPdPKdS7_S7_RKxPS8_(double*, double*, double*, double*, i64*, i64*)

declare i64 @_ZN9vfun_axmyIddddE7iterateILN3wrt13runtime_flagsE0ELS3_1EL15increment_class1EEExPdPKdS7_S7_RKxPS8_(double*, double*, double*, double*, i64*, i64*)

declare i64 @_ZN9vfun_axmyIddddE7iterateILN3wrt13runtime_flagsE0ELS3_1EL15increment_class0EEExPdPKdS7_S7_RKxPS8_(double*, double*, double*, double*, i64*, i64*)

declare i64 @_ZN9vfun_axmyIddddE7iterateILN3wrt13runtime_flagsE0ELS3_0EL15increment_class1EEExPdPKdS7_S7_RKxPS8_(double*, double*, double*, double*, i64*, i64*)

declare i64 @_ZN9vfun_axmyIddddE7iterateILN3wrt13runtime_flagsE0ELS3_0EL15increment_class0EEExPdPKdS7_S7_RKxPS8_(double*, double*, double*, double*, i64*, i64*)

declare i64 @machfunc_ccc_axmy(i8*, i8*, i8*, i8*, i64, i64*, i32)

declare i64 @_ZN9vfun_axmyINSt3__17complexIdEES2_S2_S2_E7iterateILN3wrt13runtime_flagsE1ELS6_0EL15increment_class1EEExPS2_PKS2_SA_SA_RKxPSB_(%"class.std::__1::complex"*, %"class.std::__1::complex"*, %"class.std::__1::complex"*, %"class.std::__1::complex"*, i64*, i64*)

declare i64 @_ZN9vfun_axmyINSt3__17complexIdEES2_S2_S2_E7iterateILN3wrt13runtime_flagsE1ELS6_0EL15increment_class0EEExPS2_PKS2_SA_SA_RKxPSB_(%"class.std::__1::complex"*, %"class.std::__1::complex"*, %"class.std::__1::complex"*, %"class.std::__1::complex"*, i64*, i64*)

declare i64 @_ZN9vfun_axmyINSt3__17complexIdEES2_S2_S2_E7iterateILN3wrt13runtime_flagsE0ELS6_1EL15increment_class1EEExPS2_PKS2_SA_SA_RKxPSB_(%"class.std::__1::complex"*, %"class.std::__1::complex"*, %"class.std::__1::complex"*, %"class.std::__1::complex"*, i64*, i64*)

declare i64 @_ZN9vfun_axmyINSt3__17complexIdEES2_S2_S2_E7iterateILN3wrt13runtime_flagsE0ELS6_1EL15increment_class0EEExPS2_PKS2_SA_SA_RKxPSB_(%"class.std::__1::complex"*, %"class.std::__1::complex"*, %"class.std::__1::complex"*, %"class.std::__1::complex"*, i64*, i64*)

declare i64 @_ZN9vfun_axmyINSt3__17complexIdEES2_S2_S2_E7iterateILN3wrt13runtime_flagsE0ELS6_0EL15increment_class1EEExPS2_PKS2_SA_SA_RKxPSB_(%"class.std::__1::complex"*, %"class.std::__1::complex"*, %"class.std::__1::complex"*, %"class.std::__1::complex"*, i64*, i64*)

declare i64 @_ZN9vfun_axmyINSt3__17complexIdEES2_S2_S2_E7iterateILN3wrt13runtime_flagsE0ELS6_0EL15increment_class0EEExPS2_PKS2_SA_SA_RKxPSB_(%"class.std::__1::complex"*, %"class.std::__1::complex"*, %"class.std::__1::complex"*, %"class.std::__1::complex"*, i64*, i64*)

declare { double, double } @_ZN3wrt9scalar_op7ternaryL7axmy_opINSt3__17complexIdEES5_S5_LNS_13runtime_flagsE1EEENS3_9enable_ifIXoooosr28is_floating_point_or_complexIT_EE5valuesr28is_floating_point_or_complexIT0_EE5valuesr28is_floating_point_or_complexIT1_EE5valueENS1_6detail7op_infoILNSB_2opE2EN7rt_typeIS8_E4typeENSE_IS9_E4typeENSE_ISA_E4typeEE11result_typeEE4typeERKNSL_19first_argument_typeERKNSL_20second_argument_typeERKNSL_19third_argument_typeE(%"class.std::__1::complex"*, %"class.std::__1::complex"*, double, double)

declare i64 @machfunc_iii_ymax(i8*, i8*, i8*, i8*, i64, i64*, i32)

declare i64 @_ZN9vfun_ymaxIxxxxE7iterateILN3wrt13runtime_flagsE0ELS3_1EL15increment_class1EEExPxPKxS7_S7_RS6_S7_(i64*, i64*, i64*, i64*, i64*, i64*)

declare i64 @_ZN9vfun_ymaxIxxxxE7iterateILN3wrt13runtime_flagsE0ELS3_1EL15increment_class0EEExPxPKxS7_S7_RS6_S7_(i64*, i64*, i64*, i64*, i64*, i64*)

declare i64 @_ZN9vfun_ymaxIxxxxE7iterateILN3wrt13runtime_flagsE0ELS3_0EL15increment_class1EEExPxPKxS7_S7_RS6_S7_(i64*, i64*, i64*, i64*, i64*, i64*)

declare i64 @_ZN9vfun_ymaxIxxxxE7iterateILN3wrt13runtime_flagsE0ELS3_0EL15increment_class0EEExPxPKxS7_S7_RS6_S7_(i64*, i64*, i64*, i64*, i64*, i64*)

declare i64 @_ZN3wrt9scalar_op7ternaryL7ymax_opIxxxLNS_13runtime_flagsE1EEENSt3__19enable_ifIXaaaasr11is_integralIT_EE5valuesr11is_integralIT0_EE5valuesr11is_integralIT1_EE5valueENS1_6detail7op_infoILNS9_2opE5EN7rt_typeIS6_E4typeENSC_IS7_E4typeENSC_IS8_E4typeEE11result_typeEE4typeERKNSJ_19first_argument_typeERKNSJ_20second_argument_typeERKNSJ_19third_argument_typeE(i64, i64, i64*)

declare i64 @machfunc_ddd_ymax(i8*, i8*, i8*, i8*, i64, i64*, i32)

declare i64 @_ZN9vfun_ymaxIddddE7iterateILN3wrt13runtime_flagsE1ELS3_0EL15increment_class1EEExPdPKdS7_S7_RKxPS8_(double*, double*, double*, double*, i64*, i64*)

declare i64 @_ZN9vfun_ymaxIddddE7iterateILN3wrt13runtime_flagsE1ELS3_0EL15increment_class0EEExPdPKdS7_S7_RKxPS8_(double*, double*, double*, double*, i64*, i64*)

declare i64 @_ZN9vfun_ymaxIddddE7iterateILN3wrt13runtime_flagsE0ELS3_1EL15increment_class1EEExPdPKdS7_S7_RKxPS8_(double*, double*, double*, double*, i64*, i64*)

declare i64 @_ZN9vfun_ymaxIddddE7iterateILN3wrt13runtime_flagsE0ELS3_1EL15increment_class0EEExPdPKdS7_S7_RKxPS8_(double*, double*, double*, double*, i64*, i64*)

declare i64 @_ZN9vfun_ymaxIddddE7iterateILN3wrt13runtime_flagsE0ELS3_0EL15increment_class1EEExPdPKdS7_S7_RKxPS8_(double*, double*, double*, double*, i64*, i64*)

declare i64 @_ZN9vfun_ymaxIddddE7iterateILN3wrt13runtime_flagsE0ELS3_0EL15increment_class0EEExPdPKdS7_S7_RKxPS8_(double*, double*, double*, double*, i64*, i64*)

declare i64 @machfunc_ccc_ymax(i8*, i8*, i8*, i8*, i64, i64*, i32)

declare i64 @_ZN9vfun_ymaxINSt3__17complexIdEES2_S2_S2_E7iterateILN3wrt13runtime_flagsE1ELS6_0EL15increment_class1EEExPS2_PKS2_SA_SA_RKxPSB_(%"class.std::__1::complex"*, %"class.std::__1::complex"*, %"class.std::__1::complex"*, %"class.std::__1::complex"*, i64*, i64*)

declare i64 @_ZN9vfun_ymaxINSt3__17complexIdEES2_S2_S2_E7iterateILN3wrt13runtime_flagsE1ELS6_0EL15increment_class0EEExPS2_PKS2_SA_SA_RKxPSB_(%"class.std::__1::complex"*, %"class.std::__1::complex"*, %"class.std::__1::complex"*, %"class.std::__1::complex"*, i64*, i64*)

declare i64 @_ZN9vfun_ymaxINSt3__17complexIdEES2_S2_S2_E7iterateILN3wrt13runtime_flagsE0ELS6_1EL15increment_class1EEExPS2_PKS2_SA_SA_RKxPSB_(%"class.std::__1::complex"*, %"class.std::__1::complex"*, %"class.std::__1::complex"*, %"class.std::__1::complex"*, i64*, i64*)

declare i64 @_ZN9vfun_ymaxINSt3__17complexIdEES2_S2_S2_E7iterateILN3wrt13runtime_flagsE0ELS6_1EL15increment_class0EEExPS2_PKS2_SA_SA_RKxPSB_(%"class.std::__1::complex"*, %"class.std::__1::complex"*, %"class.std::__1::complex"*, %"class.std::__1::complex"*, i64*, i64*)

declare i64 @_ZN9vfun_ymaxINSt3__17complexIdEES2_S2_S2_E7iterateILN3wrt13runtime_flagsE0ELS6_0EL15increment_class1EEExPS2_PKS2_SA_SA_RKxPSB_(%"class.std::__1::complex"*, %"class.std::__1::complex"*, %"class.std::__1::complex"*, %"class.std::__1::complex"*, i64*, i64*)

declare i64 @_ZN9vfun_ymaxINSt3__17complexIdEES2_S2_S2_E7iterateILN3wrt13runtime_flagsE0ELS6_0EL15increment_class0EEExPS2_PKS2_SA_SA_RKxPSB_(%"class.std::__1::complex"*, %"class.std::__1::complex"*, %"class.std::__1::complex"*, %"class.std::__1::complex"*, i64*, i64*)

declare { double, double } @_ZN3wrt9scalar_op7ternaryL7ymax_opINSt3__17complexIdEES5_S5_LNS_13runtime_flagsE1EEENS3_9enable_ifIXoooosr28is_floating_point_or_complexIT_EE5valuesr28is_floating_point_or_complexIT0_EE5valuesr28is_floating_point_or_complexIT1_EE5valueENS1_6detail7op_infoILNSB_2opE5EN7rt_typeIS8_E4typeENSE_IS9_E4typeENSE_ISA_E4typeEE11result_typeEE4typeERKNSL_19first_argument_typeERKNSL_20second_argument_typeERKNSL_19third_argument_typeE(%"class.std::__1::complex"*, %"class.std::__1::complex"*, double, double)

declare i64 @machfunc_ddd_adxmy(i8*, i8*, i8*, i8*, i64, i64*, i32)

declare i64 @_ZN10vfun_adxmyIddddE7iterateILN3wrt13runtime_flagsE1ELS3_0EL15increment_class1EEExPdPKdS7_S7_RKxPS8_(double*, double*, double*, double*, i64*, i64*)

declare i64 @_ZN10vfun_adxmyIddddE7iterateILN3wrt13runtime_flagsE1ELS3_0EL15increment_class0EEExPdPKdS7_S7_RKxPS8_(double*, double*, double*, double*, i64*, i64*)

declare i64 @_ZN10vfun_adxmyIddddE7iterateILN3wrt13runtime_flagsE0ELS3_1EL15increment_class1EEExPdPKdS7_S7_RKxPS8_(double*, double*, double*, double*, i64*, i64*)

declare i64 @_ZN10vfun_adxmyIddddE7iterateILN3wrt13runtime_flagsE0ELS3_1EL15increment_class0EEExPdPKdS7_S7_RKxPS8_(double*, double*, double*, double*, i64*, i64*)

declare i64 @_ZN10vfun_adxmyIddddE7iterateILN3wrt13runtime_flagsE0ELS3_0EL15increment_class1EEExPdPKdS7_S7_RKxPS8_(double*, double*, double*, double*, i64*, i64*)

declare i64 @_ZN10vfun_adxmyIddddE7iterateILN3wrt13runtime_flagsE0ELS3_0EL15increment_class0EEExPdPKdS7_S7_RKxPS8_(double*, double*, double*, double*, i64*, i64*)

declare double @_ZN3wrt9scalar_op7ternaryL8adxmy_opIdddLNS_13runtime_flagsE1EEENSt3__19enable_ifIXoooosr28is_floating_point_or_complexIT_EE5valuesr28is_floating_point_or_complexIT0_EE5valuesr28is_floating_point_or_complexIT1_EE5valueENS1_6detail7op_infoILNS9_2opE1EN7rt_typeIS6_E4typeENSC_IS7_E4typeENSC_IS8_E4typeEE11result_typeEE4typeERKNSJ_19first_argument_typeERKNSJ_20second_argument_typeERKNSJ_19third_argument_typeE(double, double, double)

declare i64 @machfunc_ccc_adxmy(i8*, i8*, i8*, i8*, i64, i64*, i32)

declare i64 @_ZN10vfun_adxmyINSt3__17complexIdEES2_S2_S2_E7iterateILN3wrt13runtime_flagsE1ELS6_0EL15increment_class1EEExPS2_PKS2_SA_SA_RKxPSB_(%"class.std::__1::complex"*, %"class.std::__1::complex"*, %"class.std::__1::complex"*, %"class.std::__1::complex"*, i64*, i64*)

declare i64 @_ZN10vfun_adxmyINSt3__17complexIdEES2_S2_S2_E7iterateILN3wrt13runtime_flagsE1ELS6_0EL15increment_class0EEExPS2_PKS2_SA_SA_RKxPSB_(%"class.std::__1::complex"*, %"class.std::__1::complex"*, %"class.std::__1::complex"*, %"class.std::__1::complex"*, i64*, i64*)

declare i64 @_ZN10vfun_adxmyINSt3__17complexIdEES2_S2_S2_E7iterateILN3wrt13runtime_flagsE0ELS6_1EL15increment_class1EEExPS2_PKS2_SA_SA_RKxPSB_(%"class.std::__1::complex"*, %"class.std::__1::complex"*, %"class.std::__1::complex"*, %"class.std::__1::complex"*, i64*, i64*)

declare i64 @_ZN10vfun_adxmyINSt3__17complexIdEES2_S2_S2_E7iterateILN3wrt13runtime_flagsE0ELS6_1EL15increment_class0EEExPS2_PKS2_SA_SA_RKxPSB_(%"class.std::__1::complex"*, %"class.std::__1::complex"*, %"class.std::__1::complex"*, %"class.std::__1::complex"*, i64*, i64*)

declare i64 @_ZN10vfun_adxmyINSt3__17complexIdEES2_S2_S2_E7iterateILN3wrt13runtime_flagsE0ELS6_0EL15increment_class1EEExPS2_PKS2_SA_SA_RKxPSB_(%"class.std::__1::complex"*, %"class.std::__1::complex"*, %"class.std::__1::complex"*, %"class.std::__1::complex"*, i64*, i64*)

declare i64 @_ZN10vfun_adxmyINSt3__17complexIdEES2_S2_S2_E7iterateILN3wrt13runtime_flagsE0ELS6_0EL15increment_class0EEExPS2_PKS2_SA_SA_RKxPSB_(%"class.std::__1::complex"*, %"class.std::__1::complex"*, %"class.std::__1::complex"*, %"class.std::__1::complex"*, i64*, i64*)

declare { double, double } @_ZN3wrt9scalar_op7ternaryL8adxmy_opINSt3__17complexIdEES5_S5_LNS_13runtime_flagsE1EEENS3_9enable_ifIXoooosr28is_floating_point_or_complexIT_EE5valuesr28is_floating_point_or_complexIT0_EE5valuesr28is_floating_point_or_complexIT1_EE5valueENS1_6detail7op_infoILNSB_2opE1EN7rt_typeIS8_E4typeENSE_IS9_E4typeENSE_ISA_E4typeEE11result_typeEE4typeERKNSL_19first_argument_typeERKNSL_20second_argument_typeERKNSL_19third_argument_typeE(%"class.std::__1::complex"*, %"class.std::__1::complex"*, %"class.std::__1::complex"*)

declare i64 @machfunc_ddd_compplus(double*, double*, double*, double*, i64, i64*, i32)

declare i64 @machfunc_ccc_compplus(%"class.std::__1::complex"*, %"class.std::__1::complex"*, %"class.std::__1::complex"*, %"class.std::__1::complex"*, i64, i64*, i32)

declare i32 @machfunc_d_vectornorm(double*, i64, double*, i64, i64, i32)

declare double @dasum_(i64*, double*, i64*)

declare double @dnrm2_(i64*, double*, i64*)

declare i64 @idamax_(i64*, double*, i64*)

declare i32 @machfunc_c_vectornorm(double*, i64, %"class.std::__1::complex"*, i64, i64, i32)

declare double @dznrm2_(i64*, %"class.std::__1::complex"*, i64*)

declare i32 @machfunc_d_weightedvectornorm(double*, i64, double*, double*, i64, i32, i32)

declare i32 @machfunc_c_weightedvectornorm(double*, i64, %"class.std::__1::complex"*, double*, i64, i32, i32)

declare i64 @machfunc_d_vectornormweights(double*, double, double, double*, i64, i32)

declare i64 @machfunc_c_vectornormweights(double*, double, double, %"class.std::__1::complex"*, i64, i32)

declare i32 @machfunc_d_scaledvectornorm(double*, i64, double, double, double*, double*, i64, i32, i32)

declare i32 @machfunc_c_scaledvectornorm(double*, i64, double, double, %"class.std::__1::complex"*, %"class.std::__1::complex"*, i64, i32, i32)

declare i32 @getProcessorCount()

declare i32 @getHyperThreadCount()

declare i32 @getMKLThreadNumber()

declare i32 @setMKLThreadNumber(i32)

declare i32 @MKL_Domain_Set_Num_Threads(i32, i32)

declare void @restoreMKLThreadNumber(i32)

declare i32 @getParallelThreadNumber()

declare i32 @setParallelThreadNumber(i32)

declare void @omp_set_num_threads(i32)

declare void @restoreParallelThreadNumber(i32)

declare void @_Z20init_parallel_paramsi(i32)

declare void @MKL_Set_Dynamic(i32)

declare i32 @MKL_Get_Max_Threads()

declare i32 @vmlSetMode(i64)

declare i32 @ParallelThreadsEnvironment_initializedQ()

declare %struct.st_ParallelThreadsSchedule* @New_ParallelThreadsSchedule(i64, i64)

declare %struct.st_ParallelThreadsSchedule* @New_ParallelThreadsScheduleSingle()

declare void @Delete_ParallelThreadsSchedule(%struct.st_ParallelThreadsSchedule*)

declare void @InitializeParallelThreads()

declare %struct.st_ParallelThreadsEnvironment* @_ZL30New_ParallelThreadsEnvironmentx(i64)

declare void @_ZL17runParallelThreadPv(i8*)

declare void @DeinitializeParallelThreads()

declare void @ParallelThreads_addStartFunction(void (%struct.st_ParallelThread*)*)

declare i32 @ParallelThreads_For(i8*, void (i8*, %struct.st_ParallelThreadsEnvironment*)*, void (i8*, %struct.st_ParallelThread*)*, i64, i64, i64, %struct.st_ParallelThreadsSchedule*)

declare i32 @ParallelThreads_Reduce(i8*, void (i8*, %struct.st_ParallelThreadsEnvironment*)*, void (i8*, %struct.st_ParallelThread*)*, i64, i64, i64)

declare i32 @ParallelThreads_Iterate(i8*, void (i8*, %struct.st_ParallelThread*)*, i32)

declare i64 @ParallelThread_RangeStart(%struct.st_ParallelThread*)

declare i64 @ParallelThread_RangeEnd(%struct.st_ParallelThread*)

declare i64 @ParallelThread_RangeStep(%struct.st_ParallelThread*)

declare i64 @ParallelThread_ID(%struct.st_ParallelThread*)

declare void @ParallelThread_synchronizeLock(%struct.st_ParallelThread*)

declare void @ParallelThread_synchronizeUnlock(%struct.st_ParallelThread*)

declare void @ParallelThread_cancel(%struct.st_ParallelThread*, i32)

declare i32 @ParallelThread_canceledQ(%struct.st_ParallelThread*)

declare i64 @ParallelThreadsEnvironment_numThreads(%struct.st_ParallelThreadsEnvironment*)

declare i64* @ParallelThreadID(i64*)

declare void @_Z21init_parallel_threadsi(i32)

declare i32 @s_machfunc_i_abs(i64*, i64, i32)

declare i32 @s_machfunc_d_abs(double*, double, i32)

declare i32 @s_machfunc_c_abs(double*, double, double, i32)

declare i32 @s_machfunc_i_conj(i64*, i64, i32)

declare i32 @s_machfunc_d_conj(double*, double, i32)

declare i32 @s_machfunc_c_conj(%"class.std::__1::complex"*, double, double, i32)

declare i32 @s_machfunc_c_arg(double*, double, double, i32)

declare i32 @s_machfunc_i_abssquare(i64*, i64, i32)

declare i32 @s_machfunc_d_abssquare(double*, double, i32)

declare i32 @s_machfunc_c_abssquare(double*, double, double, i32)

declare i32 @s_machfunc_d_exp(double*, double, i32)

declare i32 @s_machfunc_c_exp(%"class.std::__1::complex"*, double, double, i32)

declare i32 @s_machfunc_d_expm1(double*, double, i32)

declare i32 @s_machfunc_c_expm1(%"class.std::__1::complex"*, double, double, i32)

declare i32 @s_machfunc_d_log(double*, double, i32)

declare i32 @s_machfunc_c_log(%"class.std::__1::complex"*, double, double, i32)

declare i32 @s_machfunc_d_log1p(double*, double, i32)

declare i32 @s_machfunc_c_log1p(%"class.std::__1::complex"*, double, double, i32)

declare { double, double } @_ZN3wrt9scalar_op5unaryL8log1p_opINSt3__17complexIdEELNS_13runtime_flagsE0EEENS3_9enable_ifIXsr10is_complexIT_EE5valueENS1_6detail7op_infoILNS9_2opE47EN7rt_typeIS8_E4typeEE11result_typeEE4typeERKNSF_13argument_typeE.65(double, double)

declare i32 @s_machfunc_i_log2(i64*, i64, i32)

declare i32 @s_machfunc_d_log2(double*, double, i32)

declare i32 @s_machfunc_c_log2(%"class.std::__1::complex"*, double, double, i32)

declare i32 @s_machfunc_i_log10(i64*, i64, i32)

declare i32 @s_machfunc_d_log10(double*, double, i32)

declare i32 @s_machfunc_c_log10(%"class.std::__1::complex"*, double, double, i32)

declare i32 @s_machfunc_i_zero(i64*, i64, i32)

declare i32 @s_machfunc_d_zero(double*, double, i32)

declare i32 @s_machfunc_c_zero(%"class.std::__1::complex"*, double, double, i32)

declare i32 @s_machfunc_i_copy(i64*, i64, i32)

declare i32 @s_machfunc_d_copy(double*, double, i32)

declare i32 @s_machfunc_c_copy(%"class.std::__1::complex"*, double, double, i32)

declare i32 @s_machfunc_i_minus(i64*, i64, i32)

declare i32 @s_machfunc_d_minus(double*, double, i32)

declare i32 @s_machfunc_c_minus(%"class.std::__1::complex"*, double, double, i32)

declare i32 @s_machfunc_i_re(i64*, i64, i32)

declare i32 @s_machfunc_d_re(double*, double, i32)

declare i32 @s_machfunc_c_re(double*, double, double, i32)

declare i32 @s_machfunc_i_im(i64*, i64, i32)

declare i32 @s_machfunc_d_im(i64*, double, i32)

declare i32 @s_machfunc_c_im(double*, double, double, i32)

declare i32 @s_machfunc_d_recip(double*, double, i32)

declare i32 @s_machfunc_c_recip(%"class.std::__1::complex"*, double, double, i32)

declare { double, double } @_ZN3wrt9scalar_op6binaryL9divide_opINSt3__17complexIdEES5_LNS_13runtime_flagsE1EEENS3_9enable_ifIXoosr28is_floating_point_or_complexIT_EE5valuesr28is_floating_point_or_complexIT0_EE5valueENS1_6detail7op_infoILNSA_2opE9EN7rt_typeIS8_E4typeENSD_IS9_E4typeEE11result_typeEE4typeERKNSI_19first_argument_typeERKNSI_20second_argument_typeE.66(%"class.std::__1::complex"*, %"class.std::__1::complex"*)

declare i32 @s_machfunc_d_sqrt(double*, double, i32)

declare i32 @s_machfunc_c_sqrt(%"class.std::__1::complex"*, double, double, i32)

declare i32 @s_machfunc_d_cbrt(double*, double, i32)

declare i32 @s_machfunc_d_rsqrt(double*, double, i32)

declare i32 @s_machfunc_c_rsqrt(%"class.std::__1::complex"*, double, double, i32)

declare i32 @s_machfunc_i_square(i64*, i64, i32)

declare i32 @s_machfunc_d_square(double*, double, i32)

declare i32 @s_machfunc_c_square(%"class.std::__1::complex"*, double, double, i32)

declare i32 @s_machfunc_i_round(i64*, i64, i32)

declare i32 @s_machfunc_d_round(i64*, double, i32)

declare i32 @s_machfunc_i_floor(i64*, i64, i32)

declare i32 @s_machfunc_d_floor(i64*, double, i32)

declare i32 @s_machfunc_i_ceiling(i64*, i64, i32)

declare i32 @s_machfunc_d_ceiling(i64*, double, i32)

declare i32 @s_machfunc_i_mod1(i64*, i64, i32)

declare i32 @s_machfunc_d_mod1(double*, double, i32)

declare i32 @s_machfunc_c_mod1(%"class.std::__1::complex"*, double, double, i32)

declare i32 @s_machfunc_i_fracpart(i64*, i64, i32)

declare i32 @s_machfunc_d_fracpart(double*, double, i32)

declare i32 @s_machfunc_c_fracpart(%"class.std::__1::complex"*, double, double, i32)

declare i32 @s_machfunc_i_intpart(i64*, i64, i32)

declare i32 @s_machfunc_d_intpart(i64*, double, i32)

declare i32 @s_machfunc_i_sign(i64*, i64, i32)

declare i32 @s_machfunc_d_sign(i64*, double, i32)

declare i32 @s_machfunc_c_sign(%"class.std::__1::complex"*, double, double, i32)

declare i32 @s_machfunc_d_sin(double*, double, i32)

declare i32 @s_machfunc_c_sin(%"class.std::__1::complex"*, double, double, i32)

declare i32 @s_machfunc_d_sinh(double*, double, i32)

declare i32 @s_machfunc_c_sinh(%"class.std::__1::complex"*, double, double, i32)

declare i32 @s_machfunc_d_cos(double*, double, i32)

declare i32 @s_machfunc_c_cos(%"class.std::__1::complex"*, double, double, i32)

declare i32 @s_machfunc_d_cosh(double*, double, i32)

declare i32 @s_machfunc_c_cosh(%"class.std::__1::complex"*, double, double, i32)

declare i32 @s_machfunc_d_tan(double*, double, i32)

declare i32 @s_machfunc_c_tan(%"class.std::__1::complex"*, double, double, i32)

declare i32 @s_machfunc_d_tanh(double*, double, i32)

declare i32 @s_machfunc_c_tanh(%"class.std::__1::complex"*, double, double, i32)

declare i32 @s_machfunc_d_csc(double*, double, i32)

declare i32 @s_machfunc_c_csc(%"class.std::__1::complex"*, double, double, i32)

declare i32 @s_machfunc_d_csch(double*, double, i32)

declare i32 @s_machfunc_c_csch(%"class.std::__1::complex"*, double, double, i32)

declare i32 @s_machfunc_d_sec(double*, double, i32)

declare i32 @s_machfunc_c_sec(%"class.std::__1::complex"*, double, double, i32)

declare i32 @s_machfunc_d_sech(double*, double, i32)

declare i32 @s_machfunc_c_sech(%"class.std::__1::complex"*, double, double, i32)

declare i32 @s_machfunc_d_cot(double*, double, i32)

declare i32 @s_machfunc_c_cot(%"class.std::__1::complex"*, double, double, i32)

declare i32 @s_machfunc_d_coth(double*, double, i32)

declare i32 @s_machfunc_c_coth(%"class.std::__1::complex"*, double, double, i32)

declare i32 @s_machfunc_d_asin(double*, double, i32)

declare i32 @s_machfunc_c_asin(%"class.std::__1::complex"*, double, double, i32)

declare { double, double } @_ZN3wrt9scalar_op5unaryL8asinh_opINSt3__17complexIdEELNS_13runtime_flagsE0EEENS3_9enable_ifIXsr10is_complexIT_EE5valueENS1_6detail7op_infoILNS9_2opE13EN7rt_typeIS8_E4typeEE11result_typeEE4typeERKNSF_13argument_typeE.68(%"class.std::__1::complex"*)

declare i32 @s_machfunc_d_asinh(double*, double, i32)

declare i32 @s_machfunc_c_asinh(%"class.std::__1::complex"*, double, double, i32)

declare i32 @s_machfunc_d_acos(double*, double, i32)

declare i32 @s_machfunc_c_acos(%"class.std::__1::complex"*, double, double, i32)

declare i32 @s_machfunc_d_acosh(double*, double, i32)

